#******************************************************************************
# Filename: E:\zFAS-Jenkins\workspace\zFAS_AIT_Master_AAT\SW\0300_ApplicationLayer\branches\CL3_REL_320_3XX\0340_IntegrationTest\AAT\TestReport\CtApMapFusion SWC-D350-I3.1.1-P51.4_20190729090944-S30.15_20190827092216
# Date: 10.09.2019 17:17
# SWC Version:  SWC-D350-I3.1.1-P51.4_20190729090944-S30.15_20190827092216
#******************************************************************************

#******************************************************************************
# Library Dump: E:\zFAS-Jenkins\workspace\zFAS_AIT_Master_AAT\SW\0300_ApplicationLayer\branches\CL3_REL_320_3XX\0350_SWC-SET\CtApMapFusion\02_libs\CtApMapFusion.vxe
#******************************************************************************
E:\zFAS-Jenkins\workspace\zFAS_AIT_Master_AAT\SW\0300_ApplicationLayer\branches\CL3_REL_320_3XX\0350_SWC-SET\CtApMapFusion\02_libs\CtApMapFusion.vxe:00000004 A ___wrs_rtp_tls_data_align
E:\zFAS-Jenkins\workspace\zFAS_AIT_Master_AAT\SW\0300_ApplicationLayer\branches\CL3_REL_320_3XX\0350_SWC-SET\CtApMapFusion\02_libs\CtApMapFusion.vxe:00000004 A ___wrs_rtp_tls_data_filesize
E:\zFAS-Jenkins\workspace\zFAS_AIT_Master_AAT\SW\0300_ApplicationLayer\branches\CL3_REL_320_3XX\0350_SWC-SET\CtApMapFusion\02_libs\CtApMapFusion.vxe:00000004 A ___wrs_rtp_tls_data_memsize
E:\zFAS-Jenkins\workspace\zFAS_AIT_Master_AAT\SW\0300_ApplicationLayer\branches\CL3_REL_320_3XX\0350_SWC-SET\CtApMapFusion\02_libs\CtApMapFusion.vxe:802df000 R ___wrs_rtp_tls_data_start
E:\zFAS-Jenkins\workspace\zFAS_AIT_Master_AAT\SW\0300_ApplicationLayer\branches\CL3_REL_320_3XX\0350_SWC-SET\CtApMapFusion\02_libs\CtApMapFusion.vxe:8027e428 00000008 W __aeabi_atexit
E:\zFAS-Jenkins\workspace\zFAS_AIT_Master_AAT\SW\0300_ApplicationLayer\branches\CL3_REL_320_3XX\0350_SWC-SET\CtApMapFusion\02_libs\CtApMapFusion.vxe:8001a6c0 00000004 W __aeabi_idiv0
E:\zFAS-Jenkins\workspace\zFAS_AIT_Master_AAT\SW\0300_ApplicationLayer\branches\CL3_REL_320_3XX\0350_SWC-SET\CtApMapFusion\02_libs\CtApMapFusion.vxe:8001a6c0 00000004 W __aeabi_ldiv0
E:\zFAS-Jenkins\workspace\zFAS_AIT_Master_AAT\SW\0300_ApplicationLayer\branches\CL3_REL_320_3XX\0350_SWC-SET\CtApMapFusion\02_libs\CtApMapFusion.vxe:8001a4b4 T __aeabi_uidiv
E:\zFAS-Jenkins\workspace\zFAS_AIT_Master_AAT\SW\0300_ApplicationLayer\branches\CL3_REL_320_3XX\0350_SWC-SET\CtApMapFusion\02_libs\CtApMapFusion.vxe:8001a6a0 00000020 T __aeabi_uidivmod
E:\zFAS-Jenkins\workspace\zFAS_AIT_Master_AAT\SW\0300_ApplicationLayer\branches\CL3_REL_320_3XX\0350_SWC-SET\CtApMapFusion\02_libs\CtApMapFusion.vxe:8027e604 T __aeabi_uldivmod
E:\zFAS-Jenkins\workspace\zFAS_AIT_Master_AAT\SW\0300_ApplicationLayer\branches\CL3_REL_320_3XX\0350_SWC-SET\CtApMapFusion\02_libs\CtApMapFusion.vxe:802e1400 00000004 B __argc
E:\zFAS-Jenkins\workspace\zFAS_AIT_Master_AAT\SW\0300_ApplicationLayer\branches\CL3_REL_320_3XX\0350_SWC-SET\CtApMapFusion\02_libs\CtApMapFusion.vxe:802e1404 00000004 B __argv
E:\zFAS-Jenkins\workspace\zFAS_AIT_Master_AAT\SW\0300_ApplicationLayer\branches\CL3_REL_320_3XX\0350_SWC-SET\CtApMapFusion\02_libs\CtApMapFusion.vxe:82d77088 B __bss_end__
E:\zFAS-Jenkins\workspace\zFAS_AIT_Master_AAT\SW\0300_ApplicationLayer\branches\CL3_REL_320_3XX\0350_SWC-SET\CtApMapFusion\02_libs\CtApMapFusion.vxe:802e13f8 A __bss_start
E:\zFAS-Jenkins\workspace\zFAS_AIT_Master_AAT\SW\0300_ApplicationLayer\branches\CL3_REL_320_3XX\0350_SWC-SET\CtApMapFusion\02_libs\CtApMapFusion.vxe:802e13f8 A __bss_start__
E:\zFAS-Jenkins\workspace\zFAS_AIT_Master_AAT\SW\0300_ApplicationLayer\branches\CL3_REL_320_3XX\0350_SWC-SET\CtApMapFusion\02_libs\CtApMapFusion.vxe:800014c4 000000ec T __copyArgcArgv
E:\zFAS-Jenkins\workspace\zFAS_AIT_Master_AAT\SW\0300_ApplicationLayer\branches\CL3_REL_320_3XX\0350_SWC-SET\CtApMapFusion\02_libs\CtApMapFusion.vxe:80003840 0000006c T __copyAuxvArr
E:\zFAS-Jenkins\workspace\zFAS_AIT_Master_AAT\SW\0300_ApplicationLayer\branches\CL3_REL_320_3XX\0350_SWC-SET\CtApMapFusion\02_libs\CtApMapFusion.vxe:80001408 000000bc T __copyEnvArr
E:\zFAS-Jenkins\workspace\zFAS_AIT_Master_AAT\SW\0300_ApplicationLayer\branches\CL3_REL_320_3XX\0350_SWC-SET\CtApMapFusion\02_libs\CtApMapFusion.vxe:8027e3f4 00000010 W __cxa_guard_acquire
E:\zFAS-Jenkins\workspace\zFAS_AIT_Master_AAT\SW\0300_ApplicationLayer\branches\CL3_REL_320_3XX\0350_SWC-SET\CtApMapFusion\02_libs\CtApMapFusion.vxe:8027e404 0000000c W __cxa_guard_release
E:\zFAS-Jenkins\workspace\zFAS_AIT_Master_AAT\SW\0300_ApplicationLayer\branches\CL3_REL_320_3XX\0350_SWC-SET\CtApMapFusion\02_libs\CtApMapFusion.vxe:8027e410 0000000c W __cxa_pure_virtual
E:\zFAS-Jenkins\workspace\zFAS_AIT_Master_AAT\SW\0300_ApplicationLayer\branches\CL3_REL_320_3XX\0350_SWC-SET\CtApMapFusion\02_libs\CtApMapFusion.vxe:802df138 D __data_start
E:\zFAS-Jenkins\workspace\zFAS_AIT_Master_AAT\SW\0300_ApplicationLayer\branches\CL3_REL_320_3XX\0350_SWC-SET\CtApMapFusion\02_libs\CtApMapFusion.vxe:8027e6b8 0000048c T __divdi3
E:\zFAS-Jenkins\workspace\zFAS_AIT_Master_AAT\SW\0300_ApplicationLayer\branches\CL3_REL_320_3XX\0350_SWC-SET\CtApMapFusion\02_libs\CtApMapFusion.vxe:802e13f4 00000004 V __dso_handle
E:\zFAS-Jenkins\workspace\zFAS_AIT_Master_AAT\SW\0300_ApplicationLayer\branches\CL3_REL_320_3XX\0350_SWC-SET\CtApMapFusion\02_libs\CtApMapFusion.vxe:8000179c 0000006c T __errno
E:\zFAS-Jenkins\workspace\zFAS_AIT_Master_AAT\SW\0300_ApplicationLayer\branches\CL3_REL_320_3XX\0350_SWC-SET\CtApMapFusion\02_libs\CtApMapFusion.vxe:80004ebc 0000004c T __exec_ctors
E:\zFAS-Jenkins\workspace\zFAS_AIT_Master_AAT\SW\0300_ApplicationLayer\branches\CL3_REL_320_3XX\0350_SWC-SET\CtApMapFusion\02_libs\CtApMapFusion.vxe:802df174 00000004 D __exec_xtor_table
E:\zFAS-Jenkins\workspace\zFAS_AIT_Master_AAT\SW\0300_ApplicationLayer\branches\CL3_REL_320_3XX\0350_SWC-SET\CtApMapFusion\02_libs\CtApMapFusion.vxe:802e1410 00000004 B __fini_atexit_nodep
E:\zFAS-Jenkins\workspace\zFAS_AIT_Master_AAT\SW\0300_ApplicationLayer\branches\CL3_REL_320_3XX\0350_SWC-SET\CtApMapFusion\02_libs\CtApMapFusion.vxe:800015c0 00000010 T __getAuxvPtr
E:\zFAS-Jenkins\workspace\zFAS_AIT_Master_AAT\SW\0300_ApplicationLayer\branches\CL3_REL_320_3XX\0350_SWC-SET\CtApMapFusion\02_libs\CtApMapFusion.vxe:8027e640 0000003c T __gnu_ldivmod_helper
E:\zFAS-Jenkins\workspace\zFAS_AIT_Master_AAT\SW\0300_ApplicationLayer\branches\CL3_REL_320_3XX\0350_SWC-SET\CtApMapFusion\02_libs\CtApMapFusion.vxe:8027e67c 0000003c T __gnu_uldivmod_helper
E:\zFAS-Jenkins\workspace\zFAS_AIT_Master_AAT\SW\0300_ApplicationLayer\branches\CL3_REL_320_3XX\0350_SWC-SET\CtApMapFusion\02_libs\CtApMapFusion.vxe:8027e41c 0000000c W __gxx_personality_v0
E:\zFAS-Jenkins\workspace\zFAS_AIT_Master_AAT\SW\0300_ApplicationLayer\branches\CL3_REL_320_3XX\0350_SWC-SET\CtApMapFusion\02_libs\CtApMapFusion.vxe:80000094 00000008 T __init
E:\zFAS-Jenkins\workspace\zFAS_AIT_Master_AAT\SW\0300_ApplicationLayer\branches\CL3_REL_320_3XX\0350_SWC-SET\CtApMapFusion\02_libs\CtApMapFusion.vxe:802df154 00000004 D __pStaticModTlsDesc
E:\zFAS-Jenkins\workspace\zFAS_AIT_Master_AAT\SW\0300_ApplicationLayer\branches\CL3_REL_320_3XX\0350_SWC-SET\CtApMapFusion\02_libs\CtApMapFusion.vxe:80001944 00000100 T __rtpSetupMMU
E:\zFAS-Jenkins\workspace\zFAS_AIT_Master_AAT\SW\0300_ApplicationLayer\branches\CL3_REL_320_3XX\0350_SWC-SET\CtApMapFusion\02_libs\CtApMapFusion.vxe:800013f8 00000010 T __saveArgs
E:\zFAS-Jenkins\workspace\zFAS_AIT_Master_AAT\SW\0300_ApplicationLayer\branches\CL3_REL_320_3XX\0350_SWC-SET\CtApMapFusion\02_libs\CtApMapFusion.vxe:800015b0 00000010 T __setAuxvPtr
E:\zFAS-Jenkins\workspace\zFAS_AIT_Master_AAT\SW\0300_ApplicationLayer\branches\CL3_REL_320_3XX\0350_SWC-SET\CtApMapFusion\02_libs\CtApMapFusion.vxe:800031f0 000000d4 T __taskRtpLock
E:\zFAS-Jenkins\workspace\zFAS_AIT_Master_AAT\SW\0300_ApplicationLayer\branches\CL3_REL_320_3XX\0350_SWC-SET\CtApMapFusion\02_libs\CtApMapFusion.vxe:800032c4 00000110 T __taskRtpUnlock
E:\zFAS-Jenkins\workspace\zFAS_AIT_Master_AAT\SW\0300_ApplicationLayer\branches\CL3_REL_320_3XX\0350_SWC-SET\CtApMapFusion\02_libs\CtApMapFusion.vxe:80001670 00000004 T __tls__
E:\zFAS-Jenkins\workspace\zFAS_AIT_Master_AAT\SW\0300_ApplicationLayer\branches\CL3_REL_320_3XX\0350_SWC-SET\CtApMapFusion\02_libs\CtApMapFusion.vxe:8027eb44 00000430 T __udivdi3
E:\zFAS-Jenkins\workspace\zFAS_AIT_Master_AAT\SW\0300_ApplicationLayer\branches\CL3_REL_320_3XX\0350_SWC-SET\CtApMapFusion\02_libs\CtApMapFusion.vxe:8001a4b4 000001ec T __udivsi3
E:\zFAS-Jenkins\workspace\zFAS_AIT_Master_AAT\SW\0300_ApplicationLayer\branches\CL3_REL_320_3XX\0350_SWC-SET\CtApMapFusion\02_libs\CtApMapFusion.vxe:802df158 00000018 D __vx_sysInfo
E:\zFAS-Jenkins\workspace\zFAS_AIT_Master_AAT\SW\0300_ApplicationLayer\branches\CL3_REL_320_3XX\0350_SWC-SET\CtApMapFusion\02_libs\CtApMapFusion.vxe:80000000 A __wrs_rtp_base
E:\zFAS-Jenkins\workspace\zFAS_AIT_Master_AAT\SW\0300_ApplicationLayer\branches\CL3_REL_320_3XX\0350_SWC-SET\CtApMapFusion\02_libs\CtApMapFusion.vxe:00000004 A __wrs_rtp_tls_data_align
E:\zFAS-Jenkins\workspace\zFAS_AIT_Master_AAT\SW\0300_ApplicationLayer\branches\CL3_REL_320_3XX\0350_SWC-SET\CtApMapFusion\02_libs\CtApMapFusion.vxe:00000004 A __wrs_rtp_tls_data_filesize
E:\zFAS-Jenkins\workspace\zFAS_AIT_Master_AAT\SW\0300_ApplicationLayer\branches\CL3_REL_320_3XX\0350_SWC-SET\CtApMapFusion\02_libs\CtApMapFusion.vxe:00000004 A __wrs_rtp_tls_data_memsize
E:\zFAS-Jenkins\workspace\zFAS_AIT_Master_AAT\SW\0300_ApplicationLayer\branches\CL3_REL_320_3XX\0350_SWC-SET\CtApMapFusion\02_libs\CtApMapFusion.vxe:802df000 R __wrs_rtp_tls_data_start
E:\zFAS-Jenkins\workspace\zFAS_AIT_Master_AAT\SW\0300_ApplicationLayer\branches\CL3_REL_320_3XX\0350_SWC-SET\CtApMapFusion\02_libs\CtApMapFusion.vxe:802df14c 00000004 D _Atcount
E:\zFAS-Jenkins\workspace\zFAS_AIT_Master_AAT\SW\0300_ApplicationLayer\branches\CL3_REL_320_3XX\0350_SWC-SET\CtApMapFusion\02_libs\CtApMapFusion.vxe:802e15dc 00000004 B _Atcount0
E:\zFAS-Jenkins\workspace\zFAS_AIT_Master_AAT\SW\0300_ApplicationLayer\branches\CL3_REL_320_3XX\0350_SWC-SET\CtApMapFusion\02_libs\CtApMapFusion.vxe:802df144 00000004 D _Atfuns
E:\zFAS-Jenkins\workspace\zFAS_AIT_Master_AAT\SW\0300_ApplicationLayer\branches\CL3_REL_320_3XX\0350_SWC-SET\CtApMapFusion\02_libs\CtApMapFusion.vxe:80003674 00000008 T _Atrealloc
E:\zFAS-Jenkins\workspace\zFAS_AIT_Master_AAT\SW\0300_ApplicationLayer\branches\CL3_REL_320_3XX\0350_SWC-SET\CtApMapFusion\02_libs\CtApMapFusion.vxe:82d77088 B _bss_end__
E:\zFAS-Jenkins\workspace\zFAS_AIT_Master_AAT\SW\0300_ApplicationLayer\branches\CL3_REL_320_3XX\0350_SWC-SET\CtApMapFusion\02_libs\CtApMapFusion.vxe:8001b174 00000010 T _clock_gettime
E:\zFAS-Jenkins\workspace\zFAS_AIT_Master_AAT\SW\0300_ApplicationLayer\branches\CL3_REL_320_3XX\0350_SWC-SET\CtApMapFusion\02_libs\CtApMapFusion.vxe:82d77078 00000010 B _clockRealtime
E:\zFAS-Jenkins\workspace\zFAS_AIT_Master_AAT\SW\0300_ApplicationLayer\branches\CL3_REL_320_3XX\0350_SWC-SET\CtApMapFusion\02_libs\CtApMapFusion.vxe:8001b184 00000010 T _close
E:\zFAS-Jenkins\workspace\zFAS_AIT_Master_AAT\SW\0300_ApplicationLayer\branches\CL3_REL_320_3XX\0350_SWC-SET\CtApMapFusion\02_libs\CtApMapFusion.vxe:80004948 00000004 T _ComputeTLSBase
E:\zFAS-Jenkins\workspace\zFAS_AIT_Master_AAT\SW\0300_ApplicationLayer\branches\CL3_REL_320_3XX\0350_SWC-SET\CtApMapFusion\02_libs\CtApMapFusion.vxe:800015d4 00000004 T _crtSignalInit
E:\zFAS-Jenkins\workspace\zFAS_AIT_Master_AAT\SW\0300_ApplicationLayer\branches\CL3_REL_320_3XX\0350_SWC-SET\CtApMapFusion\02_libs\CtApMapFusion.vxe:800015d0 00000004 T _crtTaskInit
E:\zFAS-Jenkins\workspace\zFAS_AIT_Master_AAT\SW\0300_ApplicationLayer\branches\CL3_REL_320_3XX\0350_SWC-SET\CtApMapFusion\02_libs\CtApMapFusion.vxe:802df170 00000004 D _Ctype
E:\zFAS-Jenkins\workspace\zFAS_AIT_Master_AAT\SW\0300_ApplicationLayer\branches\CL3_REL_320_3XX\0350_SWC-SET\CtApMapFusion\02_libs\CtApMapFusion.vxe:80003ca8 00000010 T _edrErrorInject
E:\zFAS-Jenkins\workspace\zFAS_AIT_Master_AAT\SW\0300_ApplicationLayer\branches\CL3_REL_320_3XX\0350_SWC-SET\CtApMapFusion\02_libs\CtApMapFusion.vxe:82d77088 A _end
E:\zFAS-Jenkins\workspace\zFAS_AIT_Master_AAT\SW\0300_ApplicationLayer\branches\CL3_REL_320_3XX\0350_SWC-SET\CtApMapFusion\02_libs\CtApMapFusion.vxe:80004e5c 00000010 T _eventReceive
E:\zFAS-Jenkins\workspace\zFAS_AIT_Master_AAT\SW\0300_ApplicationLayer\branches\CL3_REL_320_3XX\0350_SWC-SET\CtApMapFusion\02_libs\CtApMapFusion.vxe:80003cbc 00000010 T _exit
E:\zFAS-Jenkins\workspace\zFAS_AIT_Master_AAT\SW\0300_ApplicationLayer\branches\CL3_REL_320_3XX\0350_SWC-SET\CtApMapFusion\02_libs\CtApMapFusion.vxe:80003908 00000008 T _Exit
E:\zFAS-Jenkins\workspace\zFAS_AIT_Master_AAT\SW\0300_ApplicationLayer\branches\CL3_REL_320_3XX\0350_SWC-SET\CtApMapFusion\02_libs\CtApMapFusion.vxe:802bba74 R _fini
E:\zFAS-Jenkins\workspace\zFAS_AIT_Master_AAT\SW\0300_ApplicationLayer\branches\CL3_REL_320_3XX\0350_SWC-SET\CtApMapFusion\02_libs\CtApMapFusion.vxe:802c83c8 00000048 V _Flt
E:\zFAS-Jenkins\workspace\zFAS_AIT_Master_AAT\SW\0300_ApplicationLayer\branches\CL3_REL_320_3XX\0350_SWC-SET\CtApMapFusion\02_libs\CtApMapFusion.vxe:82d76f6c 00000004 B _func_tlsSizeGet
E:\zFAS-Jenkins\workspace\zFAS_AIT_Master_AAT\SW\0300_ApplicationLayer\branches\CL3_REL_320_3XX\0350_SWC-SET\CtApMapFusion\02_libs\CtApMapFusion.vxe:80004e30 0000002c T _Getpctype
E:\zFAS-Jenkins\workspace\zFAS_AIT_Master_AAT\SW\0300_ApplicationLayer\branches\CL3_REL_320_3XX\0350_SWC-SET\CtApMapFusion\02_libs\CtApMapFusion.vxe:80003c7c 0000002c T _Getptolower
E:\zFAS-Jenkins\workspace\zFAS_AIT_Master_AAT\SW\0300_ApplicationLayer\branches\CL3_REL_320_3XX\0350_SWC-SET\CtApMapFusion\02_libs\CtApMapFusion.vxe:8001b198 00000010 T _getsockopt
E:\zFAS-Jenkins\workspace\zFAS_AIT_Master_AAT\SW\0300_ApplicationLayer\branches\CL3_REL_320_3XX\0350_SWC-SET\CtApMapFusion\02_libs\CtApMapFusion.vxe:80005560 0000000c T _idle_rcv
E:\zFAS-Jenkins\workspace\zFAS_AIT_Master_AAT\SW\0300_ApplicationLayer\branches\CL3_REL_320_3XX\0350_SWC-SET\CtApMapFusion\02_libs\CtApMapFusion.vxe:80000094 T _init
E:\zFAS-Jenkins\workspace\zFAS_AIT_Master_AAT\SW\0300_ApplicationLayer\branches\CL3_REL_320_3XX\0350_SWC-SET\CtApMapFusion\02_libs\CtApMapFusion.vxe:800047fc 00000068 T _InitialiseModuleTLSArea
E:\zFAS-Jenkins\workspace\zFAS_AIT_Master_AAT\SW\0300_ApplicationLayer\branches\CL3_REL_320_3XX\0350_SWC-SET\CtApMapFusion\02_libs\CtApMapFusion.vxe:800047d4 00000028 T _InitTlsLib
E:\zFAS-Jenkins\workspace\zFAS_AIT_Master_AAT\SW\0300_ApplicationLayer\branches\CL3_REL_320_3XX\0350_SWC-SET\CtApMapFusion\02_libs\CtApMapFusion.vxe:8001b1a8 00000010 T _ioctl
E:\zFAS-Jenkins\workspace\zFAS_AIT_Master_AAT\SW\0300_ApplicationLayer\branches\CL3_REL_320_3XX\0350_SWC-SET\CtApMapFusion\02_libs\CtApMapFusion.vxe:8000ebc8 00000434 T _Log_AddMsg
E:\zFAS-Jenkins\workspace\zFAS_AIT_Master_AAT\SW\0300_ApplicationLayer\branches\CL3_REL_320_3XX\0350_SWC-SET\CtApMapFusion\02_libs\CtApMapFusion.vxe:8000cfec 00000124 T _Log_Get_Format_Arg
E:\zFAS-Jenkins\workspace\zFAS_AIT_Master_AAT\SW\0300_ApplicationLayer\branches\CL3_REL_320_3XX\0350_SWC-SET\CtApMapFusion\02_libs\CtApMapFusion.vxe:8000cfb8 00000034 T _Log_Strlen
E:\zFAS-Jenkins\workspace\zFAS_AIT_Master_AAT\SW\0300_ApplicationLayer\branches\CL3_REL_320_3XX\0350_SWC-SET\CtApMapFusion\02_libs\CtApMapFusion.vxe:8001b1bc 00000010 T _msgQOpen
E:\zFAS-Jenkins\workspace\zFAS_AIT_Master_AAT\SW\0300_ApplicationLayer\branches\CL3_REL_320_3XX\0350_SWC-SET\CtApMapFusion\02_libs\CtApMapFusion.vxe:8001b1d0 00000010 T _msgQReceive
E:\zFAS-Jenkins\workspace\zFAS_AIT_Master_AAT\SW\0300_ApplicationLayer\branches\CL3_REL_320_3XX\0350_SWC-SET\CtApMapFusion\02_libs\CtApMapFusion.vxe:8001b1e0 00000010 T _open
E:\zFAS-Jenkins\workspace\zFAS_AIT_Master_AAT\SW\0300_ApplicationLayer\branches\CL3_REL_320_3XX\0350_SWC-SET\CtApMapFusion\02_libs\CtApMapFusion.vxe:8001b1f4 00000010 T _read
E:\zFAS-Jenkins\workspace\zFAS_AIT_Master_AAT\SW\0300_ApplicationLayer\branches\CL3_REL_320_3XX\0350_SWC-SET\CtApMapFusion\02_libs\CtApMapFusion.vxe:8000d65c 000002d0 T _Rec_AddMsg
E:\zFAS-Jenkins\workspace\zFAS_AIT_Master_AAT\SW\0300_ApplicationLayer\branches\CL3_REL_320_3XX\0350_SWC-SET\CtApMapFusion\02_libs\CtApMapFusion.vxe:8000d92c 0000038c T _Rec_AddMsg_EH
E:\zFAS-Jenkins\workspace\zFAS_AIT_Master_AAT\SW\0300_ApplicationLayer\branches\CL3_REL_320_3XX\0350_SWC-SET\CtApMapFusion\02_libs\CtApMapFusion.vxe:8000e004 00000004 T _Rec_AddMsg_RTWM
E:\zFAS-Jenkins\workspace\zFAS_AIT_Master_AAT\SW\0300_ApplicationLayer\branches\CL3_REL_320_3XX\0350_SWC-SET\CtApMapFusion\02_libs\CtApMapFusion.vxe:8000dcb8 00000130 T _Rec_AddMsg_RTWM_Start
E:\zFAS-Jenkins\workspace\zFAS_AIT_Master_AAT\SW\0300_ApplicationLayer\branches\CL3_REL_320_3XX\0350_SWC-SET\CtApMapFusion\02_libs\CtApMapFusion.vxe:8000dde8 0000021c T _Rec_AddMsg_RTWM_Stop
E:\zFAS-Jenkins\workspace\zFAS_AIT_Master_AAT\SW\0300_ApplicationLayer\branches\CL3_REL_320_3XX\0350_SWC-SET\CtApMapFusion\02_libs\CtApMapFusion.vxe:8000aa4c 0000001c T _RecGetRecWMConfigPtr
E:\zFAS-Jenkins\workspace\zFAS_AIT_Master_AAT\SW\0300_ApplicationLayer\branches\CL3_REL_320_3XX\0350_SWC-SET\CtApMapFusion\02_libs\CtApMapFusion.vxe:8000aa68 00000008 T _RecGetRecWMConfigSize
E:\zFAS-Jenkins\workspace\zFAS_AIT_Master_AAT\SW\0300_ApplicationLayer\branches\CL3_REL_320_3XX\0350_SWC-SET\CtApMapFusion\02_libs\CtApMapFusion.vxe:8001b204 00000010 T _recvfrom
E:\zFAS-Jenkins\workspace\zFAS_AIT_Master_AAT\SW\0300_ApplicationLayer\branches\CL3_REL_320_3XX\0350_SWC-SET\CtApMapFusion\02_libs\CtApMapFusion.vxe:80007534 000004d4 T _Rte_RMBFInit
E:\zFAS-Jenkins\workspace\zFAS_AIT_Master_AAT\SW\0300_ApplicationLayer\branches\CL3_REL_320_3XX\0350_SWC-SET\CtApMapFusion\02_libs\CtApMapFusion.vxe:80007a08 00000558 T _Rte_RMBFmain
E:\zFAS-Jenkins\workspace\zFAS_AIT_Master_AAT\SW\0300_ApplicationLayer\branches\CL3_REL_320_3XX\0350_SWC-SET\CtApMapFusion\02_libs\CtApMapFusion.vxe:80003ccc 00000010 T _semGive
E:\zFAS-Jenkins\workspace\zFAS_AIT_Master_AAT\SW\0300_ApplicationLayer\branches\CL3_REL_320_3XX\0350_SWC-SET\CtApMapFusion\02_libs\CtApMapFusion.vxe:80003ce0 00000010 T _semOpen
E:\zFAS-Jenkins\workspace\zFAS_AIT_Master_AAT\SW\0300_ApplicationLayer\branches\CL3_REL_320_3XX\0350_SWC-SET\CtApMapFusion\02_libs\CtApMapFusion.vxe:80003cf4 00000010 T _semTake
E:\zFAS-Jenkins\workspace\zFAS_AIT_Master_AAT\SW\0300_ApplicationLayer\branches\CL3_REL_320_3XX\0350_SWC-SET\CtApMapFusion\02_libs\CtApMapFusion.vxe:80004934 00000014 T _SetTLSAreaBase
E:\zFAS-Jenkins\workspace\zFAS_AIT_Master_AAT\SW\0300_ApplicationLayer\branches\CL3_REL_320_3XX\0350_SWC-SET\CtApMapFusion\02_libs\CtApMapFusion.vxe:00080000 N _stack
E:\zFAS-Jenkins\workspace\zFAS_AIT_Master_AAT\SW\0300_ApplicationLayer\branches\CL3_REL_320_3XX\0350_SWC-SET\CtApMapFusion\02_libs\CtApMapFusion.vxe:8000139c 0000005c T _start
E:\zFAS-Jenkins\workspace\zFAS_AIT_Master_AAT\SW\0300_ApplicationLayer\branches\CL3_REL_320_3XX\0350_SWC-SET\CtApMapFusion\02_libs\CtApMapFusion.vxe:80000544 0000009c T _STI__1__memAlignSizeInit
E:\zFAS-Jenkins\workspace\zFAS_AIT_Master_AAT\SW\0300_ApplicationLayer\branches\CL3_REL_320_3XX\0350_SWC-SET\CtApMapFusion\02_libs\CtApMapFusion.vxe:800005e0 000000dc T _STI__1__vxSysInfo
E:\zFAS-Jenkins\workspace\zFAS_AIT_Master_AAT\SW\0300_ApplicationLayer\branches\CL3_REL_320_3XX\0350_SWC-SET\CtApMapFusion\02_libs\CtApMapFusion.vxe:80000220 000002a8 T _STI__21__taskLibInit
E:\zFAS-Jenkins\workspace\zFAS_AIT_Master_AAT\SW\0300_ApplicationLayer\branches\CL3_REL_320_3XX\0350_SWC-SET\CtApMapFusion\02_libs\CtApMapFusion.vxe:80000a14 0000004c T _STI__40__clockLibInit
E:\zFAS-Jenkins\workspace\zFAS_AIT_Master_AAT\SW\0300_ApplicationLayer\branches\CL3_REL_320_3XX\0350_SWC-SET\CtApMapFusion\02_libs\CtApMapFusion.vxe:800004c8 0000007c T _STI__40__taskInitTaskHookRun
E:\zFAS-Jenkins\workspace\zFAS_AIT_Master_AAT\SW\0300_ApplicationLayer\branches\CL3_REL_320_3XX\0350_SWC-SET\CtApMapFusion\02_libs\CtApMapFusion.vxe:800000d8 00000148 T _STI__5__memHeapInit
E:\zFAS-Jenkins\workspace\zFAS_AIT_Master_AAT\SW\0300_ApplicationLayer\branches\CL3_REL_320_3XX\0350_SWC-SET\CtApMapFusion\02_libs\CtApMapFusion.vxe:80000a04 00000010 T _STI__5__shmLibInit
E:\zFAS-Jenkins\workspace\zFAS_AIT_Master_AAT\SW\0300_ApplicationLayer\branches\CL3_REL_320_3XX\0350_SWC-SET\CtApMapFusion\02_libs\CtApMapFusion.vxe:800000a0 00000038 T _STI__6__tlsLibInit
E:\zFAS-Jenkins\workspace\zFAS_AIT_Master_AAT\SW\0300_ApplicationLayer\branches\CL3_REL_320_3XX\0350_SWC-SET\CtApMapFusion\02_libs\CtApMapFusion.vxe:80003910 000000f0 T _Stolx
E:\zFAS-Jenkins\workspace\zFAS_AIT_Master_AAT\SW\0300_ApplicationLayer\branches\CL3_REL_320_3XX\0350_SWC-SET\CtApMapFusion\02_libs\CtApMapFusion.vxe:80003c74 00000008 T _Stoul
E:\zFAS-Jenkins\workspace\zFAS_AIT_Master_AAT\SW\0300_ApplicationLayer\branches\CL3_REL_320_3XX\0350_SWC-SET\CtApMapFusion\02_libs\CtApMapFusion.vxe:80003a00 00000274 T _Stoulx
E:\zFAS-Jenkins\workspace\zFAS_AIT_Master_AAT\SW\0300_ApplicationLayer\branches\CL3_REL_320_3XX\0350_SWC-SET\CtApMapFusion\02_libs\CtApMapFusion.vxe:80003d04 00000010 T _taskOpen
E:\zFAS-Jenkins\workspace\zFAS_AIT_Master_AAT\SW\0300_ApplicationLayer\branches\CL3_REL_320_3XX\0350_SWC-SET\CtApMapFusion\02_libs\CtApMapFusion.vxe:80003d14 00000010 T _taskOpenWithGuard
E:\zFAS-Jenkins\workspace\zFAS_AIT_Master_AAT\SW\0300_ApplicationLayer\branches\CL3_REL_320_3XX\0350_SWC-SET\CtApMapFusion\02_libs\CtApMapFusion.vxe:80003d24 00000010 T _taskTcbCurrentGet
E:\zFAS-Jenkins\workspace\zFAS_AIT_Master_AAT\SW\0300_ApplicationLayer\branches\CL3_REL_320_3XX\0350_SWC-SET\CtApMapFusion\02_libs\CtApMapFusion.vxe:8001b214 00000010 T _tick64Get
E:\zFAS-Jenkins\workspace\zFAS_AIT_Master_AAT\SW\0300_ApplicationLayer\branches\CL3_REL_320_3XX\0350_SWC-SET\CtApMapFusion\02_libs\CtApMapFusion.vxe:802e1628 00000004 B _Tls_setup__Ctype
E:\zFAS-Jenkins\workspace\zFAS_AIT_Master_AAT\SW\0300_ApplicationLayer\branches\CL3_REL_320_3XX\0350_SWC-SET\CtApMapFusion\02_libs\CtApMapFusion.vxe:802e15e0 00000004 B _Tls_setup__Tolotab
E:\zFAS-Jenkins\workspace\zFAS_AIT_Master_AAT\SW\0300_ApplicationLayer\branches\CL3_REL_320_3XX\0350_SWC-SET\CtApMapFusion\02_libs\CtApMapFusion.vxe:802df150 00000004 D _Tolotab
E:\zFAS-Jenkins\workspace\zFAS_AIT_Master_AAT\SW\0300_ApplicationLayer\branches\CL3_REL_320_3XX\0350_SWC-SET\CtApMapFusion\02_libs\CtApMapFusion.vxe:80008cd8 00000190 T _Trace_AddTrace
E:\zFAS-Jenkins\workspace\zFAS_AIT_Master_AAT\SW\0300_ApplicationLayer\branches\CL3_REL_320_3XX\0350_SWC-SET\CtApMapFusion\02_libs\CtApMapFusion.vxe:800098b4 000000b8 T _Trace_Checkpoint
E:\zFAS-Jenkins\workspace\zFAS_AIT_Master_AAT\SW\0300_ApplicationLayer\branches\CL3_REL_320_3XX\0350_SWC-SET\CtApMapFusion\02_libs\CtApMapFusion.vxe:8000996c 00000090 T _Trace_CheckpointTimestamped
E:\zFAS-Jenkins\workspace\zFAS_AIT_Master_AAT\SW\0300_ApplicationLayer\branches\CL3_REL_320_3XX\0350_SWC-SET\CtApMapFusion\02_libs\CtApMapFusion.vxe:8000963c 000000cc T _Trace_DriverStart
E:\zFAS-Jenkins\workspace\zFAS_AIT_Master_AAT\SW\0300_ApplicationLayer\branches\CL3_REL_320_3XX\0350_SWC-SET\CtApMapFusion\02_libs\CtApMapFusion.vxe:80009708 000000cc T _Trace_DriverStop
E:\zFAS-Jenkins\workspace\zFAS_AIT_Master_AAT\SW\0300_ApplicationLayer\branches\CL3_REL_320_3XX\0350_SWC-SET\CtApMapFusion\02_libs\CtApMapFusion.vxe:800092c8 00000164 T _Trace_ExeCtxSwitch
E:\zFAS-Jenkins\workspace\zFAS_AIT_Master_AAT\SW\0300_ApplicationLayer\branches\CL3_REL_320_3XX\0350_SWC-SET\CtApMapFusion\02_libs\CtApMapFusion.vxe:8000942c 00000138 T _Trace_ExeCtxSwitch_Timestamped
E:\zFAS-Jenkins\workspace\zFAS_AIT_Master_AAT\SW\0300_ApplicationLayer\branches\CL3_REL_320_3XX\0350_SWC-SET\CtApMapFusion\02_libs\CtApMapFusion.vxe:800099fc 000000ac T _Trace_InputSignal
E:\zFAS-Jenkins\workspace\zFAS_AIT_Master_AAT\SW\0300_ApplicationLayer\branches\CL3_REL_320_3XX\0350_SWC-SET\CtApMapFusion\02_libs\CtApMapFusion.vxe:80009564 000000d8 T _Trace_Interrupt
E:\zFAS-Jenkins\workspace\zFAS_AIT_Master_AAT\SW\0300_ApplicationLayer\branches\CL3_REL_320_3XX\0350_SWC-SET\CtApMapFusion\02_libs\CtApMapFusion.vxe:80009bec 000000cc T _Trace_PM_HeapValue
E:\zFAS-Jenkins\workspace\zFAS_AIT_Master_AAT\SW\0300_ApplicationLayer\branches\CL3_REL_320_3XX\0350_SWC-SET\CtApMapFusion\02_libs\CtApMapFusion.vxe:80009d74 000000c4 T _Trace_PM_R_NetTime
E:\zFAS-Jenkins\workspace\zFAS_AIT_Master_AAT\SW\0300_ApplicationLayer\branches\CL3_REL_320_3XX\0350_SWC-SET\CtApMapFusion\02_libs\CtApMapFusion.vxe:80009cb8 000000bc T _Trace_PM_RunTime
E:\zFAS-Jenkins\workspace\zFAS_AIT_Master_AAT\SW\0300_ApplicationLayer\branches\CL3_REL_320_3XX\0350_SWC-SET\CtApMapFusion\02_libs\CtApMapFusion.vxe:80009b30 000000bc T _Trace_PM_StackValue
E:\zFAS-Jenkins\workspace\zFAS_AIT_Master_AAT\SW\0300_ApplicationLayer\branches\CL3_REL_320_3XX\0350_SWC-SET\CtApMapFusion\02_libs\CtApMapFusion.vxe:80008e68 000000f0 T _Trace_RunnableStart
E:\zFAS-Jenkins\workspace\zFAS_AIT_Master_AAT\SW\0300_ApplicationLayer\branches\CL3_REL_320_3XX\0350_SWC-SET\CtApMapFusion\02_libs\CtApMapFusion.vxe:800090bc 000000b8 T _Trace_RunnableStart_Timestamped
E:\zFAS-Jenkins\workspace\zFAS_AIT_Master_AAT\SW\0300_ApplicationLayer\branches\CL3_REL_320_3XX\0350_SWC-SET\CtApMapFusion\02_libs\CtApMapFusion.vxe:80008f58 00000164 T _Trace_RunnableStop
E:\zFAS-Jenkins\workspace\zFAS_AIT_Master_AAT\SW\0300_ApplicationLayer\branches\CL3_REL_320_3XX\0350_SWC-SET\CtApMapFusion\02_libs\CtApMapFusion.vxe:80009174 00000154 T _Trace_RunnableStop_Timestamped
E:\zFAS-Jenkins\workspace\zFAS_AIT_Master_AAT\SW\0300_ApplicationLayer\branches\CL3_REL_320_3XX\0350_SWC-SET\CtApMapFusion\02_libs\CtApMapFusion.vxe:800097d4 000000e0 T _Trace_StateChange
E:\zFAS-Jenkins\workspace\zFAS_AIT_Master_AAT\SW\0300_ApplicationLayer\branches\CL3_REL_320_3XX\0350_SWC-SET\CtApMapFusion\02_libs\CtApMapFusion.vxe:80009aa8 00000088 T _Trace_ZGT_Correction
E:\zFAS-Jenkins\workspace\zFAS_AIT_Master_AAT\SW\0300_ApplicationLayer\branches\CL3_REL_320_3XX\0350_SWC-SET\CtApMapFusion\02_libs\CtApMapFusion.vxe:8001b228 00000010 T _write
E:\zFAS-Jenkins\workspace\zFAS_AIT_Master_AAT\SW\0300_ApplicationLayer\branches\CL3_REL_320_3XX\0350_SWC-SET\CtApMapFusion\02_libs\CtApMapFusion.vxe:8027e310 00000048 T _Z16traceDataPackRtejj
E:\zFAS-Jenkins\workspace\zFAS_AIT_Master_AAT\SW\0300_ApplicationLayer\branches\CL3_REL_320_3XX\0350_SWC-SET\CtApMapFusion\02_libs\CtApMapFusion.vxe:8027e358 00000070 T _Z18traceDataUnpackRteRjS_h
E:\zFAS-Jenkins\workspace\zFAS_AIT_Master_AAT\SW\0300_ApplicationLayer\branches\CL3_REL_320_3XX\0350_SWC-SET\CtApMapFusion\02_libs\CtApMapFusion.vxe:8027e3c8 0000002c T _Z24traceDataGetRefTimeStampRjS_
E:\zFAS-Jenkins\workspace\zFAS_AIT_Master_AAT\SW\0300_ApplicationLayer\branches\CL3_REL_320_3XX\0350_SWC-SET\CtApMapFusion\02_libs\CtApMapFusion.vxe:8027e430 00000004 W _ZdlPv
E:\zFAS-Jenkins\workspace\zFAS_AIT_Master_AAT\SW\0300_ApplicationLayer\branches\CL3_REL_320_3XX\0350_SWC-SET\CtApMapFusion\02_libs\CtApMapFusion.vxe:82d6edec 00000004 V _ZGVZN7mathext7sincosVE18__simd64_float32_tRS0_S1_E4c_p0
E:\zFAS-Jenkins\workspace\zFAS_AIT_Master_AAT\SW\0300_ApplicationLayer\branches\CL3_REL_320_3XX\0350_SWC-SET\CtApMapFusion\02_libs\CtApMapFusion.vxe:82d6ede8 00000004 V _ZGVZN7mathext7sincosVE18__simd64_float32_tRS0_S1_E4c_p1
E:\zFAS-Jenkins\workspace\zFAS_AIT_Master_AAT\SW\0300_ApplicationLayer\branches\CL3_REL_320_3XX\0350_SWC-SET\CtApMapFusion\02_libs\CtApMapFusion.vxe:82d6ede4 00000004 V _ZGVZN7mathext7sincosVE18__simd64_float32_tRS0_S1_E4c_p2
E:\zFAS-Jenkins\workspace\zFAS_AIT_Master_AAT\SW\0300_ApplicationLayer\branches\CL3_REL_320_3XX\0350_SWC-SET\CtApMapFusion\02_libs\CtApMapFusion.vxe:82d6ebf8 00000004 V _ZGVZN9mapfusion12CopyMany2OneILj1ELj1ENS_11NoTransformEE8copyNeonEPKhPhjjE8r_tbl_1b
E:\zFAS-Jenkins\workspace\zFAS_AIT_Master_AAT\SW\0300_ApplicationLayer\branches\CL3_REL_320_3XX\0350_SWC-SET\CtApMapFusion\02_libs\CtApMapFusion.vxe:82d6ebf4 00000004 V _ZGVZN9mapfusion12CopyMany2OneILj1ELj2ENS_11NoTransformEE8copyNeonEPKhPhjjE8r_tbl_1b
E:\zFAS-Jenkins\workspace\zFAS_AIT_Master_AAT\SW\0300_ApplicationLayer\branches\CL3_REL_320_3XX\0350_SWC-SET\CtApMapFusion\02_libs\CtApMapFusion.vxe:82d6ebf0 00000004 V _ZGVZN9mapfusion12CopyMany2OneILj1ELj4ENS_11NoTransformEE8copyNeonEPKhPhjjE8r_tbl_1b
E:\zFAS-Jenkins\workspace\zFAS_AIT_Master_AAT\SW\0300_ApplicationLayer\branches\CL3_REL_320_3XX\0350_SWC-SET\CtApMapFusion\02_libs\CtApMapFusion.vxe:82d6ebfc 00000004 V _ZGVZN9mapfusion12CopyMany2OneILj8ELj2ENS_11NoTransformEE8copyNeonEPKhPhjjE8r_tbl_8b
E:\zFAS-Jenkins\workspace\zFAS_AIT_Master_AAT\SW\0300_ApplicationLayer\branches\CL3_REL_320_3XX\0350_SWC-SET\CtApMapFusion\02_libs\CtApMapFusion.vxe:82d6ec00 00000004 V _ZGVZN9mapfusion12CopyMany2OneILj8ELj5ENS_11NoTransformEE8copyNeonEPKhPhjjE8r_tbl_8b
E:\zFAS-Jenkins\workspace\zFAS_AIT_Master_AAT\SW\0300_ApplicationLayer\branches\CL3_REL_320_3XX\0350_SWC-SET\CtApMapFusion\02_libs\CtApMapFusion.vxe:82d6ebbc 00000004 V _ZGVZN9mapfusion12CopyOne2ManyILj1ELj1ELb0ENS_11NoTransformEE8copyNeonEPKhPhjjjjE8r_tbl_00
E:\zFAS-Jenkins\workspace\zFAS_AIT_Master_AAT\SW\0300_ApplicationLayer\branches\CL3_REL_320_3XX\0350_SWC-SET\CtApMapFusion\02_libs\CtApMapFusion.vxe:82d6ebb8 00000004 V _ZGVZN9mapfusion12CopyOne2ManyILj1ELj1ELb0ENS_11NoTransformEE8copyNeonEPKhPhjjjjE8r_tbl_01
E:\zFAS-Jenkins\workspace\zFAS_AIT_Master_AAT\SW\0300_ApplicationLayer\branches\CL3_REL_320_3XX\0350_SWC-SET\CtApMapFusion\02_libs\CtApMapFusion.vxe:82d6ebb4 00000004 V _ZGVZN9mapfusion12CopyOne2ManyILj1ELj1ELb0ENS_11NoTransformEE8copyNeonEPKhPhjjjjE8r_tbl_10
E:\zFAS-Jenkins\workspace\zFAS_AIT_Master_AAT\SW\0300_ApplicationLayer\branches\CL3_REL_320_3XX\0350_SWC-SET\CtApMapFusion\02_libs\CtApMapFusion.vxe:82d6ebb0 00000004 V _ZGVZN9mapfusion12CopyOne2ManyILj1ELj1ELb0ENS_11NoTransformEE8copyNeonEPKhPhjjjjE8r_tbl_11
E:\zFAS-Jenkins\workspace\zFAS_AIT_Master_AAT\SW\0300_ApplicationLayer\branches\CL3_REL_320_3XX\0350_SWC-SET\CtApMapFusion\02_libs\CtApMapFusion.vxe:82d6ebcc 00000004 V _ZGVZN9mapfusion12CopyOne2ManyILj1ELj1ELb1ENS_11NoTransformEE8copyNeonEPKhPhjjjjE8r_tbl_00
E:\zFAS-Jenkins\workspace\zFAS_AIT_Master_AAT\SW\0300_ApplicationLayer\branches\CL3_REL_320_3XX\0350_SWC-SET\CtApMapFusion\02_libs\CtApMapFusion.vxe:82d6ebc8 00000004 V _ZGVZN9mapfusion12CopyOne2ManyILj1ELj1ELb1ENS_11NoTransformEE8copyNeonEPKhPhjjjjE8r_tbl_01
E:\zFAS-Jenkins\workspace\zFAS_AIT_Master_AAT\SW\0300_ApplicationLayer\branches\CL3_REL_320_3XX\0350_SWC-SET\CtApMapFusion\02_libs\CtApMapFusion.vxe:82d6ebc4 00000004 V _ZGVZN9mapfusion12CopyOne2ManyILj1ELj1ELb1ENS_11NoTransformEE8copyNeonEPKhPhjjjjE8r_tbl_10
E:\zFAS-Jenkins\workspace\zFAS_AIT_Master_AAT\SW\0300_ApplicationLayer\branches\CL3_REL_320_3XX\0350_SWC-SET\CtApMapFusion\02_libs\CtApMapFusion.vxe:82d6ebc0 00000004 V _ZGVZN9mapfusion12CopyOne2ManyILj1ELj1ELb1ENS_11NoTransformEE8copyNeonEPKhPhjjjjE8r_tbl_11
E:\zFAS-Jenkins\workspace\zFAS_AIT_Master_AAT\SW\0300_ApplicationLayer\branches\CL3_REL_320_3XX\0350_SWC-SET\CtApMapFusion\02_libs\CtApMapFusion.vxe:82d6eb9c 00000004 V _ZGVZN9mapfusion12CopyOne2ManyILj1ELj2ELb0ENS_11NoTransformEE8copyNeonEPKhPhjjjjE8r_tbl_00
E:\zFAS-Jenkins\workspace\zFAS_AIT_Master_AAT\SW\0300_ApplicationLayer\branches\CL3_REL_320_3XX\0350_SWC-SET\CtApMapFusion\02_libs\CtApMapFusion.vxe:82d6eb98 00000004 V _ZGVZN9mapfusion12CopyOne2ManyILj1ELj2ELb0ENS_11NoTransformEE8copyNeonEPKhPhjjjjE8r_tbl_01
E:\zFAS-Jenkins\workspace\zFAS_AIT_Master_AAT\SW\0300_ApplicationLayer\branches\CL3_REL_320_3XX\0350_SWC-SET\CtApMapFusion\02_libs\CtApMapFusion.vxe:82d6eb94 00000004 V _ZGVZN9mapfusion12CopyOne2ManyILj1ELj2ELb0ENS_11NoTransformEE8copyNeonEPKhPhjjjjE8r_tbl_10
E:\zFAS-Jenkins\workspace\zFAS_AIT_Master_AAT\SW\0300_ApplicationLayer\branches\CL3_REL_320_3XX\0350_SWC-SET\CtApMapFusion\02_libs\CtApMapFusion.vxe:82d6eb90 00000004 V _ZGVZN9mapfusion12CopyOne2ManyILj1ELj2ELb0ENS_11NoTransformEE8copyNeonEPKhPhjjjjE8r_tbl_11
E:\zFAS-Jenkins\workspace\zFAS_AIT_Master_AAT\SW\0300_ApplicationLayer\branches\CL3_REL_320_3XX\0350_SWC-SET\CtApMapFusion\02_libs\CtApMapFusion.vxe:82d6ebac 00000004 V _ZGVZN9mapfusion12CopyOne2ManyILj1ELj2ELb1ENS_11NoTransformEE8copyNeonEPKhPhjjjjE8r_tbl_00
E:\zFAS-Jenkins\workspace\zFAS_AIT_Master_AAT\SW\0300_ApplicationLayer\branches\CL3_REL_320_3XX\0350_SWC-SET\CtApMapFusion\02_libs\CtApMapFusion.vxe:82d6eba8 00000004 V _ZGVZN9mapfusion12CopyOne2ManyILj1ELj2ELb1ENS_11NoTransformEE8copyNeonEPKhPhjjjjE8r_tbl_01
E:\zFAS-Jenkins\workspace\zFAS_AIT_Master_AAT\SW\0300_ApplicationLayer\branches\CL3_REL_320_3XX\0350_SWC-SET\CtApMapFusion\02_libs\CtApMapFusion.vxe:82d6eba4 00000004 V _ZGVZN9mapfusion12CopyOne2ManyILj1ELj2ELb1ENS_11NoTransformEE8copyNeonEPKhPhjjjjE8r_tbl_10
E:\zFAS-Jenkins\workspace\zFAS_AIT_Master_AAT\SW\0300_ApplicationLayer\branches\CL3_REL_320_3XX\0350_SWC-SET\CtApMapFusion\02_libs\CtApMapFusion.vxe:82d6eba0 00000004 V _ZGVZN9mapfusion12CopyOne2ManyILj1ELj2ELb1ENS_11NoTransformEE8copyNeonEPKhPhjjjjE8r_tbl_11
E:\zFAS-Jenkins\workspace\zFAS_AIT_Master_AAT\SW\0300_ApplicationLayer\branches\CL3_REL_320_3XX\0350_SWC-SET\CtApMapFusion\02_libs\CtApMapFusion.vxe:82d6eb7c 00000004 V _ZGVZN9mapfusion12CopyOne2ManyILj1ELj4ELb0ENS_11NoTransformEE8copyNeonEPKhPhjjjjE8r_tbl_00
E:\zFAS-Jenkins\workspace\zFAS_AIT_Master_AAT\SW\0300_ApplicationLayer\branches\CL3_REL_320_3XX\0350_SWC-SET\CtApMapFusion\02_libs\CtApMapFusion.vxe:82d6eb78 00000004 V _ZGVZN9mapfusion12CopyOne2ManyILj1ELj4ELb0ENS_11NoTransformEE8copyNeonEPKhPhjjjjE8r_tbl_01
E:\zFAS-Jenkins\workspace\zFAS_AIT_Master_AAT\SW\0300_ApplicationLayer\branches\CL3_REL_320_3XX\0350_SWC-SET\CtApMapFusion\02_libs\CtApMapFusion.vxe:82d6eb74 00000004 V _ZGVZN9mapfusion12CopyOne2ManyILj1ELj4ELb0ENS_11NoTransformEE8copyNeonEPKhPhjjjjE8r_tbl_10
E:\zFAS-Jenkins\workspace\zFAS_AIT_Master_AAT\SW\0300_ApplicationLayer\branches\CL3_REL_320_3XX\0350_SWC-SET\CtApMapFusion\02_libs\CtApMapFusion.vxe:82d6eb70 00000004 V _ZGVZN9mapfusion12CopyOne2ManyILj1ELj4ELb0ENS_11NoTransformEE8copyNeonEPKhPhjjjjE8r_tbl_11
E:\zFAS-Jenkins\workspace\zFAS_AIT_Master_AAT\SW\0300_ApplicationLayer\branches\CL3_REL_320_3XX\0350_SWC-SET\CtApMapFusion\02_libs\CtApMapFusion.vxe:82d6eb8c 00000004 V _ZGVZN9mapfusion12CopyOne2ManyILj1ELj4ELb1ENS_11NoTransformEE8copyNeonEPKhPhjjjjE8r_tbl_00
E:\zFAS-Jenkins\workspace\zFAS_AIT_Master_AAT\SW\0300_ApplicationLayer\branches\CL3_REL_320_3XX\0350_SWC-SET\CtApMapFusion\02_libs\CtApMapFusion.vxe:82d6eb88 00000004 V _ZGVZN9mapfusion12CopyOne2ManyILj1ELj4ELb1ENS_11NoTransformEE8copyNeonEPKhPhjjjjE8r_tbl_01
E:\zFAS-Jenkins\workspace\zFAS_AIT_Master_AAT\SW\0300_ApplicationLayer\branches\CL3_REL_320_3XX\0350_SWC-SET\CtApMapFusion\02_libs\CtApMapFusion.vxe:82d6eb84 00000004 V _ZGVZN9mapfusion12CopyOne2ManyILj1ELj4ELb1ENS_11NoTransformEE8copyNeonEPKhPhjjjjE8r_tbl_10
E:\zFAS-Jenkins\workspace\zFAS_AIT_Master_AAT\SW\0300_ApplicationLayer\branches\CL3_REL_320_3XX\0350_SWC-SET\CtApMapFusion\02_libs\CtApMapFusion.vxe:82d6eb80 00000004 V _ZGVZN9mapfusion12CopyOne2ManyILj1ELj4ELb1ENS_11NoTransformEE8copyNeonEPKhPhjjjjE8r_tbl_11
E:\zFAS-Jenkins\workspace\zFAS_AIT_Master_AAT\SW\0300_ApplicationLayer\branches\CL3_REL_320_3XX\0350_SWC-SET\CtApMapFusion\02_libs\CtApMapFusion.vxe:82d6ebd4 00000004 V _ZGVZN9mapfusion12CopyOne2ManyILj8ELj2ELb0ENS_11NoTransformEE8copyNeonEPKhPhjjjjE7r_tbl_0
E:\zFAS-Jenkins\workspace\zFAS_AIT_Master_AAT\SW\0300_ApplicationLayer\branches\CL3_REL_320_3XX\0350_SWC-SET\CtApMapFusion\02_libs\CtApMapFusion.vxe:82d6ebd0 00000004 V _ZGVZN9mapfusion12CopyOne2ManyILj8ELj2ELb0ENS_11NoTransformEE8copyNeonEPKhPhjjjjE7r_tbl_1
E:\zFAS-Jenkins\workspace\zFAS_AIT_Master_AAT\SW\0300_ApplicationLayer\branches\CL3_REL_320_3XX\0350_SWC-SET\CtApMapFusion\02_libs\CtApMapFusion.vxe:82d6ebdc 00000004 V _ZGVZN9mapfusion12CopyOne2ManyILj8ELj2ELb1ENS_11NoTransformEE8copyNeonEPKhPhjjjjE7r_tbl_0
E:\zFAS-Jenkins\workspace\zFAS_AIT_Master_AAT\SW\0300_ApplicationLayer\branches\CL3_REL_320_3XX\0350_SWC-SET\CtApMapFusion\02_libs\CtApMapFusion.vxe:82d6ebd8 00000004 V _ZGVZN9mapfusion12CopyOne2ManyILj8ELj2ELb1ENS_11NoTransformEE8copyNeonEPKhPhjjjjE7r_tbl_1
E:\zFAS-Jenkins\workspace\zFAS_AIT_Master_AAT\SW\0300_ApplicationLayer\branches\CL3_REL_320_3XX\0350_SWC-SET\CtApMapFusion\02_libs\CtApMapFusion.vxe:82d6ebe4 00000004 V _ZGVZN9mapfusion12CopyOne2ManyILj8ELj5ELb0ENS_11NoTransformEE8copyNeonEPKhPhjjjjE7r_tbl_0
E:\zFAS-Jenkins\workspace\zFAS_AIT_Master_AAT\SW\0300_ApplicationLayer\branches\CL3_REL_320_3XX\0350_SWC-SET\CtApMapFusion\02_libs\CtApMapFusion.vxe:82d6ebe0 00000004 V _ZGVZN9mapfusion12CopyOne2ManyILj8ELj5ELb0ENS_11NoTransformEE8copyNeonEPKhPhjjjjE7r_tbl_1
E:\zFAS-Jenkins\workspace\zFAS_AIT_Master_AAT\SW\0300_ApplicationLayer\branches\CL3_REL_320_3XX\0350_SWC-SET\CtApMapFusion\02_libs\CtApMapFusion.vxe:82d6ebec 00000004 V _ZGVZN9mapfusion12CopyOne2ManyILj8ELj5ELb1ENS_11NoTransformEE8copyNeonEPKhPhjjjjE7r_tbl_0
E:\zFAS-Jenkins\workspace\zFAS_AIT_Master_AAT\SW\0300_ApplicationLayer\branches\CL3_REL_320_3XX\0350_SWC-SET\CtApMapFusion\02_libs\CtApMapFusion.vxe:82d6ebe8 00000004 V _ZGVZN9mapfusion12CopyOne2ManyILj8ELj5ELb1ENS_11NoTransformEE8copyNeonEPKhPhjjjjE7r_tbl_1
E:\zFAS-Jenkins\workspace\zFAS_AIT_Master_AAT\SW\0300_ApplicationLayer\branches\CL3_REL_320_3XX\0350_SWC-SET\CtApMapFusion\02_libs\CtApMapFusion.vxe:82d6edc0 00000004 V _ZGVZN9mapfusion12MfControllerINS_19MapFusionComponentsINS_24MapFusionComponentsTypesINS_12GlobalConfigILj4ELj6ELj2ELj2EEEN12errorhandler16InputHandlerZFASENS5_17OutputHandlerZFASEEEEEE15processCarspaceERKNS_15FusionParameterERKjE12l_sensor_bit
E:\zFAS-Jenkins\workspace\zFAS_AIT_Master_AAT\SW\0300_ApplicationLayer\branches\CL3_REL_320_3XX\0350_SWC-SET\CtApMapFusion\02_libs\CtApMapFusion.vxe:82d6edc4 00000004 V _ZGVZN9mapfusion12MfControllerINS_19MapFusionComponentsINS_24MapFusionComponentsTypesINS_12GlobalConfigILj4ELj6ELj2ELj2EEEN12errorhandler16InputHandlerZFASENS5_17OutputHandlerZFASEEEEEE20processInternalFenceINS_14IFencesAdapterIN9fencesapi10IFencesApiIN15fencesinterface17FencesLightStructENSF_7ContourENSF_6VertexELj250ELj500ELj5ELj31EjjjEENS_6OCacheELj2097152ENS_22CommonPrioritySelectorEEEEEvRT_RKjtttE3csp
E:\zFAS-Jenkins\workspace\zFAS_AIT_Master_AAT\SW\0300_ApplicationLayer\branches\CL3_REL_320_3XX\0350_SWC-SET\CtApMapFusion\02_libs\CtApMapFusion.vxe:82d6edcc 00000004 V _ZGVZN9mapfusion12MfControllerINS_19MapFusionComponentsINS_24MapFusionComponentsTypesINS_12GlobalConfigILj4ELj6ELj2ELj2EEEN12errorhandler16InputHandlerZFASENS5_17OutputHandlerZFASEEEEEE20processInternalFenceINS_14IFencesAdapterIN9fencesapi10IFencesApiIN15fencesinterface17FencesLightStructENSF_7ContourENSF_6VertexELj250ELj500ELj5ELj31EjjjEENS_6OCacheELj2097152ENS_22CommonPrioritySelectorEEEEEvRT_RKjtttE3fsp
E:\zFAS-Jenkins\workspace\zFAS_AIT_Master_AAT\SW\0300_ApplicationLayer\branches\CL3_REL_320_3XX\0350_SWC-SET\CtApMapFusion\02_libs\CtApMapFusion.vxe:82d6edc8 00000004 V _ZGVZN9mapfusion12MfControllerINS_19MapFusionComponentsINS_24MapFusionComponentsTypesINS_12GlobalConfigILj4ELj6ELj2ELj2EEEN12errorhandler16InputHandlerZFASENS5_17OutputHandlerZFASEEEEEE20processInternalFenceINS_14IFencesAdapterIN9fencesapi10IFencesApiIN15fencesinterface17FencesLightStructENSF_7ContourENSF_6VertexELj250ELj500ELj5ELj31EjjjEENS_6OCacheELj2097152ENS_22CommonPrioritySelectorEEEEEvRT_RKjtttE3osp
E:\zFAS-Jenkins\workspace\zFAS_AIT_Master_AAT\SW\0300_ApplicationLayer\branches\CL3_REL_320_3XX\0350_SWC-SET\CtApMapFusion\02_libs\CtApMapFusion.vxe:82d6edd0 00000004 V _ZGVZN9mapfusion12MfControllerINS_19MapFusionComponentsINS_24MapFusionComponentsTypesINS_12GlobalConfigILj4ELj6ELj2ELj2EEEN12errorhandler16InputHandlerZFASENS5_17OutputHandlerZFASEEEEEE20processInternalFenceINS_14IFencesAdapterIN9fencesapi10IFencesApiIN15fencesinterface17FencesLightStructENSF_7ContourENSF_6VertexELj250ELj500ELj5ELj31EjjjEENS_6OCacheELj2097154ENS_22CommonPrioritySelectorEEEEEvRT_RKjtttE3csp
E:\zFAS-Jenkins\workspace\zFAS_AIT_Master_AAT\SW\0300_ApplicationLayer\branches\CL3_REL_320_3XX\0350_SWC-SET\CtApMapFusion\02_libs\CtApMapFusion.vxe:82d6edd8 00000004 V _ZGVZN9mapfusion12MfControllerINS_19MapFusionComponentsINS_24MapFusionComponentsTypesINS_12GlobalConfigILj4ELj6ELj2ELj2EEEN12errorhandler16InputHandlerZFASENS5_17OutputHandlerZFASEEEEEE20processInternalFenceINS_14IFencesAdapterIN9fencesapi10IFencesApiIN15fencesinterface17FencesLightStructENSF_7ContourENSF_6VertexELj250ELj500ELj5ELj31EjjjEENS_6OCacheELj2097154ENS_22CommonPrioritySelectorEEEEEvRT_RKjtttE3fsp
E:\zFAS-Jenkins\workspace\zFAS_AIT_Master_AAT\SW\0300_ApplicationLayer\branches\CL3_REL_320_3XX\0350_SWC-SET\CtApMapFusion\02_libs\CtApMapFusion.vxe:82d6edd4 00000004 V _ZGVZN9mapfusion12MfControllerINS_19MapFusionComponentsINS_24MapFusionComponentsTypesINS_12GlobalConfigILj4ELj6ELj2ELj2EEEN12errorhandler16InputHandlerZFASENS5_17OutputHandlerZFASEEEEEE20processInternalFenceINS_14IFencesAdapterIN9fencesapi10IFencesApiIN15fencesinterface17FencesLightStructENSF_7ContourENSF_6VertexELj250ELj500ELj5ELj31EjjjEENS_6OCacheELj2097154ENS_22CommonPrioritySelectorEEEEEvRT_RKjtttE3osp
E:\zFAS-Jenkins\workspace\zFAS_AIT_Master_AAT\SW\0300_ApplicationLayer\branches\CL3_REL_320_3XX\0350_SWC-SET\CtApMapFusion\02_libs\CtApMapFusion.vxe:82d6ede0 00000004 V _ZGVZN9mapfusion13MemController11getInstanceEvE12mem_instance
E:\zFAS-Jenkins\workspace\zFAS_AIT_Master_AAT\SW\0300_ApplicationLayer\branches\CL3_REL_320_3XX\0350_SWC-SET\CtApMapFusion\02_libs\CtApMapFusion.vxe:80fdd5d0 00000004 V _ZGVZN9mapfusion16DiagServerHelper11getInstanceEvE12dsh_instance
E:\zFAS-Jenkins\workspace\zFAS_AIT_Master_AAT\SW\0300_ApplicationLayer\branches\CL3_REL_320_3XX\0350_SWC-SET\CtApMapFusion\02_libs\CtApMapFusion.vxe:80fdd5cc 00000004 V _ZGVZN9mapfusion18QualityClassMapper11getInstanceEvE12qcm_instance
E:\zFAS-Jenkins\workspace\zFAS_AIT_Master_AAT\SW\0300_ApplicationLayer\branches\CL3_REL_320_3XX\0350_SWC-SET\CtApMapFusion\02_libs\CtApMapFusion.vxe:82d6eddc 00000004 V _ZGVZN9mapfusion27ObstacleUpdateProcessorNEON31processObstacleAssociationCheckERA8_hRA15_KPhE19obstacle_class_mask
E:\zFAS-Jenkins\workspace\zFAS_AIT_Master_AAT\SW\0300_ApplicationLayer\branches\CL3_REL_320_3XX\0350_SWC-SET\CtApMapFusion\02_libs\CtApMapFusion.vxe:82d6ec04 00000004 V _ZGVZN9mapfusion5BlockILNS_11UpdateLogicE0ELj0ENS_12GlobalConfigILj4ELj6ELj2ELj2EEENS_9BaseBlockEE20stageOneClassifyNEONEtththjhE16cell_mask_o_d_do
E:\zFAS-Jenkins\workspace\zFAS_AIT_Master_AAT\SW\0300_ApplicationLayer\branches\CL3_REL_320_3XX\0350_SWC-SET\CtApMapFusion\02_libs\CtApMapFusion.vxe:82d6ec08 00000004 V _ZGVZN9mapfusion5BlockILNS_11UpdateLogicE0ELj0ENS_12GlobalConfigILj4ELj6ELj2ELj2EEENS_9BaseBlockEE20stageOneClassifyNEONEtththjhE16vector_increment
E:\zFAS-Jenkins\workspace\zFAS_AIT_Master_AAT\SW\0300_ApplicationLayer\branches\CL3_REL_320_3XX\0350_SWC-SET\CtApMapFusion\02_libs\CtApMapFusion.vxe:82d6ec0c 00000004 V _ZGVZN9mapfusion5BlockILNS_11UpdateLogicE0ELj1ENS_12GlobalConfigILj4ELj6ELj2ELj2EEENS_9BaseBlockEE20stageOneClassifyNEONEtththjhE16cell_mask_o_d_do
E:\zFAS-Jenkins\workspace\zFAS_AIT_Master_AAT\SW\0300_ApplicationLayer\branches\CL3_REL_320_3XX\0350_SWC-SET\CtApMapFusion\02_libs\CtApMapFusion.vxe:82d6ec10 00000004 V _ZGVZN9mapfusion5BlockILNS_11UpdateLogicE0ELj1ENS_12GlobalConfigILj4ELj6ELj2ELj2EEENS_9BaseBlockEE20stageOneClassifyNEONEtththjhE16vector_increment
E:\zFAS-Jenkins\workspace\zFAS_AIT_Master_AAT\SW\0300_ApplicationLayer\branches\CL3_REL_320_3XX\0350_SWC-SET\CtApMapFusion\02_libs\CtApMapFusion.vxe:82d6ec14 00000004 V _ZGVZN9mapfusion5BlockILNS_11UpdateLogicE0ELj2ENS_12GlobalConfigILj4ELj6ELj2ELj2EEENS_9BaseBlockEE20stageOneClassifyNEONEtththjhE16cell_mask_o_d_do
E:\zFAS-Jenkins\workspace\zFAS_AIT_Master_AAT\SW\0300_ApplicationLayer\branches\CL3_REL_320_3XX\0350_SWC-SET\CtApMapFusion\02_libs\CtApMapFusion.vxe:82d6ec18 00000004 V _ZGVZN9mapfusion5BlockILNS_11UpdateLogicE0ELj2ENS_12GlobalConfigILj4ELj6ELj2ELj2EEENS_9BaseBlockEE20stageOneClassifyNEONEtththjhE16vector_increment
E:\zFAS-Jenkins\workspace\zFAS_AIT_Master_AAT\SW\0300_ApplicationLayer\branches\CL3_REL_320_3XX\0350_SWC-SET\CtApMapFusion\02_libs\CtApMapFusion.vxe:82d6ec1c 00000004 V _ZGVZN9mapfusion5BlockILNS_11UpdateLogicE0ELj3ENS_12GlobalConfigILj4ELj6ELj2ELj2EEENS_9BaseBlockEE20stageOneClassifyNEONEtththjhE16cell_mask_o_d_do
E:\zFAS-Jenkins\workspace\zFAS_AIT_Master_AAT\SW\0300_ApplicationLayer\branches\CL3_REL_320_3XX\0350_SWC-SET\CtApMapFusion\02_libs\CtApMapFusion.vxe:82d6ec20 00000004 V _ZGVZN9mapfusion5BlockILNS_11UpdateLogicE0ELj3ENS_12GlobalConfigILj4ELj6ELj2ELj2EEENS_9BaseBlockEE20stageOneClassifyNEONEtththjhE16vector_increment
E:\zFAS-Jenkins\workspace\zFAS_AIT_Master_AAT\SW\0300_ApplicationLayer\branches\CL3_REL_320_3XX\0350_SWC-SET\CtApMapFusion\02_libs\CtApMapFusion.vxe:82d6ed68 00000004 V _ZGVZN9mapfusion8BlockMapINS_12GlobalConfigILj4ELj6ELj2ELj2EEENS_23BlockMapComponentsTypesEE25setRasterOffsetFromVertexINS_14IFencesAdapterIN9fencesapi10IFencesApiI19_Dt_RECORD_MVFences20_Dt_RECORD_MVContour19_Dt_RECORD_MVVertexLj100ELj100ELj3ELj13ENS7_28MvFencesApiAdditionalMembersEjjEENS_6FCacheELj3072ENS_22CommonPrioritySelectorEEEEEvRKNT_17VertexAdapterTypeEfRNS_19CacheObstacleParamsEE19unc_angle_scale_fac
E:\zFAS-Jenkins\workspace\zFAS_AIT_Master_AAT\SW\0300_ApplicationLayer\branches\CL3_REL_320_3XX\0350_SWC-SET\CtApMapFusion\02_libs\CtApMapFusion.vxe:82d6ed78 00000004 V _ZGVZN9mapfusion8BlockMapINS_12GlobalConfigILj4ELj6ELj2ELj2EEENS_23BlockMapComponentsTypesEE25setRasterOffsetFromVertexINS_14IFencesAdapterIN9fencesapi10IFencesApiI19_Dt_RECORD_MVFences20_Dt_RECORD_MVContour19_Dt_RECORD_MVVertexLj100ELj100ELj3ELj13ENS7_28MvFencesApiAdditionalMembersEjjEENS_6OCacheELj2097290ENS_22CommonPrioritySelectorEEEEEvRKNT_17VertexAdapterTypeEfRNS_19CacheObstacleParamsEE19unc_angle_scale_fac
E:\zFAS-Jenkins\workspace\zFAS_AIT_Master_AAT\SW\0300_ApplicationLayer\branches\CL3_REL_320_3XX\0350_SWC-SET\CtApMapFusion\02_libs\CtApMapFusion.vxe:82d6ed84 00000004 V _ZGVZN9mapfusion8BlockMapINS_12GlobalConfigILj4ELj6ELj2ELj2EEENS_23BlockMapComponentsTypesEE25setRasterOffsetFromVertexINS_14IFencesAdapterIN9fencesapi10IFencesApiI27_Dt_RECORD_LSObstacleFences28_Dt_RECORD_LSObstacleContour27_Dt_RECORD_LSObstacleVertexLj64ELj350ELj3ELj12EjjjEENS_6OCacheELj2322459ENS_18LSPrioritySelectorEEEEEvRKNT_17VertexAdapterTypeEfRNS_19CacheObstacleParamsEE19unc_angle_scale_fac
E:\zFAS-Jenkins\workspace\zFAS_AIT_Master_AAT\SW\0300_ApplicationLayer\branches\CL3_REL_320_3XX\0350_SWC-SET\CtApMapFusion\02_libs\CtApMapFusion.vxe:82d6ed70 00000004 V _ZGVZN9mapfusion8BlockMapINS_12GlobalConfigILj4ELj6ELj2ELj2EEENS_23BlockMapComponentsTypesEE25setRasterOffsetFromVertexINS_14IFencesAdapterIN9fencesapi10IFencesApiI27_Dt_RECORD_USObstacleFences28_Dt_RECORD_USObstacleContour27_Dt_RECORD_USObstacleVertexLj24ELj48ELj3ELj12ENS7_36UsObstacleFencesApiAdditionalMembersEjtEENS_6OCacheELj200799355ENS_18USPrioritySelectorEEEEEvRKNT_17VertexAdapterTypeEfRNS_19CacheObstacleParamsEE19unc_angle_scale_fac
E:\zFAS-Jenkins\workspace\zFAS_AIT_Master_AAT\SW\0300_ApplicationLayer\branches\CL3_REL_320_3XX\0350_SWC-SET\CtApMapFusion\02_libs\CtApMapFusion.vxe:82d6ed80 00000004 V _ZGVZN9mapfusion8BlockMapINS_12GlobalConfigILj4ELj6ELj2ELj2EEENS_23BlockMapComponentsTypesEE25setRasterOffsetFromVertexINS_14IFencesAdapterIN9fencesapi10IFencesApiI28_Dt_RECORD_LRRObstacleFences29_Dt_RECORD_LRRObstacleContour28_Dt_RECORD_LRRObstacleVertexLj10ELj20ELj3ELj12EjjjEENS_6OCacheELj2097290ENS_22CommonPrioritySelectorEEEEEvRKNT_17VertexAdapterTypeEfRNS_19CacheObstacleParamsEE19unc_angle_scale_fac
E:\zFAS-Jenkins\workspace\zFAS_AIT_Master_AAT\SW\0300_ApplicationLayer\branches\CL3_REL_320_3XX\0350_SWC-SET\CtApMapFusion\02_libs\CtApMapFusion.vxe:82d6ed6c 00000004 V _ZGVZN9mapfusion8BlockMapINS_12GlobalConfigILj4ELj6ELj2ELj2EEENS_23BlockMapComponentsTypesEE25setRasterOffsetFromVertexINS_14IFencesAdapterIN9fencesapi10IFencesApiI28_Dt_RECORD_LSFreespaceFences29_Dt_RECORD_LSFreespaceContour28_Dt_RECORD_LSFreespaceVertexLj64ELj350ELj1ELj1EjNS7_34ZfasLsFreespaceContourApiAddMemberEjEENS_6FCacheELj2322459ENS_18LSPrioritySelectorEEEEEvRKNT_17VertexAdapterTypeEfRNS_19CacheObstacleParamsEE19unc_angle_scale_fac
E:\zFAS-Jenkins\workspace\zFAS_AIT_Master_AAT\SW\0300_ApplicationLayer\branches\CL3_REL_320_3XX\0350_SWC-SET\CtApMapFusion\02_libs\CtApMapFusion.vxe:82d6ed7c 00000004 V _ZGVZN9mapfusion8BlockMapINS_12GlobalConfigILj4ELj6ELj2ELj2EEENS_23BlockMapComponentsTypesEE25setRasterOffsetFromVertexINS_14IFencesAdapterIN9fencesapi10IFencesApiI28_Dt_RECORD_MRRObstacleFences29_Dt_RECORD_MRRObstacleContour28_Dt_RECORD_MRRObstacleVertexLj10ELj20ELj3ELj12EjjjEENS_6OCacheELj2097290ENS_22CommonPrioritySelectorEEEEEvRKNT_17VertexAdapterTypeEfRNS_19CacheObstacleParamsEE19unc_angle_scale_fac
E:\zFAS-Jenkins\workspace\zFAS_AIT_Master_AAT\SW\0300_ApplicationLayer\branches\CL3_REL_320_3XX\0350_SWC-SET\CtApMapFusion\02_libs\CtApMapFusion.vxe:82d6ed60 00000004 V _ZGVZN9mapfusion8BlockMapINS_12GlobalConfigILj4ELj6ELj2ELj2EEENS_23BlockMapComponentsTypesEE25setRasterOffsetFromVertexINS_14IFencesAdapterIN9fencesapi10IFencesApiI28_Dt_RECORD_USFreespaceFences29_Dt_RECORD_USFreespaceContour28_Dt_RECORD_USFreespaceVertexLj48ELj192ELj1ELj1EjjjEENS_6FCacheELj200799355ENS_18USPrioritySelectorEEEEEvRKNT_17VertexAdapterTypeEfRNS_19CacheObstacleParamsEE19unc_angle_scale_fac
E:\zFAS-Jenkins\workspace\zFAS_AIT_Master_AAT\SW\0300_ApplicationLayer\branches\CL3_REL_320_3XX\0350_SWC-SET\CtApMapFusion\02_libs\CtApMapFusion.vxe:82d6ed74 00000004 V _ZGVZN9mapfusion8BlockMapINS_12GlobalConfigILj4ELj6ELj2ELj2EEENS_23BlockMapComponentsTypesEE25setRasterOffsetFromVertexINS_14IFencesAdapterIN9fencesapi10IFencesApiI29_Dt_RECORD_TVBVObstacleFences30_Dt_RECORD_TVBVObstacleContour29_Dt_RECORD_TVBVObstacleVertexLj64ELj200ELj3ELj12EjjjEENS_6OCacheELj2191391ENS_20TVIPPrioritySelectorEEEEEvRKNT_17VertexAdapterTypeEfRNS_19CacheObstacleParamsEE19unc_angle_scale_fac
E:\zFAS-Jenkins\workspace\zFAS_AIT_Master_AAT\SW\0300_ApplicationLayer\branches\CL3_REL_320_3XX\0350_SWC-SET\CtApMapFusion\02_libs\CtApMapFusion.vxe:82d6ed64 00000004 V _ZGVZN9mapfusion8BlockMapINS_12GlobalConfigILj4ELj6ELj2ELj2EEENS_23BlockMapComponentsTypesEE25setRasterOffsetFromVertexINS_14IFencesAdapterIN9fencesapi10IFencesApiI30_Dt_RECORD_TVBVFreespaceFences31_Dt_RECORD_TVBVFreespaceContour30_Dt_RECORD_TVBVFreespaceVertexLj128ELj440ELj1ELj1EjjjEENS_6FCacheELj2191391ENS_20TVIPPrioritySelectorEEEEEvRKNT_17VertexAdapterTypeEfRNS_19CacheObstacleParamsEE19unc_angle_scale_fac
E:\zFAS-Jenkins\workspace\zFAS_AIT_Master_AAT\SW\0300_ApplicationLayer\branches\CL3_REL_320_3XX\0350_SWC-SET\CtApMapFusion\02_libs\CtApMapFusion.vxe:82d6ed5c 00000004 V _ZGVZN9mapfusion8BlockMapINS_12GlobalConfigILj4ELj6ELj2ELj2EEENS_23BlockMapComponentsTypesEE25setRasterOffsetFromVertexINS_14IFencesAdapterIN9fencesapi10IFencesApiIN15fencesinterface17FencesLightStructENS9_7ContourENS9_6VertexELj250ELj500ELj5ELj31EjjjEENS_6FCacheELj4608ENS_22CommonPrioritySelectorEEEEEvRKNT_17VertexAdapterTypeEfRNS_19CacheObstacleParamsEE19unc_angle_scale_fac
E:\zFAS-Jenkins\workspace\zFAS_AIT_Master_AAT\SW\0300_ApplicationLayer\branches\CL3_REL_320_3XX\0350_SWC-SET\CtApMapFusion\02_libs\CtApMapFusion.vxe:82d6ed88 00000004 V _ZGVZN9mapfusion8BlockMapINS_12GlobalConfigILj4ELj6ELj2ELj2EEENS_23BlockMapComponentsTypesEE25setRasterOffsetFromVertexINS_14IFencesAdapterIN9fencesapi10IFencesApiIN15fencesinterface17FencesLightStructENS9_7ContourENS9_6VertexELj250ELj500ELj5ELj31EjjjEENS_6FCacheELj8392705ENS_22CommonPrioritySelectorEEEEEvRKNT_17VertexAdapterTypeEfRNS_19CacheObstacleParamsEE19unc_angle_scale_fac
E:\zFAS-Jenkins\workspace\zFAS_AIT_Master_AAT\SW\0300_ApplicationLayer\branches\CL3_REL_320_3XX\0350_SWC-SET\CtApMapFusion\02_libs\CtApMapFusion.vxe:82d6ed8c 00000004 V _ZGVZN9mapfusion8BlockMapINS_12GlobalConfigILj4ELj6ELj2ELj2EEENS_23BlockMapComponentsTypesEE25setRasterOffsetFromVertexINS_14IFencesAdapterIN9fencesapi10IFencesApiIN15fencesinterface17FencesLightStructENS9_7ContourENS9_6VertexELj250ELj500ELj5ELj31EjjjEENS_6OCacheELj2097152ENS_22CommonPrioritySelectorEEEEEvRKNT_17VertexAdapterTypeEfRNS_19CacheObstacleParamsEE19unc_angle_scale_fac
E:\zFAS-Jenkins\workspace\zFAS_AIT_Master_AAT\SW\0300_ApplicationLayer\branches\CL3_REL_320_3XX\0350_SWC-SET\CtApMapFusion\02_libs\CtApMapFusion.vxe:82d6ed90 00000004 V _ZGVZN9mapfusion8BlockMapINS_12GlobalConfigILj4ELj6ELj2ELj2EEENS_23BlockMapComponentsTypesEE25setRasterOffsetFromVertexINS_14IFencesAdapterIN9fencesapi10IFencesApiIN15fencesinterface17FencesLightStructENS9_7ContourENS9_6VertexELj250ELj500ELj5ELj31EjjjEENS_6OCacheELj2097154ENS_22CommonPrioritySelectorEEEEEvRKNT_17VertexAdapterTypeEfRNS_19CacheObstacleParamsEE19unc_angle_scale_fac
E:\zFAS-Jenkins\workspace\zFAS_AIT_Master_AAT\SW\0300_ApplicationLayer\branches\CL3_REL_320_3XX\0350_SWC-SET\CtApMapFusion\02_libs\CtApMapFusion.vxe:82d6ec6c 00000004 V _ZGVZN9mapfusion9BaseBlockINS_12GlobalConfigILj4ELj6ELj2ELj2EEEE19evaluateOBBLineNEONINS_21SupportedUpdateHelperILj200799355EEEEENS_10ResultTypeERK12FloatPoint2DSA_ffhhhhhhhhRKNS3_19ScanlineBoundingBoxILj16EEERjE11r_min_value
E:\zFAS-Jenkins\workspace\zFAS_AIT_Master_AAT\SW\0300_ApplicationLayer\branches\CL3_REL_320_3XX\0350_SWC-SET\CtApMapFusion\02_libs\CtApMapFusion.vxe:82d6ec74 00000004 V _ZGVZN9mapfusion9BaseBlockINS_12GlobalConfigILj4ELj6ELj2ELj2EEEE19evaluateOBBLineNEONINS_21SupportedUpdateHelperILj200799355EEEEENS_10ResultTypeERK12FloatPoint2DSA_ffhhhhhhhhRKNS3_19ScanlineBoundingBoxILj16EEERjE16r_point_five_f32
E:\zFAS-Jenkins\workspace\zFAS_AIT_Master_AAT\SW\0300_ApplicationLayer\branches\CL3_REL_320_3XX\0350_SWC-SET\CtApMapFusion\02_libs\CtApMapFusion.vxe:82d6ec70 00000004 V _ZGVZN9mapfusion9BaseBlockINS_12GlobalConfigILj4ELj6ELj2ELj2EEEE19evaluateOBBLineNEONINS_21SupportedUpdateHelperILj200799355EEEEENS_10ResultTypeERK12FloatPoint2DSA_ffhhhhhhhhRKNS3_19ScanlineBoundingBoxILj16EEERjE8r_onef32
E:\zFAS-Jenkins\workspace\zFAS_AIT_Master_AAT\SW\0300_ApplicationLayer\branches\CL3_REL_320_3XX\0350_SWC-SET\CtApMapFusion\02_libs\CtApMapFusion.vxe:82d6ec68 00000004 V _ZGVZN9mapfusion9BaseBlockINS_12GlobalConfigILj4ELj6ELj2ELj2EEEE19evaluateOBBLineNEONINS_21SupportedUpdateHelperILj200799355EEEEENS_10ResultTypeERK12FloatPoint2DSA_ffhhhhhhhhRKNS3_19ScanlineBoundingBoxILj16EEERjE8r_to_add
E:\zFAS-Jenkins\workspace\zFAS_AIT_Master_AAT\SW\0300_ApplicationLayer\branches\CL3_REL_320_3XX\0350_SWC-SET\CtApMapFusion\02_libs\CtApMapFusion.vxe:82d6ec78 00000004 V _ZGVZN9mapfusion9BaseBlockINS_12GlobalConfigILj4ELj6ELj2ELj2EEEE19evaluateOBBLineNEONINS_21SupportedUpdateHelperILj200799355EEEEENS_10ResultTypeERK12FloatPoint2DSA_ffhhhhhhhhRKNS3_19ScanlineBoundingBoxILj16EEERjE9r_zerof32
E:\zFAS-Jenkins\workspace\zFAS_AIT_Master_AAT\SW\0300_ApplicationLayer\branches\CL3_REL_320_3XX\0350_SWC-SET\CtApMapFusion\02_libs\CtApMapFusion.vxe:82d6ecf8 00000004 V _ZGVZN9mapfusion9BaseBlockINS_12GlobalConfigILj4ELj6ELj2ELj2EEEE19evaluateOBBLineNEONINS_21SupportedUpdateHelperILj2097152EEEEENS_10ResultTypeERK12FloatPoint2DSA_ffhhhhhhhhRKNS3_19ScanlineBoundingBoxILj16EEERjE11r_min_value
E:\zFAS-Jenkins\workspace\zFAS_AIT_Master_AAT\SW\0300_ApplicationLayer\branches\CL3_REL_320_3XX\0350_SWC-SET\CtApMapFusion\02_libs\CtApMapFusion.vxe:82d6ed00 00000004 V _ZGVZN9mapfusion9BaseBlockINS_12GlobalConfigILj4ELj6ELj2ELj2EEEE19evaluateOBBLineNEONINS_21SupportedUpdateHelperILj2097152EEEEENS_10ResultTypeERK12FloatPoint2DSA_ffhhhhhhhhRKNS3_19ScanlineBoundingBoxILj16EEERjE16r_point_five_f32
E:\zFAS-Jenkins\workspace\zFAS_AIT_Master_AAT\SW\0300_ApplicationLayer\branches\CL3_REL_320_3XX\0350_SWC-SET\CtApMapFusion\02_libs\CtApMapFusion.vxe:82d6ecfc 00000004 V _ZGVZN9mapfusion9BaseBlockINS_12GlobalConfigILj4ELj6ELj2ELj2EEEE19evaluateOBBLineNEONINS_21SupportedUpdateHelperILj2097152EEEEENS_10ResultTypeERK12FloatPoint2DSA_ffhhhhhhhhRKNS3_19ScanlineBoundingBoxILj16EEERjE8r_onef32
E:\zFAS-Jenkins\workspace\zFAS_AIT_Master_AAT\SW\0300_ApplicationLayer\branches\CL3_REL_320_3XX\0350_SWC-SET\CtApMapFusion\02_libs\CtApMapFusion.vxe:82d6ecf4 00000004 V _ZGVZN9mapfusion9BaseBlockINS_12GlobalConfigILj4ELj6ELj2ELj2EEEE19evaluateOBBLineNEONINS_21SupportedUpdateHelperILj2097152EEEEENS_10ResultTypeERK12FloatPoint2DSA_ffhhhhhhhhRKNS3_19ScanlineBoundingBoxILj16EEERjE8r_to_add
E:\zFAS-Jenkins\workspace\zFAS_AIT_Master_AAT\SW\0300_ApplicationLayer\branches\CL3_REL_320_3XX\0350_SWC-SET\CtApMapFusion\02_libs\CtApMapFusion.vxe:82d6ed04 00000004 V _ZGVZN9mapfusion9BaseBlockINS_12GlobalConfigILj4ELj6ELj2ELj2EEEE19evaluateOBBLineNEONINS_21SupportedUpdateHelperILj2097152EEEEENS_10ResultTypeERK12FloatPoint2DSA_ffhhhhhhhhRKNS3_19ScanlineBoundingBoxILj16EEERjE9r_zerof32
E:\zFAS-Jenkins\workspace\zFAS_AIT_Master_AAT\SW\0300_ApplicationLayer\branches\CL3_REL_320_3XX\0350_SWC-SET\CtApMapFusion\02_libs\CtApMapFusion.vxe:82d6ed4c 00000004 V _ZGVZN9mapfusion9BaseBlockINS_12GlobalConfigILj4ELj6ELj2ELj2EEEE19evaluateOBBLineNEONINS_21SupportedUpdateHelperILj2097154EEEEENS_10ResultTypeERK12FloatPoint2DSA_ffhhhhhhhhRKNS3_19ScanlineBoundingBoxILj16EEERjE11r_min_value
E:\zFAS-Jenkins\workspace\zFAS_AIT_Master_AAT\SW\0300_ApplicationLayer\branches\CL3_REL_320_3XX\0350_SWC-SET\CtApMapFusion\02_libs\CtApMapFusion.vxe:82d6ed54 00000004 V _ZGVZN9mapfusion9BaseBlockINS_12GlobalConfigILj4ELj6ELj2ELj2EEEE19evaluateOBBLineNEONINS_21SupportedUpdateHelperILj2097154EEEEENS_10ResultTypeERK12FloatPoint2DSA_ffhhhhhhhhRKNS3_19ScanlineBoundingBoxILj16EEERjE16r_point_five_f32
E:\zFAS-Jenkins\workspace\zFAS_AIT_Master_AAT\SW\0300_ApplicationLayer\branches\CL3_REL_320_3XX\0350_SWC-SET\CtApMapFusion\02_libs\CtApMapFusion.vxe:82d6ed50 00000004 V _ZGVZN9mapfusion9BaseBlockINS_12GlobalConfigILj4ELj6ELj2ELj2EEEE19evaluateOBBLineNEONINS_21SupportedUpdateHelperILj2097154EEEEENS_10ResultTypeERK12FloatPoint2DSA_ffhhhhhhhhRKNS3_19ScanlineBoundingBoxILj16EEERjE8r_onef32
E:\zFAS-Jenkins\workspace\zFAS_AIT_Master_AAT\SW\0300_ApplicationLayer\branches\CL3_REL_320_3XX\0350_SWC-SET\CtApMapFusion\02_libs\CtApMapFusion.vxe:82d6ed48 00000004 V _ZGVZN9mapfusion9BaseBlockINS_12GlobalConfigILj4ELj6ELj2ELj2EEEE19evaluateOBBLineNEONINS_21SupportedUpdateHelperILj2097154EEEEENS_10ResultTypeERK12FloatPoint2DSA_ffhhhhhhhhRKNS3_19ScanlineBoundingBoxILj16EEERjE8r_to_add
E:\zFAS-Jenkins\workspace\zFAS_AIT_Master_AAT\SW\0300_ApplicationLayer\branches\CL3_REL_320_3XX\0350_SWC-SET\CtApMapFusion\02_libs\CtApMapFusion.vxe:82d6ed58 00000004 V _ZGVZN9mapfusion9BaseBlockINS_12GlobalConfigILj4ELj6ELj2ELj2EEEE19evaluateOBBLineNEONINS_21SupportedUpdateHelperILj2097154EEEEENS_10ResultTypeERK12FloatPoint2DSA_ffhhhhhhhhRKNS3_19ScanlineBoundingBoxILj16EEERjE9r_zerof32
E:\zFAS-Jenkins\workspace\zFAS_AIT_Master_AAT\SW\0300_ApplicationLayer\branches\CL3_REL_320_3XX\0350_SWC-SET\CtApMapFusion\02_libs\CtApMapFusion.vxe:82d6eca4 00000004 V _ZGVZN9mapfusion9BaseBlockINS_12GlobalConfigILj4ELj6ELj2ELj2EEEE19evaluateOBBLineNEONINS_21SupportedUpdateHelperILj2097290EEEEENS_10ResultTypeERK12FloatPoint2DSA_ffhhhhhhhhRKNS3_19ScanlineBoundingBoxILj16EEERjE11r_min_value
E:\zFAS-Jenkins\workspace\zFAS_AIT_Master_AAT\SW\0300_ApplicationLayer\branches\CL3_REL_320_3XX\0350_SWC-SET\CtApMapFusion\02_libs\CtApMapFusion.vxe:82d6ecac 00000004 V _ZGVZN9mapfusion9BaseBlockINS_12GlobalConfigILj4ELj6ELj2ELj2EEEE19evaluateOBBLineNEONINS_21SupportedUpdateHelperILj2097290EEEEENS_10ResultTypeERK12FloatPoint2DSA_ffhhhhhhhhRKNS3_19ScanlineBoundingBoxILj16EEERjE16r_point_five_f32
E:\zFAS-Jenkins\workspace\zFAS_AIT_Master_AAT\SW\0300_ApplicationLayer\branches\CL3_REL_320_3XX\0350_SWC-SET\CtApMapFusion\02_libs\CtApMapFusion.vxe:82d6eca8 00000004 V _ZGVZN9mapfusion9BaseBlockINS_12GlobalConfigILj4ELj6ELj2ELj2EEEE19evaluateOBBLineNEONINS_21SupportedUpdateHelperILj2097290EEEEENS_10ResultTypeERK12FloatPoint2DSA_ffhhhhhhhhRKNS3_19ScanlineBoundingBoxILj16EEERjE8r_onef32
E:\zFAS-Jenkins\workspace\zFAS_AIT_Master_AAT\SW\0300_ApplicationLayer\branches\CL3_REL_320_3XX\0350_SWC-SET\CtApMapFusion\02_libs\CtApMapFusion.vxe:82d6eca0 00000004 V _ZGVZN9mapfusion9BaseBlockINS_12GlobalConfigILj4ELj6ELj2ELj2EEEE19evaluateOBBLineNEONINS_21SupportedUpdateHelperILj2097290EEEEENS_10ResultTypeERK12FloatPoint2DSA_ffhhhhhhhhRKNS3_19ScanlineBoundingBoxILj16EEERjE8r_to_add
E:\zFAS-Jenkins\workspace\zFAS_AIT_Master_AAT\SW\0300_ApplicationLayer\branches\CL3_REL_320_3XX\0350_SWC-SET\CtApMapFusion\02_libs\CtApMapFusion.vxe:82d6ecb0 00000004 V _ZGVZN9mapfusion9BaseBlockINS_12GlobalConfigILj4ELj6ELj2ELj2EEEE19evaluateOBBLineNEONINS_21SupportedUpdateHelperILj2097290EEEEENS_10ResultTypeERK12FloatPoint2DSA_ffhhhhhhhhRKNS3_19ScanlineBoundingBoxILj16EEERjE9r_zerof32
E:\zFAS-Jenkins\workspace\zFAS_AIT_Master_AAT\SW\0300_ApplicationLayer\branches\CL3_REL_320_3XX\0350_SWC-SET\CtApMapFusion\02_libs\CtApMapFusion.vxe:82d6ed30 00000004 V _ZGVZN9mapfusion9BaseBlockINS_12GlobalConfigILj4ELj6ELj2ELj2EEEE19evaluateOBBLineNEONINS_21SupportedUpdateHelperILj2179470EEEEENS_10ResultTypeERK12FloatPoint2DSA_ffhhhhhhhhRKNS3_19ScanlineBoundingBoxILj16EEERjE11r_min_value
E:\zFAS-Jenkins\workspace\zFAS_AIT_Master_AAT\SW\0300_ApplicationLayer\branches\CL3_REL_320_3XX\0350_SWC-SET\CtApMapFusion\02_libs\CtApMapFusion.vxe:82d6ed38 00000004 V _ZGVZN9mapfusion9BaseBlockINS_12GlobalConfigILj4ELj6ELj2ELj2EEEE19evaluateOBBLineNEONINS_21SupportedUpdateHelperILj2179470EEEEENS_10ResultTypeERK12FloatPoint2DSA_ffhhhhhhhhRKNS3_19ScanlineBoundingBoxILj16EEERjE16r_point_five_f32
E:\zFAS-Jenkins\workspace\zFAS_AIT_Master_AAT\SW\0300_ApplicationLayer\branches\CL3_REL_320_3XX\0350_SWC-SET\CtApMapFusion\02_libs\CtApMapFusion.vxe:82d6ed34 00000004 V _ZGVZN9mapfusion9BaseBlockINS_12GlobalConfigILj4ELj6ELj2ELj2EEEE19evaluateOBBLineNEONINS_21SupportedUpdateHelperILj2179470EEEEENS_10ResultTypeERK12FloatPoint2DSA_ffhhhhhhhhRKNS3_19ScanlineBoundingBoxILj16EEERjE8r_onef32
E:\zFAS-Jenkins\workspace\zFAS_AIT_Master_AAT\SW\0300_ApplicationLayer\branches\CL3_REL_320_3XX\0350_SWC-SET\CtApMapFusion\02_libs\CtApMapFusion.vxe:82d6ed2c 00000004 V _ZGVZN9mapfusion9BaseBlockINS_12GlobalConfigILj4ELj6ELj2ELj2EEEE19evaluateOBBLineNEONINS_21SupportedUpdateHelperILj2179470EEEEENS_10ResultTypeERK12FloatPoint2DSA_ffhhhhhhhhRKNS3_19ScanlineBoundingBoxILj16EEERjE8r_to_add
E:\zFAS-Jenkins\workspace\zFAS_AIT_Master_AAT\SW\0300_ApplicationLayer\branches\CL3_REL_320_3XX\0350_SWC-SET\CtApMapFusion\02_libs\CtApMapFusion.vxe:82d6ed3c 00000004 V _ZGVZN9mapfusion9BaseBlockINS_12GlobalConfigILj4ELj6ELj2ELj2EEEE19evaluateOBBLineNEONINS_21SupportedUpdateHelperILj2179470EEEEENS_10ResultTypeERK12FloatPoint2DSA_ffhhhhhhhhRKNS3_19ScanlineBoundingBoxILj16EEERjE9r_zerof32
E:\zFAS-Jenkins\workspace\zFAS_AIT_Master_AAT\SW\0300_ApplicationLayer\branches\CL3_REL_320_3XX\0350_SWC-SET\CtApMapFusion\02_libs\CtApMapFusion.vxe:82d6ed14 00000004 V _ZGVZN9mapfusion9BaseBlockINS_12GlobalConfigILj4ELj6ELj2ELj2EEEE19evaluateOBBLineNEONINS_21SupportedUpdateHelperILj2179530EEEEENS_10ResultTypeERK12FloatPoint2DSA_ffhhhhhhhhRKNS3_19ScanlineBoundingBoxILj16EEERjE11r_min_value
E:\zFAS-Jenkins\workspace\zFAS_AIT_Master_AAT\SW\0300_ApplicationLayer\branches\CL3_REL_320_3XX\0350_SWC-SET\CtApMapFusion\02_libs\CtApMapFusion.vxe:82d6ed1c 00000004 V _ZGVZN9mapfusion9BaseBlockINS_12GlobalConfigILj4ELj6ELj2ELj2EEEE19evaluateOBBLineNEONINS_21SupportedUpdateHelperILj2179530EEEEENS_10ResultTypeERK12FloatPoint2DSA_ffhhhhhhhhRKNS3_19ScanlineBoundingBoxILj16EEERjE16r_point_five_f32
E:\zFAS-Jenkins\workspace\zFAS_AIT_Master_AAT\SW\0300_ApplicationLayer\branches\CL3_REL_320_3XX\0350_SWC-SET\CtApMapFusion\02_libs\CtApMapFusion.vxe:82d6ed18 00000004 V _ZGVZN9mapfusion9BaseBlockINS_12GlobalConfigILj4ELj6ELj2ELj2EEEE19evaluateOBBLineNEONINS_21SupportedUpdateHelperILj2179530EEEEENS_10ResultTypeERK12FloatPoint2DSA_ffhhhhhhhhRKNS3_19ScanlineBoundingBoxILj16EEERjE8r_onef32
E:\zFAS-Jenkins\workspace\zFAS_AIT_Master_AAT\SW\0300_ApplicationLayer\branches\CL3_REL_320_3XX\0350_SWC-SET\CtApMapFusion\02_libs\CtApMapFusion.vxe:82d6ed10 00000004 V _ZGVZN9mapfusion9BaseBlockINS_12GlobalConfigILj4ELj6ELj2ELj2EEEE19evaluateOBBLineNEONINS_21SupportedUpdateHelperILj2179530EEEEENS_10ResultTypeERK12FloatPoint2DSA_ffhhhhhhhhRKNS3_19ScanlineBoundingBoxILj16EEERjE8r_to_add
E:\zFAS-Jenkins\workspace\zFAS_AIT_Master_AAT\SW\0300_ApplicationLayer\branches\CL3_REL_320_3XX\0350_SWC-SET\CtApMapFusion\02_libs\CtApMapFusion.vxe:82d6ed20 00000004 V _ZGVZN9mapfusion9BaseBlockINS_12GlobalConfigILj4ELj6ELj2ELj2EEEE19evaluateOBBLineNEONINS_21SupportedUpdateHelperILj2179530EEEEENS_10ResultTypeERK12FloatPoint2DSA_ffhhhhhhhhRKNS3_19ScanlineBoundingBoxILj16EEERjE9r_zerof32
E:\zFAS-Jenkins\workspace\zFAS_AIT_Master_AAT\SW\0300_ApplicationLayer\branches\CL3_REL_320_3XX\0350_SWC-SET\CtApMapFusion\02_libs\CtApMapFusion.vxe:82d6ec88 00000004 V _ZGVZN9mapfusion9BaseBlockINS_12GlobalConfigILj4ELj6ELj2ELj2EEEE19evaluateOBBLineNEONINS_21SupportedUpdateHelperILj2191391EEEEENS_10ResultTypeERK12FloatPoint2DSA_ffhhhhhhhhRKNS3_19ScanlineBoundingBoxILj16EEERjE11r_min_value
E:\zFAS-Jenkins\workspace\zFAS_AIT_Master_AAT\SW\0300_ApplicationLayer\branches\CL3_REL_320_3XX\0350_SWC-SET\CtApMapFusion\02_libs\CtApMapFusion.vxe:82d6ec90 00000004 V _ZGVZN9mapfusion9BaseBlockINS_12GlobalConfigILj4ELj6ELj2ELj2EEEE19evaluateOBBLineNEONINS_21SupportedUpdateHelperILj2191391EEEEENS_10ResultTypeERK12FloatPoint2DSA_ffhhhhhhhhRKNS3_19ScanlineBoundingBoxILj16EEERjE16r_point_five_f32
E:\zFAS-Jenkins\workspace\zFAS_AIT_Master_AAT\SW\0300_ApplicationLayer\branches\CL3_REL_320_3XX\0350_SWC-SET\CtApMapFusion\02_libs\CtApMapFusion.vxe:82d6ec8c 00000004 V _ZGVZN9mapfusion9BaseBlockINS_12GlobalConfigILj4ELj6ELj2ELj2EEEE19evaluateOBBLineNEONINS_21SupportedUpdateHelperILj2191391EEEEENS_10ResultTypeERK12FloatPoint2DSA_ffhhhhhhhhRKNS3_19ScanlineBoundingBoxILj16EEERjE8r_onef32
E:\zFAS-Jenkins\workspace\zFAS_AIT_Master_AAT\SW\0300_ApplicationLayer\branches\CL3_REL_320_3XX\0350_SWC-SET\CtApMapFusion\02_libs\CtApMapFusion.vxe:82d6ec84 00000004 V _ZGVZN9mapfusion9BaseBlockINS_12GlobalConfigILj4ELj6ELj2ELj2EEEE19evaluateOBBLineNEONINS_21SupportedUpdateHelperILj2191391EEEEENS_10ResultTypeERK12FloatPoint2DSA_ffhhhhhhhhRKNS3_19ScanlineBoundingBoxILj16EEERjE8r_to_add
E:\zFAS-Jenkins\workspace\zFAS_AIT_Master_AAT\SW\0300_ApplicationLayer\branches\CL3_REL_320_3XX\0350_SWC-SET\CtApMapFusion\02_libs\CtApMapFusion.vxe:82d6ec94 00000004 V _ZGVZN9mapfusion9BaseBlockINS_12GlobalConfigILj4ELj6ELj2ELj2EEEE19evaluateOBBLineNEONINS_21SupportedUpdateHelperILj2191391EEEEENS_10ResultTypeERK12FloatPoint2DSA_ffhhhhhhhhRKNS3_19ScanlineBoundingBoxILj16EEERjE9r_zerof32
E:\zFAS-Jenkins\workspace\zFAS_AIT_Master_AAT\SW\0300_ApplicationLayer\branches\CL3_REL_320_3XX\0350_SWC-SET\CtApMapFusion\02_libs\CtApMapFusion.vxe:82d6ecc0 00000004 V _ZGVZN9mapfusion9BaseBlockINS_12GlobalConfigILj4ELj6ELj2ELj2EEEE19evaluateOBBLineNEONINS_21SupportedUpdateHelperILj2322459EEEEENS_10ResultTypeERK12FloatPoint2DSA_ffhhhhhhhhRKNS3_19ScanlineBoundingBoxILj16EEERjE11r_min_value
E:\zFAS-Jenkins\workspace\zFAS_AIT_Master_AAT\SW\0300_ApplicationLayer\branches\CL3_REL_320_3XX\0350_SWC-SET\CtApMapFusion\02_libs\CtApMapFusion.vxe:82d6ecc8 00000004 V _ZGVZN9mapfusion9BaseBlockINS_12GlobalConfigILj4ELj6ELj2ELj2EEEE19evaluateOBBLineNEONINS_21SupportedUpdateHelperILj2322459EEEEENS_10ResultTypeERK12FloatPoint2DSA_ffhhhhhhhhRKNS3_19ScanlineBoundingBoxILj16EEERjE16r_point_five_f32
E:\zFAS-Jenkins\workspace\zFAS_AIT_Master_AAT\SW\0300_ApplicationLayer\branches\CL3_REL_320_3XX\0350_SWC-SET\CtApMapFusion\02_libs\CtApMapFusion.vxe:82d6ecc4 00000004 V _ZGVZN9mapfusion9BaseBlockINS_12GlobalConfigILj4ELj6ELj2ELj2EEEE19evaluateOBBLineNEONINS_21SupportedUpdateHelperILj2322459EEEEENS_10ResultTypeERK12FloatPoint2DSA_ffhhhhhhhhRKNS3_19ScanlineBoundingBoxILj16EEERjE8r_onef32
E:\zFAS-Jenkins\workspace\zFAS_AIT_Master_AAT\SW\0300_ApplicationLayer\branches\CL3_REL_320_3XX\0350_SWC-SET\CtApMapFusion\02_libs\CtApMapFusion.vxe:82d6ecbc 00000004 V _ZGVZN9mapfusion9BaseBlockINS_12GlobalConfigILj4ELj6ELj2ELj2EEEE19evaluateOBBLineNEONINS_21SupportedUpdateHelperILj2322459EEEEENS_10ResultTypeERK12FloatPoint2DSA_ffhhhhhhhhRKNS3_19ScanlineBoundingBoxILj16EEERjE8r_to_add
E:\zFAS-Jenkins\workspace\zFAS_AIT_Master_AAT\SW\0300_ApplicationLayer\branches\CL3_REL_320_3XX\0350_SWC-SET\CtApMapFusion\02_libs\CtApMapFusion.vxe:82d6eccc 00000004 V _ZGVZN9mapfusion9BaseBlockINS_12GlobalConfigILj4ELj6ELj2ELj2EEEE19evaluateOBBLineNEONINS_21SupportedUpdateHelperILj2322459EEEEENS_10ResultTypeERK12FloatPoint2DSA_ffhhhhhhhhRKNS3_19ScanlineBoundingBoxILj16EEERjE9r_zerof32
E:\zFAS-Jenkins\workspace\zFAS_AIT_Master_AAT\SW\0300_ApplicationLayer\branches\CL3_REL_320_3XX\0350_SWC-SET\CtApMapFusion\02_libs\CtApMapFusion.vxe:82d6ec4c 00000004 V _ZGVZN9mapfusion9BaseBlockINS_12GlobalConfigILj4ELj6ELj2ELj2EEEE19evaluateOBBLineNEONINS_21SupportedUpdateHelperILj3072EEEEENS_10ResultTypeERK12FloatPoint2DSA_ffhhhhhhhhRKNS3_19ScanlineBoundingBoxILj16EEERjE11r_min_value
E:\zFAS-Jenkins\workspace\zFAS_AIT_Master_AAT\SW\0300_ApplicationLayer\branches\CL3_REL_320_3XX\0350_SWC-SET\CtApMapFusion\02_libs\CtApMapFusion.vxe:82d6ec54 00000004 V _ZGVZN9mapfusion9BaseBlockINS_12GlobalConfigILj4ELj6ELj2ELj2EEEE19evaluateOBBLineNEONINS_21SupportedUpdateHelperILj3072EEEEENS_10ResultTypeERK12FloatPoint2DSA_ffhhhhhhhhRKNS3_19ScanlineBoundingBoxILj16EEERjE16r_point_five_f32
E:\zFAS-Jenkins\workspace\zFAS_AIT_Master_AAT\SW\0300_ApplicationLayer\branches\CL3_REL_320_3XX\0350_SWC-SET\CtApMapFusion\02_libs\CtApMapFusion.vxe:82d6ec50 00000004 V _ZGVZN9mapfusion9BaseBlockINS_12GlobalConfigILj4ELj6ELj2ELj2EEEE19evaluateOBBLineNEONINS_21SupportedUpdateHelperILj3072EEEEENS_10ResultTypeERK12FloatPoint2DSA_ffhhhhhhhhRKNS3_19ScanlineBoundingBoxILj16EEERjE8r_onef32
E:\zFAS-Jenkins\workspace\zFAS_AIT_Master_AAT\SW\0300_ApplicationLayer\branches\CL3_REL_320_3XX\0350_SWC-SET\CtApMapFusion\02_libs\CtApMapFusion.vxe:82d6ec48 00000004 V _ZGVZN9mapfusion9BaseBlockINS_12GlobalConfigILj4ELj6ELj2ELj2EEEE19evaluateOBBLineNEONINS_21SupportedUpdateHelperILj3072EEEEENS_10ResultTypeERK12FloatPoint2DSA_ffhhhhhhhhRKNS3_19ScanlineBoundingBoxILj16EEERjE8r_to_add
E:\zFAS-Jenkins\workspace\zFAS_AIT_Master_AAT\SW\0300_ApplicationLayer\branches\CL3_REL_320_3XX\0350_SWC-SET\CtApMapFusion\02_libs\CtApMapFusion.vxe:82d6ec58 00000004 V _ZGVZN9mapfusion9BaseBlockINS_12GlobalConfigILj4ELj6ELj2ELj2EEEE19evaluateOBBLineNEONINS_21SupportedUpdateHelperILj3072EEEEENS_10ResultTypeERK12FloatPoint2DSA_ffhhhhhhhhRKNS3_19ScanlineBoundingBoxILj16EEERjE9r_zerof32
E:\zFAS-Jenkins\workspace\zFAS_AIT_Master_AAT\SW\0300_ApplicationLayer\branches\CL3_REL_320_3XX\0350_SWC-SET\CtApMapFusion\02_libs\CtApMapFusion.vxe:82d6ec30 00000004 V _ZGVZN9mapfusion9BaseBlockINS_12GlobalConfigILj4ELj6ELj2ELj2EEEE19evaluateOBBLineNEONINS_21SupportedUpdateHelperILj4608EEEEENS_10ResultTypeERK12FloatPoint2DSA_ffhhhhhhhhRKNS3_19ScanlineBoundingBoxILj16EEERjE11r_min_value
E:\zFAS-Jenkins\workspace\zFAS_AIT_Master_AAT\SW\0300_ApplicationLayer\branches\CL3_REL_320_3XX\0350_SWC-SET\CtApMapFusion\02_libs\CtApMapFusion.vxe:82d6ec38 00000004 V _ZGVZN9mapfusion9BaseBlockINS_12GlobalConfigILj4ELj6ELj2ELj2EEEE19evaluateOBBLineNEONINS_21SupportedUpdateHelperILj4608EEEEENS_10ResultTypeERK12FloatPoint2DSA_ffhhhhhhhhRKNS3_19ScanlineBoundingBoxILj16EEERjE16r_point_five_f32
E:\zFAS-Jenkins\workspace\zFAS_AIT_Master_AAT\SW\0300_ApplicationLayer\branches\CL3_REL_320_3XX\0350_SWC-SET\CtApMapFusion\02_libs\CtApMapFusion.vxe:82d6ec34 00000004 V _ZGVZN9mapfusion9BaseBlockINS_12GlobalConfigILj4ELj6ELj2ELj2EEEE19evaluateOBBLineNEONINS_21SupportedUpdateHelperILj4608EEEEENS_10ResultTypeERK12FloatPoint2DSA_ffhhhhhhhhRKNS3_19ScanlineBoundingBoxILj16EEERjE8r_onef32
E:\zFAS-Jenkins\workspace\zFAS_AIT_Master_AAT\SW\0300_ApplicationLayer\branches\CL3_REL_320_3XX\0350_SWC-SET\CtApMapFusion\02_libs\CtApMapFusion.vxe:82d6ec2c 00000004 V _ZGVZN9mapfusion9BaseBlockINS_12GlobalConfigILj4ELj6ELj2ELj2EEEE19evaluateOBBLineNEONINS_21SupportedUpdateHelperILj4608EEEEENS_10ResultTypeERK12FloatPoint2DSA_ffhhhhhhhhRKNS3_19ScanlineBoundingBoxILj16EEERjE8r_to_add
E:\zFAS-Jenkins\workspace\zFAS_AIT_Master_AAT\SW\0300_ApplicationLayer\branches\CL3_REL_320_3XX\0350_SWC-SET\CtApMapFusion\02_libs\CtApMapFusion.vxe:82d6ec3c 00000004 V _ZGVZN9mapfusion9BaseBlockINS_12GlobalConfigILj4ELj6ELj2ELj2EEEE19evaluateOBBLineNEONINS_21SupportedUpdateHelperILj4608EEEEENS_10ResultTypeERK12FloatPoint2DSA_ffhhhhhhhhRKNS3_19ScanlineBoundingBoxILj16EEERjE9r_zerof32
E:\zFAS-Jenkins\workspace\zFAS_AIT_Master_AAT\SW\0300_ApplicationLayer\branches\CL3_REL_320_3XX\0350_SWC-SET\CtApMapFusion\02_libs\CtApMapFusion.vxe:82d6ecdc 00000004 V _ZGVZN9mapfusion9BaseBlockINS_12GlobalConfigILj4ELj6ELj2ELj2EEEE19evaluateOBBLineNEONINS_21SupportedUpdateHelperILj8392705EEEEENS_10ResultTypeERK12FloatPoint2DSA_ffhhhhhhhhRKNS3_19ScanlineBoundingBoxILj16EEERjE11r_min_value
E:\zFAS-Jenkins\workspace\zFAS_AIT_Master_AAT\SW\0300_ApplicationLayer\branches\CL3_REL_320_3XX\0350_SWC-SET\CtApMapFusion\02_libs\CtApMapFusion.vxe:82d6ece4 00000004 V _ZGVZN9mapfusion9BaseBlockINS_12GlobalConfigILj4ELj6ELj2ELj2EEEE19evaluateOBBLineNEONINS_21SupportedUpdateHelperILj8392705EEEEENS_10ResultTypeERK12FloatPoint2DSA_ffhhhhhhhhRKNS3_19ScanlineBoundingBoxILj16EEERjE16r_point_five_f32
E:\zFAS-Jenkins\workspace\zFAS_AIT_Master_AAT\SW\0300_ApplicationLayer\branches\CL3_REL_320_3XX\0350_SWC-SET\CtApMapFusion\02_libs\CtApMapFusion.vxe:82d6ece0 00000004 V _ZGVZN9mapfusion9BaseBlockINS_12GlobalConfigILj4ELj6ELj2ELj2EEEE19evaluateOBBLineNEONINS_21SupportedUpdateHelperILj8392705EEEEENS_10ResultTypeERK12FloatPoint2DSA_ffhhhhhhhhRKNS3_19ScanlineBoundingBoxILj16EEERjE8r_onef32
E:\zFAS-Jenkins\workspace\zFAS_AIT_Master_AAT\SW\0300_ApplicationLayer\branches\CL3_REL_320_3XX\0350_SWC-SET\CtApMapFusion\02_libs\CtApMapFusion.vxe:82d6ecd8 00000004 V _ZGVZN9mapfusion9BaseBlockINS_12GlobalConfigILj4ELj6ELj2ELj2EEEE19evaluateOBBLineNEONINS_21SupportedUpdateHelperILj8392705EEEEENS_10ResultTypeERK12FloatPoint2DSA_ffhhhhhhhhRKNS3_19ScanlineBoundingBoxILj16EEERjE8r_to_add
E:\zFAS-Jenkins\workspace\zFAS_AIT_Master_AAT\SW\0300_ApplicationLayer\branches\CL3_REL_320_3XX\0350_SWC-SET\CtApMapFusion\02_libs\CtApMapFusion.vxe:82d6ece8 00000004 V _ZGVZN9mapfusion9BaseBlockINS_12GlobalConfigILj4ELj6ELj2ELj2EEEE19evaluateOBBLineNEONINS_21SupportedUpdateHelperILj8392705EEEEENS_10ResultTypeERK12FloatPoint2DSA_ffhhhhhhhhRKNS3_19ScanlineBoundingBoxILj16EEERjE9r_zerof32
E:\zFAS-Jenkins\workspace\zFAS_AIT_Master_AAT\SW\0300_ApplicationLayer\branches\CL3_REL_320_3XX\0350_SWC-SET\CtApMapFusion\02_libs\CtApMapFusion.vxe:82d6ec5c 00000004 V _ZGVZN9mapfusion9BaseBlockINS_12GlobalConfigILj4ELj6ELj2ELj2EEEE21rasterizeTriangleNEONILj3ELj4EEEvRKNS_11BoundingBoxEiiiiiiiiiRjE8zero_s32
E:\zFAS-Jenkins\workspace\zFAS_AIT_Master_AAT\SW\0300_ApplicationLayer\branches\CL3_REL_320_3XX\0350_SWC-SET\CtApMapFusion\02_libs\CtApMapFusion.vxe:82d6ec64 00000004 V _ZGVZN9mapfusion9BaseBlockINS_12GlobalConfigILj4ELj6ELj2ELj2EEEE22evaluateOBBEllipseNEONINS_21SupportedUpdateHelperILj200799355EEEEENS_10ResultTypeERK12FloatPoint2DbffffhhhhhhhhRKNS3_19ScanlineBoundingBoxILj16EEERjE10l_r_onef32
E:\zFAS-Jenkins\workspace\zFAS_AIT_Master_AAT\SW\0300_ApplicationLayer\branches\CL3_REL_320_3XX\0350_SWC-SET\CtApMapFusion\02_libs\CtApMapFusion.vxe:82d6ec60 00000004 V _ZGVZN9mapfusion9BaseBlockINS_12GlobalConfigILj4ELj6ELj2ELj2EEEE22evaluateOBBEllipseNEONINS_21SupportedUpdateHelperILj200799355EEEEENS_10ResultTypeERK12FloatPoint2DbffffhhhhhhhhRKNS3_19ScanlineBoundingBoxILj16EEERjE13l_r_min_value
E:\zFAS-Jenkins\workspace\zFAS_AIT_Master_AAT\SW\0300_ApplicationLayer\branches\CL3_REL_320_3XX\0350_SWC-SET\CtApMapFusion\02_libs\CtApMapFusion.vxe:82d6ecf0 00000004 V _ZGVZN9mapfusion9BaseBlockINS_12GlobalConfigILj4ELj6ELj2ELj2EEEE22evaluateOBBEllipseNEONINS_21SupportedUpdateHelperILj2097152EEEEENS_10ResultTypeERK12FloatPoint2DbffffhhhhhhhhRKNS3_19ScanlineBoundingBoxILj16EEERjE10l_r_onef32
E:\zFAS-Jenkins\workspace\zFAS_AIT_Master_AAT\SW\0300_ApplicationLayer\branches\CL3_REL_320_3XX\0350_SWC-SET\CtApMapFusion\02_libs\CtApMapFusion.vxe:82d6ecec 00000004 V _ZGVZN9mapfusion9BaseBlockINS_12GlobalConfigILj4ELj6ELj2ELj2EEEE22evaluateOBBEllipseNEONINS_21SupportedUpdateHelperILj2097152EEEEENS_10ResultTypeERK12FloatPoint2DbffffhhhhhhhhRKNS3_19ScanlineBoundingBoxILj16EEERjE13l_r_min_value
E:\zFAS-Jenkins\workspace\zFAS_AIT_Master_AAT\SW\0300_ApplicationLayer\branches\CL3_REL_320_3XX\0350_SWC-SET\CtApMapFusion\02_libs\CtApMapFusion.vxe:82d6ed44 00000004 V _ZGVZN9mapfusion9BaseBlockINS_12GlobalConfigILj4ELj6ELj2ELj2EEEE22evaluateOBBEllipseNEONINS_21SupportedUpdateHelperILj2097154EEEEENS_10ResultTypeERK12FloatPoint2DbffffhhhhhhhhRKNS3_19ScanlineBoundingBoxILj16EEERjE10l_r_onef32
E:\zFAS-Jenkins\workspace\zFAS_AIT_Master_AAT\SW\0300_ApplicationLayer\branches\CL3_REL_320_3XX\0350_SWC-SET\CtApMapFusion\02_libs\CtApMapFusion.vxe:82d6ed40 00000004 V _ZGVZN9mapfusion9BaseBlockINS_12GlobalConfigILj4ELj6ELj2ELj2EEEE22evaluateOBBEllipseNEONINS_21SupportedUpdateHelperILj2097154EEEEENS_10ResultTypeERK12FloatPoint2DbffffhhhhhhhhRKNS3_19ScanlineBoundingBoxILj16EEERjE13l_r_min_value
E:\zFAS-Jenkins\workspace\zFAS_AIT_Master_AAT\SW\0300_ApplicationLayer\branches\CL3_REL_320_3XX\0350_SWC-SET\CtApMapFusion\02_libs\CtApMapFusion.vxe:82d6ec9c 00000004 V _ZGVZN9mapfusion9BaseBlockINS_12GlobalConfigILj4ELj6ELj2ELj2EEEE22evaluateOBBEllipseNEONINS_21SupportedUpdateHelperILj2097290EEEEENS_10ResultTypeERK12FloatPoint2DbffffhhhhhhhhRKNS3_19ScanlineBoundingBoxILj16EEERjE10l_r_onef32
E:\zFAS-Jenkins\workspace\zFAS_AIT_Master_AAT\SW\0300_ApplicationLayer\branches\CL3_REL_320_3XX\0350_SWC-SET\CtApMapFusion\02_libs\CtApMapFusion.vxe:82d6ec98 00000004 V _ZGVZN9mapfusion9BaseBlockINS_12GlobalConfigILj4ELj6ELj2ELj2EEEE22evaluateOBBEllipseNEONINS_21SupportedUpdateHelperILj2097290EEEEENS_10ResultTypeERK12FloatPoint2DbffffhhhhhhhhRKNS3_19ScanlineBoundingBoxILj16EEERjE13l_r_min_value
E:\zFAS-Jenkins\workspace\zFAS_AIT_Master_AAT\SW\0300_ApplicationLayer\branches\CL3_REL_320_3XX\0350_SWC-SET\CtApMapFusion\02_libs\CtApMapFusion.vxe:82d6ed28 00000004 V _ZGVZN9mapfusion9BaseBlockINS_12GlobalConfigILj4ELj6ELj2ELj2EEEE22evaluateOBBEllipseNEONINS_21SupportedUpdateHelperILj2179470EEEEENS_10ResultTypeERK12FloatPoint2DbffffhhhhhhhhRKNS3_19ScanlineBoundingBoxILj16EEERjE10l_r_onef32
E:\zFAS-Jenkins\workspace\zFAS_AIT_Master_AAT\SW\0300_ApplicationLayer\branches\CL3_REL_320_3XX\0350_SWC-SET\CtApMapFusion\02_libs\CtApMapFusion.vxe:82d6ed24 00000004 V _ZGVZN9mapfusion9BaseBlockINS_12GlobalConfigILj4ELj6ELj2ELj2EEEE22evaluateOBBEllipseNEONINS_21SupportedUpdateHelperILj2179470EEEEENS_10ResultTypeERK12FloatPoint2DbffffhhhhhhhhRKNS3_19ScanlineBoundingBoxILj16EEERjE13l_r_min_value
E:\zFAS-Jenkins\workspace\zFAS_AIT_Master_AAT\SW\0300_ApplicationLayer\branches\CL3_REL_320_3XX\0350_SWC-SET\CtApMapFusion\02_libs\CtApMapFusion.vxe:82d6ed0c 00000004 V _ZGVZN9mapfusion9BaseBlockINS_12GlobalConfigILj4ELj6ELj2ELj2EEEE22evaluateOBBEllipseNEONINS_21SupportedUpdateHelperILj2179530EEEEENS_10ResultTypeERK12FloatPoint2DbffffhhhhhhhhRKNS3_19ScanlineBoundingBoxILj16EEERjE10l_r_onef32
E:\zFAS-Jenkins\workspace\zFAS_AIT_Master_AAT\SW\0300_ApplicationLayer\branches\CL3_REL_320_3XX\0350_SWC-SET\CtApMapFusion\02_libs\CtApMapFusion.vxe:82d6ed08 00000004 V _ZGVZN9mapfusion9BaseBlockINS_12GlobalConfigILj4ELj6ELj2ELj2EEEE22evaluateOBBEllipseNEONINS_21SupportedUpdateHelperILj2179530EEEEENS_10ResultTypeERK12FloatPoint2DbffffhhhhhhhhRKNS3_19ScanlineBoundingBoxILj16EEERjE13l_r_min_value
E:\zFAS-Jenkins\workspace\zFAS_AIT_Master_AAT\SW\0300_ApplicationLayer\branches\CL3_REL_320_3XX\0350_SWC-SET\CtApMapFusion\02_libs\CtApMapFusion.vxe:82d6ec80 00000004 V _ZGVZN9mapfusion9BaseBlockINS_12GlobalConfigILj4ELj6ELj2ELj2EEEE22evaluateOBBEllipseNEONINS_21SupportedUpdateHelperILj2191391EEEEENS_10ResultTypeERK12FloatPoint2DbffffhhhhhhhhRKNS3_19ScanlineBoundingBoxILj16EEERjE10l_r_onef32
E:\zFAS-Jenkins\workspace\zFAS_AIT_Master_AAT\SW\0300_ApplicationLayer\branches\CL3_REL_320_3XX\0350_SWC-SET\CtApMapFusion\02_libs\CtApMapFusion.vxe:82d6ec7c 00000004 V _ZGVZN9mapfusion9BaseBlockINS_12GlobalConfigILj4ELj6ELj2ELj2EEEE22evaluateOBBEllipseNEONINS_21SupportedUpdateHelperILj2191391EEEEENS_10ResultTypeERK12FloatPoint2DbffffhhhhhhhhRKNS3_19ScanlineBoundingBoxILj16EEERjE13l_r_min_value
E:\zFAS-Jenkins\workspace\zFAS_AIT_Master_AAT\SW\0300_ApplicationLayer\branches\CL3_REL_320_3XX\0350_SWC-SET\CtApMapFusion\02_libs\CtApMapFusion.vxe:82d6ecb8 00000004 V _ZGVZN9mapfusion9BaseBlockINS_12GlobalConfigILj4ELj6ELj2ELj2EEEE22evaluateOBBEllipseNEONINS_21SupportedUpdateHelperILj2322459EEEEENS_10ResultTypeERK12FloatPoint2DbffffhhhhhhhhRKNS3_19ScanlineBoundingBoxILj16EEERjE10l_r_onef32
E:\zFAS-Jenkins\workspace\zFAS_AIT_Master_AAT\SW\0300_ApplicationLayer\branches\CL3_REL_320_3XX\0350_SWC-SET\CtApMapFusion\02_libs\CtApMapFusion.vxe:82d6ecb4 00000004 V _ZGVZN9mapfusion9BaseBlockINS_12GlobalConfigILj4ELj6ELj2ELj2EEEE22evaluateOBBEllipseNEONINS_21SupportedUpdateHelperILj2322459EEEEENS_10ResultTypeERK12FloatPoint2DbffffhhhhhhhhRKNS3_19ScanlineBoundingBoxILj16EEERjE13l_r_min_value
E:\zFAS-Jenkins\workspace\zFAS_AIT_Master_AAT\SW\0300_ApplicationLayer\branches\CL3_REL_320_3XX\0350_SWC-SET\CtApMapFusion\02_libs\CtApMapFusion.vxe:82d6ec44 00000004 V _ZGVZN9mapfusion9BaseBlockINS_12GlobalConfigILj4ELj6ELj2ELj2EEEE22evaluateOBBEllipseNEONINS_21SupportedUpdateHelperILj3072EEEEENS_10ResultTypeERK12FloatPoint2DbffffhhhhhhhhRKNS3_19ScanlineBoundingBoxILj16EEERjE10l_r_onef32
E:\zFAS-Jenkins\workspace\zFAS_AIT_Master_AAT\SW\0300_ApplicationLayer\branches\CL3_REL_320_3XX\0350_SWC-SET\CtApMapFusion\02_libs\CtApMapFusion.vxe:82d6ec40 00000004 V _ZGVZN9mapfusion9BaseBlockINS_12GlobalConfigILj4ELj6ELj2ELj2EEEE22evaluateOBBEllipseNEONINS_21SupportedUpdateHelperILj3072EEEEENS_10ResultTypeERK12FloatPoint2DbffffhhhhhhhhRKNS3_19ScanlineBoundingBoxILj16EEERjE13l_r_min_value
E:\zFAS-Jenkins\workspace\zFAS_AIT_Master_AAT\SW\0300_ApplicationLayer\branches\CL3_REL_320_3XX\0350_SWC-SET\CtApMapFusion\02_libs\CtApMapFusion.vxe:82d6ec28 00000004 V _ZGVZN9mapfusion9BaseBlockINS_12GlobalConfigILj4ELj6ELj2ELj2EEEE22evaluateOBBEllipseNEONINS_21SupportedUpdateHelperILj4608EEEEENS_10ResultTypeERK12FloatPoint2DbffffhhhhhhhhRKNS3_19ScanlineBoundingBoxILj16EEERjE10l_r_onef32
E:\zFAS-Jenkins\workspace\zFAS_AIT_Master_AAT\SW\0300_ApplicationLayer\branches\CL3_REL_320_3XX\0350_SWC-SET\CtApMapFusion\02_libs\CtApMapFusion.vxe:82d6ec24 00000004 V _ZGVZN9mapfusion9BaseBlockINS_12GlobalConfigILj4ELj6ELj2ELj2EEEE22evaluateOBBEllipseNEONINS_21SupportedUpdateHelperILj4608EEEEENS_10ResultTypeERK12FloatPoint2DbffffhhhhhhhhRKNS3_19ScanlineBoundingBoxILj16EEERjE13l_r_min_value
E:\zFAS-Jenkins\workspace\zFAS_AIT_Master_AAT\SW\0300_ApplicationLayer\branches\CL3_REL_320_3XX\0350_SWC-SET\CtApMapFusion\02_libs\CtApMapFusion.vxe:82d6ecd4 00000004 V _ZGVZN9mapfusion9BaseBlockINS_12GlobalConfigILj4ELj6ELj2ELj2EEEE22evaluateOBBEllipseNEONINS_21SupportedUpdateHelperILj8392705EEEEENS_10ResultTypeERK12FloatPoint2DbffffhhhhhhhhRKNS3_19ScanlineBoundingBoxILj16EEERjE10l_r_onef32
E:\zFAS-Jenkins\workspace\zFAS_AIT_Master_AAT\SW\0300_ApplicationLayer\branches\CL3_REL_320_3XX\0350_SWC-SET\CtApMapFusion\02_libs\CtApMapFusion.vxe:82d6ecd0 00000004 V _ZGVZN9mapfusion9BaseBlockINS_12GlobalConfigILj4ELj6ELj2ELj2EEEE22evaluateOBBEllipseNEONINS_21SupportedUpdateHelperILj8392705EEEEENS_10ResultTypeERK12FloatPoint2DbffffhhhhhhhhRKNS3_19ScanlineBoundingBoxILj16EEERjE13l_r_min_value
E:\zFAS-Jenkins\workspace\zFAS_AIT_Master_AAT\SW\0300_ApplicationLayer\branches\CL3_REL_320_3XX\0350_SWC-SET\CtApMapFusion\02_libs\CtApMapFusion.vxe:80fdd5d4 00000004 V _ZGVZN9mapfusion9TraceData11getInstanceEvE8instance
E:\zFAS-Jenkins\workspace\zFAS_AIT_Master_AAT\SW\0300_ApplicationLayer\branches\CL3_REL_320_3XX\0350_SWC-SET\CtApMapFusion\02_libs\CtApMapFusion.vxe:80fdd594 00000004 V _ZGVZNK9mapfusion16StageTwoBlockMapINS_8BlockMapINS_12GlobalConfigILj4ELj6ELj2ELj2EEENS_23BlockMapComponentsTypesEEEE38generateBlockFeaturePointsCloeNeonCopyILj0EEEvRNS_9BaseBlockIS3_EEE10prop_d_vec
E:\zFAS-Jenkins\workspace\zFAS_AIT_Master_AAT\SW\0300_ApplicationLayer\branches\CL3_REL_320_3XX\0350_SWC-SET\CtApMapFusion\02_libs\CtApMapFusion.vxe:80fdd598 00000004 V _ZGVZNK9mapfusion16StageTwoBlockMapINS_8BlockMapINS_12GlobalConfigILj4ELj6ELj2ELj2EEENS_23BlockMapComponentsTypesEEEE38generateBlockFeaturePointsCloeNeonCopyILj0EEEvRNS_9BaseBlockIS3_EEE10prop_o_vec
E:\zFAS-Jenkins\workspace\zFAS_AIT_Master_AAT\SW\0300_ApplicationLayer\branches\CL3_REL_320_3XX\0350_SWC-SET\CtApMapFusion\02_libs\CtApMapFusion.vxe:80fdd590 00000004 V _ZGVZNK9mapfusion16StageTwoBlockMapINS_8BlockMapINS_12GlobalConfigILj4ELj6ELj2ELj2EEENS_23BlockMapComponentsTypesEEEE38generateBlockFeaturePointsCloeNeonCopyILj0EEEvRNS_9BaseBlockIS3_EEE11prop_od_vec
E:\zFAS-Jenkins\workspace\zFAS_AIT_Master_AAT\SW\0300_ApplicationLayer\branches\CL3_REL_320_3XX\0350_SWC-SET\CtApMapFusion\02_libs\CtApMapFusion.vxe:80fdd588 00000004 V _ZGVZNK9mapfusion16StageTwoBlockMapINS_8BlockMapINS_12GlobalConfigILj4ELj6ELj2ELj2EEENS_23BlockMapComponentsTypesEEEE38generateBlockFeaturePointsCloeNeonCopyILj0EEEvRNS_9BaseBlockIS3_EEE16static_cos_table
E:\zFAS-Jenkins\workspace\zFAS_AIT_Master_AAT\SW\0300_ApplicationLayer\branches\CL3_REL_320_3XX\0350_SWC-SET\CtApMapFusion\02_libs\CtApMapFusion.vxe:80fdd58c 00000004 V _ZGVZNK9mapfusion16StageTwoBlockMapINS_8BlockMapINS_12GlobalConfigILj4ELj6ELj2ELj2EEENS_23BlockMapComponentsTypesEEEE38generateBlockFeaturePointsCloeNeonCopyILj0EEEvRNS_9BaseBlockIS3_EEE16static_sin_table
E:\zFAS-Jenkins\workspace\zFAS_AIT_Master_AAT\SW\0300_ApplicationLayer\branches\CL3_REL_320_3XX\0350_SWC-SET\CtApMapFusion\02_libs\CtApMapFusion.vxe:80fdd59c 00000004 V _ZGVZNK9mapfusion16StageTwoBlockMapINS_8BlockMapINS_12GlobalConfigILj4ELj6ELj2ELj2EEENS_23BlockMapComponentsTypesEEEE38generateBlockFeaturePointsCloeNeonCopyILj0EEEvRNS_9BaseBlockIS3_EEE8iter_vec
E:\zFAS-Jenkins\workspace\zFAS_AIT_Master_AAT\SW\0300_ApplicationLayer\branches\CL3_REL_320_3XX\0350_SWC-SET\CtApMapFusion\02_libs\CtApMapFusion.vxe:80fdd580 00000004 V _ZGVZNK9mapfusion16StageTwoBlockMapINS_8BlockMapINS_12GlobalConfigILj4ELj6ELj2ELj2EEENS_23BlockMapComponentsTypesEEEE38generateBlockFeaturePointsCloeNeonCopyILj0EEEvRNS_9BaseBlockIS3_EEE9cos_table
E:\zFAS-Jenkins\workspace\zFAS_AIT_Master_AAT\SW\0300_ApplicationLayer\branches\CL3_REL_320_3XX\0350_SWC-SET\CtApMapFusion\02_libs\CtApMapFusion.vxe:80fdd584 00000004 V _ZGVZNK9mapfusion16StageTwoBlockMapINS_8BlockMapINS_12GlobalConfigILj4ELj6ELj2ELj2EEENS_23BlockMapComponentsTypesEEEE38generateBlockFeaturePointsCloeNeonCopyILj0EEEvRNS_9BaseBlockIS3_EEE9sin_table
E:\zFAS-Jenkins\workspace\zFAS_AIT_Master_AAT\SW\0300_ApplicationLayer\branches\CL3_REL_320_3XX\0350_SWC-SET\CtApMapFusion\02_libs\CtApMapFusion.vxe:80fdd548 00000004 V _ZGVZNK9mapfusion16StageTwoBlockMapINS_8BlockMapINS_12GlobalConfigILj4ELj6ELj2ELj2EEENS_23BlockMapComponentsTypesEEEE38generateBlockFeaturePointsCloeNeonCopyILj1EEEvRNS_9BaseBlockIS3_EEE10prop_d_vec
E:\zFAS-Jenkins\workspace\zFAS_AIT_Master_AAT\SW\0300_ApplicationLayer\branches\CL3_REL_320_3XX\0350_SWC-SET\CtApMapFusion\02_libs\CtApMapFusion.vxe:80fdd54c 00000004 V _ZGVZNK9mapfusion16StageTwoBlockMapINS_8BlockMapINS_12GlobalConfigILj4ELj6ELj2ELj2EEENS_23BlockMapComponentsTypesEEEE38generateBlockFeaturePointsCloeNeonCopyILj1EEEvRNS_9BaseBlockIS3_EEE10prop_o_vec
E:\zFAS-Jenkins\workspace\zFAS_AIT_Master_AAT\SW\0300_ApplicationLayer\branches\CL3_REL_320_3XX\0350_SWC-SET\CtApMapFusion\02_libs\CtApMapFusion.vxe:80fdd544 00000004 V _ZGVZNK9mapfusion16StageTwoBlockMapINS_8BlockMapINS_12GlobalConfigILj4ELj6ELj2ELj2EEENS_23BlockMapComponentsTypesEEEE38generateBlockFeaturePointsCloeNeonCopyILj1EEEvRNS_9BaseBlockIS3_EEE11prop_od_vec
E:\zFAS-Jenkins\workspace\zFAS_AIT_Master_AAT\SW\0300_ApplicationLayer\branches\CL3_REL_320_3XX\0350_SWC-SET\CtApMapFusion\02_libs\CtApMapFusion.vxe:80fdd53c 00000004 V _ZGVZNK9mapfusion16StageTwoBlockMapINS_8BlockMapINS_12GlobalConfigILj4ELj6ELj2ELj2EEENS_23BlockMapComponentsTypesEEEE38generateBlockFeaturePointsCloeNeonCopyILj1EEEvRNS_9BaseBlockIS3_EEE16static_cos_table
E:\zFAS-Jenkins\workspace\zFAS_AIT_Master_AAT\SW\0300_ApplicationLayer\branches\CL3_REL_320_3XX\0350_SWC-SET\CtApMapFusion\02_libs\CtApMapFusion.vxe:80fdd540 00000004 V _ZGVZNK9mapfusion16StageTwoBlockMapINS_8BlockMapINS_12GlobalConfigILj4ELj6ELj2ELj2EEENS_23BlockMapComponentsTypesEEEE38generateBlockFeaturePointsCloeNeonCopyILj1EEEvRNS_9BaseBlockIS3_EEE16static_sin_table
E:\zFAS-Jenkins\workspace\zFAS_AIT_Master_AAT\SW\0300_ApplicationLayer\branches\CL3_REL_320_3XX\0350_SWC-SET\CtApMapFusion\02_libs\CtApMapFusion.vxe:80fdd550 00000004 V _ZGVZNK9mapfusion16StageTwoBlockMapINS_8BlockMapINS_12GlobalConfigILj4ELj6ELj2ELj2EEENS_23BlockMapComponentsTypesEEEE38generateBlockFeaturePointsCloeNeonCopyILj1EEEvRNS_9BaseBlockIS3_EEE8iter_vec
E:\zFAS-Jenkins\workspace\zFAS_AIT_Master_AAT\SW\0300_ApplicationLayer\branches\CL3_REL_320_3XX\0350_SWC-SET\CtApMapFusion\02_libs\CtApMapFusion.vxe:80fdd534 00000004 V _ZGVZNK9mapfusion16StageTwoBlockMapINS_8BlockMapINS_12GlobalConfigILj4ELj6ELj2ELj2EEENS_23BlockMapComponentsTypesEEEE38generateBlockFeaturePointsCloeNeonCopyILj1EEEvRNS_9BaseBlockIS3_EEE9cos_table
E:\zFAS-Jenkins\workspace\zFAS_AIT_Master_AAT\SW\0300_ApplicationLayer\branches\CL3_REL_320_3XX\0350_SWC-SET\CtApMapFusion\02_libs\CtApMapFusion.vxe:80fdd538 00000004 V _ZGVZNK9mapfusion16StageTwoBlockMapINS_8BlockMapINS_12GlobalConfigILj4ELj6ELj2ELj2EEENS_23BlockMapComponentsTypesEEEE38generateBlockFeaturePointsCloeNeonCopyILj1EEEvRNS_9BaseBlockIS3_EEE9sin_table
E:\zFAS-Jenkins\workspace\zFAS_AIT_Master_AAT\SW\0300_ApplicationLayer\branches\CL3_REL_320_3XX\0350_SWC-SET\CtApMapFusion\02_libs\CtApMapFusion.vxe:80fdd4fc 00000004 V _ZGVZNK9mapfusion16StageTwoBlockMapINS_8BlockMapINS_12GlobalConfigILj4ELj6ELj2ELj2EEENS_23BlockMapComponentsTypesEEEE38generateBlockFeaturePointsCloeNeonCopyILj2EEEvRNS_9BaseBlockIS3_EEE10prop_d_vec
E:\zFAS-Jenkins\workspace\zFAS_AIT_Master_AAT\SW\0300_ApplicationLayer\branches\CL3_REL_320_3XX\0350_SWC-SET\CtApMapFusion\02_libs\CtApMapFusion.vxe:80fdd500 00000004 V _ZGVZNK9mapfusion16StageTwoBlockMapINS_8BlockMapINS_12GlobalConfigILj4ELj6ELj2ELj2EEENS_23BlockMapComponentsTypesEEEE38generateBlockFeaturePointsCloeNeonCopyILj2EEEvRNS_9BaseBlockIS3_EEE10prop_o_vec
E:\zFAS-Jenkins\workspace\zFAS_AIT_Master_AAT\SW\0300_ApplicationLayer\branches\CL3_REL_320_3XX\0350_SWC-SET\CtApMapFusion\02_libs\CtApMapFusion.vxe:80fdd4f8 00000004 V _ZGVZNK9mapfusion16StageTwoBlockMapINS_8BlockMapINS_12GlobalConfigILj4ELj6ELj2ELj2EEENS_23BlockMapComponentsTypesEEEE38generateBlockFeaturePointsCloeNeonCopyILj2EEEvRNS_9BaseBlockIS3_EEE11prop_od_vec
E:\zFAS-Jenkins\workspace\zFAS_AIT_Master_AAT\SW\0300_ApplicationLayer\branches\CL3_REL_320_3XX\0350_SWC-SET\CtApMapFusion\02_libs\CtApMapFusion.vxe:80fdd4f0 00000004 V _ZGVZNK9mapfusion16StageTwoBlockMapINS_8BlockMapINS_12GlobalConfigILj4ELj6ELj2ELj2EEENS_23BlockMapComponentsTypesEEEE38generateBlockFeaturePointsCloeNeonCopyILj2EEEvRNS_9BaseBlockIS3_EEE16static_cos_table
E:\zFAS-Jenkins\workspace\zFAS_AIT_Master_AAT\SW\0300_ApplicationLayer\branches\CL3_REL_320_3XX\0350_SWC-SET\CtApMapFusion\02_libs\CtApMapFusion.vxe:80fdd4f4 00000004 V _ZGVZNK9mapfusion16StageTwoBlockMapINS_8BlockMapINS_12GlobalConfigILj4ELj6ELj2ELj2EEENS_23BlockMapComponentsTypesEEEE38generateBlockFeaturePointsCloeNeonCopyILj2EEEvRNS_9BaseBlockIS3_EEE16static_sin_table
E:\zFAS-Jenkins\workspace\zFAS_AIT_Master_AAT\SW\0300_ApplicationLayer\branches\CL3_REL_320_3XX\0350_SWC-SET\CtApMapFusion\02_libs\CtApMapFusion.vxe:80fdd504 00000004 V _ZGVZNK9mapfusion16StageTwoBlockMapINS_8BlockMapINS_12GlobalConfigILj4ELj6ELj2ELj2EEENS_23BlockMapComponentsTypesEEEE38generateBlockFeaturePointsCloeNeonCopyILj2EEEvRNS_9BaseBlockIS3_EEE8iter_vec
E:\zFAS-Jenkins\workspace\zFAS_AIT_Master_AAT\SW\0300_ApplicationLayer\branches\CL3_REL_320_3XX\0350_SWC-SET\CtApMapFusion\02_libs\CtApMapFusion.vxe:80fdd4e8 00000004 V _ZGVZNK9mapfusion16StageTwoBlockMapINS_8BlockMapINS_12GlobalConfigILj4ELj6ELj2ELj2EEENS_23BlockMapComponentsTypesEEEE38generateBlockFeaturePointsCloeNeonCopyILj2EEEvRNS_9BaseBlockIS3_EEE9cos_table
E:\zFAS-Jenkins\workspace\zFAS_AIT_Master_AAT\SW\0300_ApplicationLayer\branches\CL3_REL_320_3XX\0350_SWC-SET\CtApMapFusion\02_libs\CtApMapFusion.vxe:80fdd4ec 00000004 V _ZGVZNK9mapfusion16StageTwoBlockMapINS_8BlockMapINS_12GlobalConfigILj4ELj6ELj2ELj2EEENS_23BlockMapComponentsTypesEEEE38generateBlockFeaturePointsCloeNeonCopyILj2EEEvRNS_9BaseBlockIS3_EEE9sin_table
E:\zFAS-Jenkins\workspace\zFAS_AIT_Master_AAT\SW\0300_ApplicationLayer\branches\CL3_REL_320_3XX\0350_SWC-SET\CtApMapFusion\02_libs\CtApMapFusion.vxe:80fdd5b4 00000004 V _ZGVZNK9mapfusion16StageTwoBlockMapINS_8BlockMapINS_12GlobalConfigILj4ELj6ELj2ELj2EEENS_23BlockMapComponentsTypesEEEE38generateBlockFeaturePointsCloeNeonFuseILj0EEEvRNS_9BaseBlockIS3_EEE10prop_d_vec
E:\zFAS-Jenkins\workspace\zFAS_AIT_Master_AAT\SW\0300_ApplicationLayer\branches\CL3_REL_320_3XX\0350_SWC-SET\CtApMapFusion\02_libs\CtApMapFusion.vxe:80fdd5b8 00000004 V _ZGVZNK9mapfusion16StageTwoBlockMapINS_8BlockMapINS_12GlobalConfigILj4ELj6ELj2ELj2EEENS_23BlockMapComponentsTypesEEEE38generateBlockFeaturePointsCloeNeonFuseILj0EEEvRNS_9BaseBlockIS3_EEE10prop_o_vec
E:\zFAS-Jenkins\workspace\zFAS_AIT_Master_AAT\SW\0300_ApplicationLayer\branches\CL3_REL_320_3XX\0350_SWC-SET\CtApMapFusion\02_libs\CtApMapFusion.vxe:80fdd5ac 00000004 V _ZGVZNK9mapfusion16StageTwoBlockMapINS_8BlockMapINS_12GlobalConfigILj4ELj6ELj2ELj2EEENS_23BlockMapComponentsTypesEEEE38generateBlockFeaturePointsCloeNeonFuseILj0EEEvRNS_9BaseBlockIS3_EEE11iter_vec_u8
E:\zFAS-Jenkins\workspace\zFAS_AIT_Master_AAT\SW\0300_ApplicationLayer\branches\CL3_REL_320_3XX\0350_SWC-SET\CtApMapFusion\02_libs\CtApMapFusion.vxe:80fdd5b0 00000004 V _ZGVZNK9mapfusion16StageTwoBlockMapINS_8BlockMapINS_12GlobalConfigILj4ELj6ELj2ELj2EEENS_23BlockMapComponentsTypesEEEE38generateBlockFeaturePointsCloeNeonFuseILj0EEEvRNS_9BaseBlockIS3_EEE11prop_od_vec
E:\zFAS-Jenkins\workspace\zFAS_AIT_Master_AAT\SW\0300_ApplicationLayer\branches\CL3_REL_320_3XX\0350_SWC-SET\CtApMapFusion\02_libs\CtApMapFusion.vxe:80fdd5a4 00000004 V _ZGVZNK9mapfusion16StageTwoBlockMapINS_8BlockMapINS_12GlobalConfigILj4ELj6ELj2ELj2EEENS_23BlockMapComponentsTypesEEEE38generateBlockFeaturePointsCloeNeonFuseILj0EEEvRNS_9BaseBlockIS3_EEE12pairing_mask
E:\zFAS-Jenkins\workspace\zFAS_AIT_Master_AAT\SW\0300_ApplicationLayer\branches\CL3_REL_320_3XX\0350_SWC-SET\CtApMapFusion\02_libs\CtApMapFusion.vxe:80fdd5a0 00000004 V _ZGVZNK9mapfusion16StageTwoBlockMapINS_8BlockMapINS_12GlobalConfigILj4ELj6ELj2ELj2EEENS_23BlockMapComponentsTypesEEEE38generateBlockFeaturePointsCloeNeonFuseILj0EEEvRNS_9BaseBlockIS3_EEE14pairing_mask16
E:\zFAS-Jenkins\workspace\zFAS_AIT_Master_AAT\SW\0300_ApplicationLayer\branches\CL3_REL_320_3XX\0350_SWC-SET\CtApMapFusion\02_libs\CtApMapFusion.vxe:80fdd5c4 00000004 V _ZGVZNK9mapfusion16StageTwoBlockMapINS_8BlockMapINS_12GlobalConfigILj4ELj6ELj2ELj2EEENS_23BlockMapComponentsTypesEEEE38generateBlockFeaturePointsCloeNeonFuseILj0EEEvRNS_9BaseBlockIS3_EEE16static_cos_table
E:\zFAS-Jenkins\workspace\zFAS_AIT_Master_AAT\SW\0300_ApplicationLayer\branches\CL3_REL_320_3XX\0350_SWC-SET\CtApMapFusion\02_libs\CtApMapFusion.vxe:80fdd5c8 00000004 V _ZGVZNK9mapfusion16StageTwoBlockMapINS_8BlockMapINS_12GlobalConfigILj4ELj6ELj2ELj2EEENS_23BlockMapComponentsTypesEEEE38generateBlockFeaturePointsCloeNeonFuseILj0EEEvRNS_9BaseBlockIS3_EEE16static_sin_table
E:\zFAS-Jenkins\workspace\zFAS_AIT_Master_AAT\SW\0300_ApplicationLayer\branches\CL3_REL_320_3XX\0350_SWC-SET\CtApMapFusion\02_libs\CtApMapFusion.vxe:80fdd5a8 00000004 V _ZGVZNK9mapfusion16StageTwoBlockMapINS_8BlockMapINS_12GlobalConfigILj4ELj6ELj2ELj2EEENS_23BlockMapComponentsTypesEEEE38generateBlockFeaturePointsCloeNeonFuseILj0EEEvRNS_9BaseBlockIS3_EEE8iter_vec
E:\zFAS-Jenkins\workspace\zFAS_AIT_Master_AAT\SW\0300_ApplicationLayer\branches\CL3_REL_320_3XX\0350_SWC-SET\CtApMapFusion\02_libs\CtApMapFusion.vxe:80fdd5bc 00000004 V _ZGVZNK9mapfusion16StageTwoBlockMapINS_8BlockMapINS_12GlobalConfigILj4ELj6ELj2ELj2EEENS_23BlockMapComponentsTypesEEEE38generateBlockFeaturePointsCloeNeonFuseILj0EEEvRNS_9BaseBlockIS3_EEE9cos_table
E:\zFAS-Jenkins\workspace\zFAS_AIT_Master_AAT\SW\0300_ApplicationLayer\branches\CL3_REL_320_3XX\0350_SWC-SET\CtApMapFusion\02_libs\CtApMapFusion.vxe:80fdd5c0 00000004 V _ZGVZNK9mapfusion16StageTwoBlockMapINS_8BlockMapINS_12GlobalConfigILj4ELj6ELj2ELj2EEENS_23BlockMapComponentsTypesEEEE38generateBlockFeaturePointsCloeNeonFuseILj0EEEvRNS_9BaseBlockIS3_EEE9sin_table
E:\zFAS-Jenkins\workspace\zFAS_AIT_Master_AAT\SW\0300_ApplicationLayer\branches\CL3_REL_320_3XX\0350_SWC-SET\CtApMapFusion\02_libs\CtApMapFusion.vxe:80fdd568 00000004 V _ZGVZNK9mapfusion16StageTwoBlockMapINS_8BlockMapINS_12GlobalConfigILj4ELj6ELj2ELj2EEENS_23BlockMapComponentsTypesEEEE38generateBlockFeaturePointsCloeNeonFuseILj1EEEvRNS_9BaseBlockIS3_EEE10prop_d_vec
E:\zFAS-Jenkins\workspace\zFAS_AIT_Master_AAT\SW\0300_ApplicationLayer\branches\CL3_REL_320_3XX\0350_SWC-SET\CtApMapFusion\02_libs\CtApMapFusion.vxe:80fdd56c 00000004 V _ZGVZNK9mapfusion16StageTwoBlockMapINS_8BlockMapINS_12GlobalConfigILj4ELj6ELj2ELj2EEENS_23BlockMapComponentsTypesEEEE38generateBlockFeaturePointsCloeNeonFuseILj1EEEvRNS_9BaseBlockIS3_EEE10prop_o_vec
E:\zFAS-Jenkins\workspace\zFAS_AIT_Master_AAT\SW\0300_ApplicationLayer\branches\CL3_REL_320_3XX\0350_SWC-SET\CtApMapFusion\02_libs\CtApMapFusion.vxe:80fdd560 00000004 V _ZGVZNK9mapfusion16StageTwoBlockMapINS_8BlockMapINS_12GlobalConfigILj4ELj6ELj2ELj2EEENS_23BlockMapComponentsTypesEEEE38generateBlockFeaturePointsCloeNeonFuseILj1EEEvRNS_9BaseBlockIS3_EEE11iter_vec_u8
E:\zFAS-Jenkins\workspace\zFAS_AIT_Master_AAT\SW\0300_ApplicationLayer\branches\CL3_REL_320_3XX\0350_SWC-SET\CtApMapFusion\02_libs\CtApMapFusion.vxe:80fdd564 00000004 V _ZGVZNK9mapfusion16StageTwoBlockMapINS_8BlockMapINS_12GlobalConfigILj4ELj6ELj2ELj2EEENS_23BlockMapComponentsTypesEEEE38generateBlockFeaturePointsCloeNeonFuseILj1EEEvRNS_9BaseBlockIS3_EEE11prop_od_vec
E:\zFAS-Jenkins\workspace\zFAS_AIT_Master_AAT\SW\0300_ApplicationLayer\branches\CL3_REL_320_3XX\0350_SWC-SET\CtApMapFusion\02_libs\CtApMapFusion.vxe:80fdd558 00000004 V _ZGVZNK9mapfusion16StageTwoBlockMapINS_8BlockMapINS_12GlobalConfigILj4ELj6ELj2ELj2EEENS_23BlockMapComponentsTypesEEEE38generateBlockFeaturePointsCloeNeonFuseILj1EEEvRNS_9BaseBlockIS3_EEE12pairing_mask
E:\zFAS-Jenkins\workspace\zFAS_AIT_Master_AAT\SW\0300_ApplicationLayer\branches\CL3_REL_320_3XX\0350_SWC-SET\CtApMapFusion\02_libs\CtApMapFusion.vxe:80fdd554 00000004 V _ZGVZNK9mapfusion16StageTwoBlockMapINS_8BlockMapINS_12GlobalConfigILj4ELj6ELj2ELj2EEENS_23BlockMapComponentsTypesEEEE38generateBlockFeaturePointsCloeNeonFuseILj1EEEvRNS_9BaseBlockIS3_EEE14pairing_mask16
E:\zFAS-Jenkins\workspace\zFAS_AIT_Master_AAT\SW\0300_ApplicationLayer\branches\CL3_REL_320_3XX\0350_SWC-SET\CtApMapFusion\02_libs\CtApMapFusion.vxe:80fdd578 00000004 V _ZGVZNK9mapfusion16StageTwoBlockMapINS_8BlockMapINS_12GlobalConfigILj4ELj6ELj2ELj2EEENS_23BlockMapComponentsTypesEEEE38generateBlockFeaturePointsCloeNeonFuseILj1EEEvRNS_9BaseBlockIS3_EEE16static_cos_table
E:\zFAS-Jenkins\workspace\zFAS_AIT_Master_AAT\SW\0300_ApplicationLayer\branches\CL3_REL_320_3XX\0350_SWC-SET\CtApMapFusion\02_libs\CtApMapFusion.vxe:80fdd57c 00000004 V _ZGVZNK9mapfusion16StageTwoBlockMapINS_8BlockMapINS_12GlobalConfigILj4ELj6ELj2ELj2EEENS_23BlockMapComponentsTypesEEEE38generateBlockFeaturePointsCloeNeonFuseILj1EEEvRNS_9BaseBlockIS3_EEE16static_sin_table
E:\zFAS-Jenkins\workspace\zFAS_AIT_Master_AAT\SW\0300_ApplicationLayer\branches\CL3_REL_320_3XX\0350_SWC-SET\CtApMapFusion\02_libs\CtApMapFusion.vxe:80fdd55c 00000004 V _ZGVZNK9mapfusion16StageTwoBlockMapINS_8BlockMapINS_12GlobalConfigILj4ELj6ELj2ELj2EEENS_23BlockMapComponentsTypesEEEE38generateBlockFeaturePointsCloeNeonFuseILj1EEEvRNS_9BaseBlockIS3_EEE8iter_vec
E:\zFAS-Jenkins\workspace\zFAS_AIT_Master_AAT\SW\0300_ApplicationLayer\branches\CL3_REL_320_3XX\0350_SWC-SET\CtApMapFusion\02_libs\CtApMapFusion.vxe:80fdd570 00000004 V _ZGVZNK9mapfusion16StageTwoBlockMapINS_8BlockMapINS_12GlobalConfigILj4ELj6ELj2ELj2EEENS_23BlockMapComponentsTypesEEEE38generateBlockFeaturePointsCloeNeonFuseILj1EEEvRNS_9BaseBlockIS3_EEE9cos_table
E:\zFAS-Jenkins\workspace\zFAS_AIT_Master_AAT\SW\0300_ApplicationLayer\branches\CL3_REL_320_3XX\0350_SWC-SET\CtApMapFusion\02_libs\CtApMapFusion.vxe:80fdd574 00000004 V _ZGVZNK9mapfusion16StageTwoBlockMapINS_8BlockMapINS_12GlobalConfigILj4ELj6ELj2ELj2EEENS_23BlockMapComponentsTypesEEEE38generateBlockFeaturePointsCloeNeonFuseILj1EEEvRNS_9BaseBlockIS3_EEE9sin_table
E:\zFAS-Jenkins\workspace\zFAS_AIT_Master_AAT\SW\0300_ApplicationLayer\branches\CL3_REL_320_3XX\0350_SWC-SET\CtApMapFusion\02_libs\CtApMapFusion.vxe:80fdd51c 00000004 V _ZGVZNK9mapfusion16StageTwoBlockMapINS_8BlockMapINS_12GlobalConfigILj4ELj6ELj2ELj2EEENS_23BlockMapComponentsTypesEEEE38generateBlockFeaturePointsCloeNeonFuseILj2EEEvRNS_9BaseBlockIS3_EEE10prop_d_vec
E:\zFAS-Jenkins\workspace\zFAS_AIT_Master_AAT\SW\0300_ApplicationLayer\branches\CL3_REL_320_3XX\0350_SWC-SET\CtApMapFusion\02_libs\CtApMapFusion.vxe:80fdd520 00000004 V _ZGVZNK9mapfusion16StageTwoBlockMapINS_8BlockMapINS_12GlobalConfigILj4ELj6ELj2ELj2EEENS_23BlockMapComponentsTypesEEEE38generateBlockFeaturePointsCloeNeonFuseILj2EEEvRNS_9BaseBlockIS3_EEE10prop_o_vec
E:\zFAS-Jenkins\workspace\zFAS_AIT_Master_AAT\SW\0300_ApplicationLayer\branches\CL3_REL_320_3XX\0350_SWC-SET\CtApMapFusion\02_libs\CtApMapFusion.vxe:80fdd514 00000004 V _ZGVZNK9mapfusion16StageTwoBlockMapINS_8BlockMapINS_12GlobalConfigILj4ELj6ELj2ELj2EEENS_23BlockMapComponentsTypesEEEE38generateBlockFeaturePointsCloeNeonFuseILj2EEEvRNS_9BaseBlockIS3_EEE11iter_vec_u8
E:\zFAS-Jenkins\workspace\zFAS_AIT_Master_AAT\SW\0300_ApplicationLayer\branches\CL3_REL_320_3XX\0350_SWC-SET\CtApMapFusion\02_libs\CtApMapFusion.vxe:80fdd518 00000004 V _ZGVZNK9mapfusion16StageTwoBlockMapINS_8BlockMapINS_12GlobalConfigILj4ELj6ELj2ELj2EEENS_23BlockMapComponentsTypesEEEE38generateBlockFeaturePointsCloeNeonFuseILj2EEEvRNS_9BaseBlockIS3_EEE11prop_od_vec
E:\zFAS-Jenkins\workspace\zFAS_AIT_Master_AAT\SW\0300_ApplicationLayer\branches\CL3_REL_320_3XX\0350_SWC-SET\CtApMapFusion\02_libs\CtApMapFusion.vxe:80fdd50c 00000004 V _ZGVZNK9mapfusion16StageTwoBlockMapINS_8BlockMapINS_12GlobalConfigILj4ELj6ELj2ELj2EEENS_23BlockMapComponentsTypesEEEE38generateBlockFeaturePointsCloeNeonFuseILj2EEEvRNS_9BaseBlockIS3_EEE12pairing_mask
E:\zFAS-Jenkins\workspace\zFAS_AIT_Master_AAT\SW\0300_ApplicationLayer\branches\CL3_REL_320_3XX\0350_SWC-SET\CtApMapFusion\02_libs\CtApMapFusion.vxe:80fdd508 00000004 V _ZGVZNK9mapfusion16StageTwoBlockMapINS_8BlockMapINS_12GlobalConfigILj4ELj6ELj2ELj2EEENS_23BlockMapComponentsTypesEEEE38generateBlockFeaturePointsCloeNeonFuseILj2EEEvRNS_9BaseBlockIS3_EEE14pairing_mask16
E:\zFAS-Jenkins\workspace\zFAS_AIT_Master_AAT\SW\0300_ApplicationLayer\branches\CL3_REL_320_3XX\0350_SWC-SET\CtApMapFusion\02_libs\CtApMapFusion.vxe:80fdd52c 00000004 V _ZGVZNK9mapfusion16StageTwoBlockMapINS_8BlockMapINS_12GlobalConfigILj4ELj6ELj2ELj2EEENS_23BlockMapComponentsTypesEEEE38generateBlockFeaturePointsCloeNeonFuseILj2EEEvRNS_9BaseBlockIS3_EEE16static_cos_table
E:\zFAS-Jenkins\workspace\zFAS_AIT_Master_AAT\SW\0300_ApplicationLayer\branches\CL3_REL_320_3XX\0350_SWC-SET\CtApMapFusion\02_libs\CtApMapFusion.vxe:80fdd530 00000004 V _ZGVZNK9mapfusion16StageTwoBlockMapINS_8BlockMapINS_12GlobalConfigILj4ELj6ELj2ELj2EEENS_23BlockMapComponentsTypesEEEE38generateBlockFeaturePointsCloeNeonFuseILj2EEEvRNS_9BaseBlockIS3_EEE16static_sin_table
E:\zFAS-Jenkins\workspace\zFAS_AIT_Master_AAT\SW\0300_ApplicationLayer\branches\CL3_REL_320_3XX\0350_SWC-SET\CtApMapFusion\02_libs\CtApMapFusion.vxe:80fdd510 00000004 V _ZGVZNK9mapfusion16StageTwoBlockMapINS_8BlockMapINS_12GlobalConfigILj4ELj6ELj2ELj2EEENS_23BlockMapComponentsTypesEEEE38generateBlockFeaturePointsCloeNeonFuseILj2EEEvRNS_9BaseBlockIS3_EEE8iter_vec
E:\zFAS-Jenkins\workspace\zFAS_AIT_Master_AAT\SW\0300_ApplicationLayer\branches\CL3_REL_320_3XX\0350_SWC-SET\CtApMapFusion\02_libs\CtApMapFusion.vxe:80fdd524 00000004 V _ZGVZNK9mapfusion16StageTwoBlockMapINS_8BlockMapINS_12GlobalConfigILj4ELj6ELj2ELj2EEENS_23BlockMapComponentsTypesEEEE38generateBlockFeaturePointsCloeNeonFuseILj2EEEvRNS_9BaseBlockIS3_EEE9cos_table
E:\zFAS-Jenkins\workspace\zFAS_AIT_Master_AAT\SW\0300_ApplicationLayer\branches\CL3_REL_320_3XX\0350_SWC-SET\CtApMapFusion\02_libs\CtApMapFusion.vxe:80fdd528 00000004 V _ZGVZNK9mapfusion16StageTwoBlockMapINS_8BlockMapINS_12GlobalConfigILj4ELj6ELj2ELj2EEENS_23BlockMapComponentsTypesEEEE38generateBlockFeaturePointsCloeNeonFuseILj2EEEvRNS_9BaseBlockIS3_EEE9sin_table
E:\zFAS-Jenkins\workspace\zFAS_AIT_Master_AAT\SW\0300_ApplicationLayer\branches\CL3_REL_320_3XX\0350_SWC-SET\CtApMapFusion\02_libs\CtApMapFusion.vxe:82d6eda0 00000004 V _ZGVZNK9mapfusion19FeatureTriangulator17addFeatureToFenceINS_14IFencesAdapterIN9fencesapi10IFencesApiI19_Dt_RECORD_MVFences20_Dt_RECORD_MVContour19_Dt_RECORD_MVVertexLj100ELj100ELj3ELj13ENS3_28MvFencesApiAdditionalMembersEjjEENS_6FCacheELj3072ENS_22CommonPrioritySelectorEEEEEvRKNS_13TriangFeatureERT_E26unc_angle_scale_factor_deg
E:\zFAS-Jenkins\workspace\zFAS_AIT_Master_AAT\SW\0300_ApplicationLayer\branches\CL3_REL_320_3XX\0350_SWC-SET\CtApMapFusion\02_libs\CtApMapFusion.vxe:82d6edb0 00000004 V _ZGVZNK9mapfusion19FeatureTriangulator17addFeatureToFenceINS_14IFencesAdapterIN9fencesapi10IFencesApiI19_Dt_RECORD_MVFences20_Dt_RECORD_MVContour19_Dt_RECORD_MVVertexLj100ELj100ELj3ELj13ENS3_28MvFencesApiAdditionalMembersEjjEENS_6OCacheELj2097290ENS_22CommonPrioritySelectorEEEEEvRKNS_13TriangFeatureERT_E26unc_angle_scale_factor_deg
E:\zFAS-Jenkins\workspace\zFAS_AIT_Master_AAT\SW\0300_ApplicationLayer\branches\CL3_REL_320_3XX\0350_SWC-SET\CtApMapFusion\02_libs\CtApMapFusion.vxe:82d6edbc 00000004 V _ZGVZNK9mapfusion19FeatureTriangulator17addFeatureToFenceINS_14IFencesAdapterIN9fencesapi10IFencesApiI27_Dt_RECORD_LSObstacleFences28_Dt_RECORD_LSObstacleContour27_Dt_RECORD_LSObstacleVertexLj64ELj350ELj3ELj12EjjjEENS_6OCacheELj2322459ENS_18LSPrioritySelectorEEEEEvRKNS_13TriangFeatureERT_E26unc_angle_scale_factor_deg
E:\zFAS-Jenkins\workspace\zFAS_AIT_Master_AAT\SW\0300_ApplicationLayer\branches\CL3_REL_320_3XX\0350_SWC-SET\CtApMapFusion\02_libs\CtApMapFusion.vxe:82d6eda8 00000004 V _ZGVZNK9mapfusion19FeatureTriangulator17addFeatureToFenceINS_14IFencesAdapterIN9fencesapi10IFencesApiI27_Dt_RECORD_USObstacleFences28_Dt_RECORD_USObstacleContour27_Dt_RECORD_USObstacleVertexLj24ELj48ELj3ELj12ENS3_36UsObstacleFencesApiAdditionalMembersEjtEENS_6OCacheELj200799355ENS_18USPrioritySelectorEEEEEvRKNS_13TriangFeatureERT_E26unc_angle_scale_factor_deg
E:\zFAS-Jenkins\workspace\zFAS_AIT_Master_AAT\SW\0300_ApplicationLayer\branches\CL3_REL_320_3XX\0350_SWC-SET\CtApMapFusion\02_libs\CtApMapFusion.vxe:82d6edb8 00000004 V _ZGVZNK9mapfusion19FeatureTriangulator17addFeatureToFenceINS_14IFencesAdapterIN9fencesapi10IFencesApiI28_Dt_RECORD_LRRObstacleFences29_Dt_RECORD_LRRObstacleContour28_Dt_RECORD_LRRObstacleVertexLj10ELj20ELj3ELj12EjjjEENS_6OCacheELj2097290ENS_22CommonPrioritySelectorEEEEEvRKNS_13TriangFeatureERT_E26unc_angle_scale_factor_deg
E:\zFAS-Jenkins\workspace\zFAS_AIT_Master_AAT\SW\0300_ApplicationLayer\branches\CL3_REL_320_3XX\0350_SWC-SET\CtApMapFusion\02_libs\CtApMapFusion.vxe:82d6eda4 00000004 V _ZGVZNK9mapfusion19FeatureTriangulator17addFeatureToFenceINS_14IFencesAdapterIN9fencesapi10IFencesApiI28_Dt_RECORD_LSFreespaceFences29_Dt_RECORD_LSFreespaceContour28_Dt_RECORD_LSFreespaceVertexLj64ELj350ELj1ELj1EjNS3_34ZfasLsFreespaceContourApiAddMemberEjEENS_6FCacheELj2322459ENS_18LSPrioritySelectorEEEEEvRKNS_13TriangFeatureERT_E26unc_angle_scale_factor_deg
E:\zFAS-Jenkins\workspace\zFAS_AIT_Master_AAT\SW\0300_ApplicationLayer\branches\CL3_REL_320_3XX\0350_SWC-SET\CtApMapFusion\02_libs\CtApMapFusion.vxe:82d6edb4 00000004 V _ZGVZNK9mapfusion19FeatureTriangulator17addFeatureToFenceINS_14IFencesAdapterIN9fencesapi10IFencesApiI28_Dt_RECORD_MRRObstacleFences29_Dt_RECORD_MRRObstacleContour28_Dt_RECORD_MRRObstacleVertexLj10ELj20ELj3ELj12EjjjEENS_6OCacheELj2097290ENS_22CommonPrioritySelectorEEEEEvRKNS_13TriangFeatureERT_E26unc_angle_scale_factor_deg
E:\zFAS-Jenkins\workspace\zFAS_AIT_Master_AAT\SW\0300_ApplicationLayer\branches\CL3_REL_320_3XX\0350_SWC-SET\CtApMapFusion\02_libs\CtApMapFusion.vxe:82d6ed98 00000004 V _ZGVZNK9mapfusion19FeatureTriangulator17addFeatureToFenceINS_14IFencesAdapterIN9fencesapi10IFencesApiI28_Dt_RECORD_USFreespaceFences29_Dt_RECORD_USFreespaceContour28_Dt_RECORD_USFreespaceVertexLj48ELj192ELj1ELj1EjjjEENS_6FCacheELj200799355ENS_18USPrioritySelectorEEEEEvRKNS_13TriangFeatureERT_E26unc_angle_scale_factor_deg
E:\zFAS-Jenkins\workspace\zFAS_AIT_Master_AAT\SW\0300_ApplicationLayer\branches\CL3_REL_320_3XX\0350_SWC-SET\CtApMapFusion\02_libs\CtApMapFusion.vxe:82d6edac 00000004 V _ZGVZNK9mapfusion19FeatureTriangulator17addFeatureToFenceINS_14IFencesAdapterIN9fencesapi10IFencesApiI29_Dt_RECORD_TVBVObstacleFences30_Dt_RECORD_TVBVObstacleContour29_Dt_RECORD_TVBVObstacleVertexLj64ELj200ELj3ELj12EjjjEENS_6OCacheELj2191391ENS_20TVIPPrioritySelectorEEEEEvRKNS_13TriangFeatureERT_E26unc_angle_scale_factor_deg
E:\zFAS-Jenkins\workspace\zFAS_AIT_Master_AAT\SW\0300_ApplicationLayer\branches\CL3_REL_320_3XX\0350_SWC-SET\CtApMapFusion\02_libs\CtApMapFusion.vxe:82d6ed9c 00000004 V _ZGVZNK9mapfusion19FeatureTriangulator17addFeatureToFenceINS_14IFencesAdapterIN9fencesapi10IFencesApiI30_Dt_RECORD_TVBVFreespaceFences31_Dt_RECORD_TVBVFreespaceContour30_Dt_RECORD_TVBVFreespaceVertexLj128ELj440ELj1ELj1EjjjEENS_6FCacheELj2191391ENS_20TVIPPrioritySelectorEEEEEvRKNS_13TriangFeatureERT_E26unc_angle_scale_factor_deg
E:\zFAS-Jenkins\workspace\zFAS_AIT_Master_AAT\SW\0300_ApplicationLayer\branches\CL3_REL_320_3XX\0350_SWC-SET\CtApMapFusion\02_libs\CtApMapFusion.vxe:82d6ed94 00000004 V _ZGVZNK9mapfusion19FeatureTriangulator17addFeatureToFenceINS_14IFencesAdapterIN9fencesapi10IFencesApiIN15fencesinterface17FencesLightStructENS5_7ContourENS5_6VertexELj250ELj500ELj5ELj31EjjjEENS_6FCacheELj4608ENS_22CommonPrioritySelectorEEEEEvRKNS_13TriangFeatureERT_E26unc_angle_scale_factor_deg
E:\zFAS-Jenkins\workspace\zFAS_AIT_Master_AAT\SW\0300_ApplicationLayer\branches\CL3_REL_320_3XX\0350_SWC-SET\CtApMapFusion\02_libs\CtApMapFusion.vxe:80259d28 00000064 T _ZN11asmfdiagrte26codingSWParamsExceedRangesERK22_Dt_RECORD_Diag_Coding
E:\zFAS-Jenkins\workspace\zFAS_AIT_Master_AAT\SW\0300_ApplicationLayer\branches\CL3_REL_320_3XX\0350_SWC-SET\CtApMapFusion\02_libs\CtApMapFusion.vxe:80259d8c 000056c0 T _ZN11asmfdiagrte27datasetSWParamsExceedRangesERKN7asmfrte13DatasetData_tE
E:\zFAS-Jenkins\workspace\zFAS_AIT_Master_AAT\SW\0300_ApplicationLayer\branches\CL3_REL_320_3XX\0350_SWC-SET\CtApMapFusion\02_libs\CtApMapFusion.vxe:8025f458 0000000c T _ZN11asmfdiagrte30expectedDatasetChecksumContentEv
E:\zFAS-Jenkins\workspace\zFAS_AIT_Master_AAT\SW\0300_ApplicationLayer\branches\CL3_REL_320_3XX\0350_SWC-SET\CtApMapFusion\02_libs\CtApMapFusion.vxe:8025f44c 0000000c T _ZN11asmfdiagrte32expectedDatasetChecksumDatablockEv
E:\zFAS-Jenkins\workspace\zFAS_AIT_Master_AAT\SW\0300_ApplicationLayer\branches\CL3_REL_320_3XX\0350_SWC-SET\CtApMapFusion\02_libs\CtApMapFusion.vxe:80023d28 000002d4 W _ZN12errorhandler14QueueOdoReader12readAndCheckEv
E:\zFAS-Jenkins\workspace\zFAS_AIT_Master_AAT\SW\0300_ApplicationLayer\branches\CL3_REL_320_3XX\0350_SWC-SET\CtApMapFusion\02_libs\CtApMapFusion.vxe:8004cc54 000000b8 W _ZN12errorhandler14QueueOdoReader13getNextSampleEPvRN9mapfusion9MfOdoDataEj
E:\zFAS-Jenkins\workspace\zFAS_AIT_Master_AAT\SW\0300_ApplicationLayer\branches\CL3_REL_320_3XX\0350_SWC-SET\CtApMapFusion\02_libs\CtApMapFusion.vxe:8001eeb4 00000020 W _ZN12errorhandler14QueueOdoReaderD0Ev
E:\zFAS-Jenkins\workspace\zFAS_AIT_Master_AAT\SW\0300_ApplicationLayer\branches\CL3_REL_320_3XX\0350_SWC-SET\CtApMapFusion\02_libs\CtApMapFusion.vxe:8001b650 00000010 W _ZN12errorhandler14QueueOdoReaderD1Ev
E:\zFAS-Jenkins\workspace\zFAS_AIT_Master_AAT\SW\0300_ApplicationLayer\branches\CL3_REL_320_3XX\0350_SWC-SET\CtApMapFusion\02_libs\CtApMapFusion.vxe:8004c710 00000024 W _ZN12errorhandler15QueueReaderBase25getQueueDiagInfoOfContextEPvRPN9mapfusion12ResultVectorERj
E:\zFAS-Jenkins\workspace\zFAS_AIT_Master_AAT\SW\0300_ApplicationLayer\branches\CL3_REL_320_3XX\0350_SWC-SET\CtApMapFusion\02_libs\CtApMapFusion.vxe:8004c704 0000000c W _ZN12errorhandler15QueueReaderBase28getCurrentQueueSizeOfContextEPv
E:\zFAS-Jenkins\workspace\zFAS_AIT_Master_AAT\SW\0300_ApplicationLayer\branches\CL3_REL_320_3XX\0350_SWC-SET\CtApMapFusion\02_libs\CtApMapFusion.vxe:8004cd80 00000080 T _ZN12errorhandler15QueueReaderBase9readQueueEv
E:\zFAS-Jenkins\workspace\zFAS_AIT_Master_AAT\SW\0300_ApplicationLayer\branches\CL3_REL_320_3XX\0350_SWC-SET\CtApMapFusion\02_libs\CtApMapFusion.vxe:8004cd0c 00000074 T _ZN12errorhandler15QueueReaderBaseC1EN9mapfusion17FencesAdapterNameERNS1_14MfErrorHandlerEj
E:\zFAS-Jenkins\workspace\zFAS_AIT_Master_AAT\SW\0300_ApplicationLayer\branches\CL3_REL_320_3XX\0350_SWC-SET\CtApMapFusion\02_libs\CtApMapFusion.vxe:8004cd0c 00000074 T _ZN12errorhandler15QueueReaderBaseC2EN9mapfusion17FencesAdapterNameERNS1_14MfErrorHandlerEj
E:\zFAS-Jenkins\workspace\zFAS_AIT_Master_AAT\SW\0300_ApplicationLayer\branches\CL3_REL_320_3XX\0350_SWC-SET\CtApMapFusion\02_libs\CtApMapFusion.vxe:8001ea64 00000020 W _ZN12errorhandler15QueueReaderBaseD0Ev
E:\zFAS-Jenkins\workspace\zFAS_AIT_Master_AAT\SW\0300_ApplicationLayer\branches\CL3_REL_320_3XX\0350_SWC-SET\CtApMapFusion\02_libs\CtApMapFusion.vxe:8001b338 00000010 W _ZN12errorhandler15QueueReaderBaseD1Ev
E:\zFAS-Jenkins\workspace\zFAS_AIT_Master_AAT\SW\0300_ApplicationLayer\branches\CL3_REL_320_3XX\0350_SWC-SET\CtApMapFusion\02_libs\CtApMapFusion.vxe:8004c4f0 00000214 T _ZN12errorhandler16InputHandlerZFAS10readQueuesEv
E:\zFAS-Jenkins\workspace\zFAS_AIT_Master_AAT\SW\0300_ApplicationLayer\branches\CL3_REL_320_3XX\0350_SWC-SET\CtApMapFusion\02_libs\CtApMapFusion.vxe:8004c34c 000001a4 T _ZN12errorhandler16InputHandlerZFAS16getQueueDelegateEv
E:\zFAS-Jenkins\workspace\zFAS_AIT_Master_AAT\SW\0300_ApplicationLayer\branches\CL3_REL_320_3XX\0350_SWC-SET\CtApMapFusion\02_libs\CtApMapFusion.vxe:800276c4 00000718 W _ZN12errorhandler16InputHandlerZFASC1ERN9mapfusion14MfErrorHandlerE
E:\zFAS-Jenkins\workspace\zFAS_AIT_Master_AAT\SW\0300_ApplicationLayer\branches\CL3_REL_320_3XX\0350_SWC-SET\CtApMapFusion\02_libs\CtApMapFusion.vxe:8001fbb8 000000a4 W _ZN12errorhandler16InputHandlerZFASD1Ev
E:\zFAS-Jenkins\workspace\zFAS_AIT_Master_AAT\SW\0300_ApplicationLayer\branches\CL3_REL_320_3XX\0350_SWC-SET\CtApMapFusion\02_libs\CtApMapFusion.vxe:802590d8 000002c8 T _ZN12errorhandler17OutputHandlerZFAS12initOutportsEv
E:\zFAS-Jenkins\workspace\zFAS_AIT_Master_AAT\SW\0300_ApplicationLayer\branches\CL3_REL_320_3XX\0350_SWC-SET\CtApMapFusion\02_libs\CtApMapFusion.vxe:8001b660 00000004 W _ZN12errorhandler17OutputHandlerZFASD1Ev
E:\zFAS-Jenkins\workspace\zFAS_AIT_Master_AAT\SW\0300_ApplicationLayer\branches\CL3_REL_320_3XX\0350_SWC-SET\CtApMapFusion\02_libs\CtApMapFusion.vxe:80043578 00000108 W _ZN12errorhandler17QueueFencesReaderIN9fencesapi10IFencesApiI19_Dt_RECORD_MVFences20_Dt_RECORD_MVContour19_Dt_RECORD_MVVertexLj100ELj100ELj3ELj13ENS1_28MvFencesApiAdditionalMembersEjjEENS_14EyeQMvReadFuncEE12readAndCheckEv
E:\zFAS-Jenkins\workspace\zFAS_AIT_Master_AAT\SW\0300_ApplicationLayer\branches\CL3_REL_320_3XX\0350_SWC-SET\CtApMapFusion\02_libs\CtApMapFusion.vxe:8004cba8 000000ac W _ZN12errorhandler17QueueFencesReaderIN9fencesapi10IFencesApiI19_Dt_RECORD_MVFences20_Dt_RECORD_MVContour19_Dt_RECORD_MVVertexLj100ELj100ELj3ELj13ENS1_28MvFencesApiAdditionalMembersEjjEENS_14EyeQMvReadFuncEE13getNextSampleEPvRS7_j
E:\zFAS-Jenkins\workspace\zFAS_AIT_Master_AAT\SW\0300_ApplicationLayer\branches\CL3_REL_320_3XX\0350_SWC-SET\CtApMapFusion\02_libs\CtApMapFusion.vxe:8001ef54 00000020 W _ZN12errorhandler17QueueFencesReaderIN9fencesapi10IFencesApiI19_Dt_RECORD_MVFences20_Dt_RECORD_MVContour19_Dt_RECORD_MVVertexLj100ELj100ELj3ELj13ENS1_28MvFencesApiAdditionalMembersEjjEENS_14EyeQMvReadFuncEED0Ev
E:\zFAS-Jenkins\workspace\zFAS_AIT_Master_AAT\SW\0300_ApplicationLayer\branches\CL3_REL_320_3XX\0350_SWC-SET\CtApMapFusion\02_libs\CtApMapFusion.vxe:8001b630 00000010 W _ZN12errorhandler17QueueFencesReaderIN9fencesapi10IFencesApiI19_Dt_RECORD_MVFences20_Dt_RECORD_MVContour19_Dt_RECORD_MVVertexLj100ELj100ELj3ELj13ENS1_28MvFencesApiAdditionalMembersEjjEENS_14EyeQMvReadFuncEED1Ev
E:\zFAS-Jenkins\workspace\zFAS_AIT_Master_AAT\SW\0300_ApplicationLayer\branches\CL3_REL_320_3XX\0350_SWC-SET\CtApMapFusion\02_libs\CtApMapFusion.vxe:80042c1c 00000114 W _ZN12errorhandler17QueueFencesReaderIN9fencesapi10IFencesApiI27_Dt_RECORD_LSObstacleFences28_Dt_RECORD_LSObstacleContour27_Dt_RECORD_LSObstacleVertexLj64ELj350ELj3ELj12EjjjEENS_11LsOReadFuncEE12readAndCheckEv
E:\zFAS-Jenkins\workspace\zFAS_AIT_Master_AAT\SW\0300_ApplicationLayer\branches\CL3_REL_320_3XX\0350_SWC-SET\CtApMapFusion\02_libs\CtApMapFusion.vxe:8004c88c 00000080 W _ZN12errorhandler17QueueFencesReaderIN9fencesapi10IFencesApiI27_Dt_RECORD_LSObstacleFences28_Dt_RECORD_LSObstacleContour27_Dt_RECORD_LSObstacleVertexLj64ELj350ELj3ELj12EjjjEENS_11LsOReadFuncEE13getNextSampleEPvRS6_j
E:\zFAS-Jenkins\workspace\zFAS_AIT_Master_AAT\SW\0300_ApplicationLayer\branches\CL3_REL_320_3XX\0350_SWC-SET\CtApMapFusion\02_libs\CtApMapFusion.vxe:8001ef14 00000020 W _ZN12errorhandler17QueueFencesReaderIN9fencesapi10IFencesApiI27_Dt_RECORD_LSObstacleFences28_Dt_RECORD_LSObstacleContour27_Dt_RECORD_LSObstacleVertexLj64ELj350ELj3ELj12EjjjEENS_11LsOReadFuncEED0Ev
E:\zFAS-Jenkins\workspace\zFAS_AIT_Master_AAT\SW\0300_ApplicationLayer\branches\CL3_REL_320_3XX\0350_SWC-SET\CtApMapFusion\02_libs\CtApMapFusion.vxe:8001b610 00000010 W _ZN12errorhandler17QueueFencesReaderIN9fencesapi10IFencesApiI27_Dt_RECORD_LSObstacleFences28_Dt_RECORD_LSObstacleContour27_Dt_RECORD_LSObstacleVertexLj64ELj350ELj3ELj12EjjjEENS_11LsOReadFuncEED1Ev
E:\zFAS-Jenkins\workspace\zFAS_AIT_Master_AAT\SW\0300_ApplicationLayer\branches\CL3_REL_320_3XX\0350_SWC-SET\CtApMapFusion\02_libs\CtApMapFusion.vxe:8004199c 00000108 W _ZN12errorhandler17QueueFencesReaderIN9fencesapi10IFencesApiI27_Dt_RECORD_USObstacleFences28_Dt_RECORD_USObstacleContour27_Dt_RECORD_USObstacleVertexLj24ELj48ELj3ELj12ENS1_36UsObstacleFencesApiAdditionalMembersEjtEENS_11UsOReadFuncEE12readAndCheckEv
E:\zFAS-Jenkins\workspace\zFAS_AIT_Master_AAT\SW\0300_ApplicationLayer\branches\CL3_REL_320_3XX\0350_SWC-SET\CtApMapFusion\02_libs\CtApMapFusion.vxe:8004caf0 000000b8 W _ZN12errorhandler17QueueFencesReaderIN9fencesapi10IFencesApiI27_Dt_RECORD_USObstacleFences28_Dt_RECORD_USObstacleContour27_Dt_RECORD_USObstacleVertexLj24ELj48ELj3ELj12ENS1_36UsObstacleFencesApiAdditionalMembersEjtEENS_11UsOReadFuncEE13getNextSampleEPvRS7_j
E:\zFAS-Jenkins\workspace\zFAS_AIT_Master_AAT\SW\0300_ApplicationLayer\branches\CL3_REL_320_3XX\0350_SWC-SET\CtApMapFusion\02_libs\CtApMapFusion.vxe:8001efd4 00000020 W _ZN12errorhandler17QueueFencesReaderIN9fencesapi10IFencesApiI27_Dt_RECORD_USObstacleFences28_Dt_RECORD_USObstacleContour27_Dt_RECORD_USObstacleVertexLj24ELj48ELj3ELj12ENS1_36UsObstacleFencesApiAdditionalMembersEjtEENS_11UsOReadFuncEED0Ev
E:\zFAS-Jenkins\workspace\zFAS_AIT_Master_AAT\SW\0300_ApplicationLayer\branches\CL3_REL_320_3XX\0350_SWC-SET\CtApMapFusion\02_libs\CtApMapFusion.vxe:8001b5d0 00000010 W _ZN12errorhandler17QueueFencesReaderIN9fencesapi10IFencesApiI27_Dt_RECORD_USObstacleFences28_Dt_RECORD_USObstacleContour27_Dt_RECORD_USObstacleVertexLj24ELj48ELj3ELj12ENS1_36UsObstacleFencesApiAdditionalMembersEjtEENS_11UsOReadFuncEED1Ev
E:\zFAS-Jenkins\workspace\zFAS_AIT_Master_AAT\SW\0300_ApplicationLayer\branches\CL3_REL_320_3XX\0350_SWC-SET\CtApMapFusion\02_libs\CtApMapFusion.vxe:800430c4 00000108 W _ZN12errorhandler17QueueFencesReaderIN9fencesapi10IFencesApiI28_Dt_RECORD_LRRObstacleFences29_Dt_RECORD_LRRObstacleContour28_Dt_RECORD_LRRObstacleVertexLj10ELj20ELj3ELj12EjjjEENS_11LrrReadFuncEE12readAndCheckEv
E:\zFAS-Jenkins\workspace\zFAS_AIT_Master_AAT\SW\0300_ApplicationLayer\branches\CL3_REL_320_3XX\0350_SWC-SET\CtApMapFusion\02_libs\CtApMapFusion.vxe:8004c79c 00000070 W _ZN12errorhandler17QueueFencesReaderIN9fencesapi10IFencesApiI28_Dt_RECORD_LRRObstacleFences29_Dt_RECORD_LRRObstacleContour28_Dt_RECORD_LRRObstacleVertexLj10ELj20ELj3ELj12EjjjEENS_11LrrReadFuncEE13getNextSampleEPvRS6_j
E:\zFAS-Jenkins\workspace\zFAS_AIT_Master_AAT\SW\0300_ApplicationLayer\branches\CL3_REL_320_3XX\0350_SWC-SET\CtApMapFusion\02_libs\CtApMapFusion.vxe:8001eed4 00000020 W _ZN12errorhandler17QueueFencesReaderIN9fencesapi10IFencesApiI28_Dt_RECORD_LRRObstacleFences29_Dt_RECORD_LRRObstacleContour28_Dt_RECORD_LRRObstacleVertexLj10ELj20ELj3ELj12EjjjEENS_11LrrReadFuncEED0Ev
E:\zFAS-Jenkins\workspace\zFAS_AIT_Master_AAT\SW\0300_ApplicationLayer\branches\CL3_REL_320_3XX\0350_SWC-SET\CtApMapFusion\02_libs\CtApMapFusion.vxe:8001b620 00000010 W _ZN12errorhandler17QueueFencesReaderIN9fencesapi10IFencesApiI28_Dt_RECORD_LRRObstacleFences29_Dt_RECORD_LRRObstacleContour28_Dt_RECORD_LRRObstacleVertexLj10ELj20ELj3ELj12EjjjEENS_11LrrReadFuncEED1Ev
E:\zFAS-Jenkins\workspace\zFAS_AIT_Master_AAT\SW\0300_ApplicationLayer\branches\CL3_REL_320_3XX\0350_SWC-SET\CtApMapFusion\02_libs\CtApMapFusion.vxe:80042778 00000114 W _ZN12errorhandler17QueueFencesReaderIN9fencesapi10IFencesApiI28_Dt_RECORD_LSFreespaceFences29_Dt_RECORD_LSFreespaceContour28_Dt_RECORD_LSFreespaceVertexLj64ELj350ELj1ELj1EjNS1_34ZfasLsFreespaceContourApiAddMemberEjEENS_11LsFReadFuncEE12readAndCheckEv
E:\zFAS-Jenkins\workspace\zFAS_AIT_Master_AAT\SW\0300_ApplicationLayer\branches\CL3_REL_320_3XX\0350_SWC-SET\CtApMapFusion\02_libs\CtApMapFusion.vxe:8004c80c 00000080 W _ZN12errorhandler17QueueFencesReaderIN9fencesapi10IFencesApiI28_Dt_RECORD_LSFreespaceFences29_Dt_RECORD_LSFreespaceContour28_Dt_RECORD_LSFreespaceVertexLj64ELj350ELj1ELj1EjNS1_34ZfasLsFreespaceContourApiAddMemberEjEENS_11LsFReadFuncEE13getNextSampleEPvRS7_j
E:\zFAS-Jenkins\workspace\zFAS_AIT_Master_AAT\SW\0300_ApplicationLayer\branches\CL3_REL_320_3XX\0350_SWC-SET\CtApMapFusion\02_libs\CtApMapFusion.vxe:8001eef4 00000020 W _ZN12errorhandler17QueueFencesReaderIN9fencesapi10IFencesApiI28_Dt_RECORD_LSFreespaceFences29_Dt_RECORD_LSFreespaceContour28_Dt_RECORD_LSFreespaceVertexLj64ELj350ELj1ELj1EjNS1_34ZfasLsFreespaceContourApiAddMemberEjEENS_11LsFReadFuncEED0Ev
E:\zFAS-Jenkins\workspace\zFAS_AIT_Master_AAT\SW\0300_ApplicationLayer\branches\CL3_REL_320_3XX\0350_SWC-SET\CtApMapFusion\02_libs\CtApMapFusion.vxe:8001b600 00000010 W _ZN12errorhandler17QueueFencesReaderIN9fencesapi10IFencesApiI28_Dt_RECORD_LSFreespaceFences29_Dt_RECORD_LSFreespaceContour28_Dt_RECORD_LSFreespaceVertexLj64ELj350ELj1ELj1EjNS1_34ZfasLsFreespaceContourApiAddMemberEjEENS_11LsFReadFuncEED1Ev
E:\zFAS-Jenkins\workspace\zFAS_AIT_Master_AAT\SW\0300_ApplicationLayer\branches\CL3_REL_320_3XX\0350_SWC-SET\CtApMapFusion\02_libs\CtApMapFusion.vxe:80043a14 000001a8 W _ZN12errorhandler17QueueFencesReaderIN9fencesapi10IFencesApiI28_Dt_RECORD_MRRObstacleFences29_Dt_RECORD_MRRObstacleContour28_Dt_RECORD_MRRObstacleVertexLj10ELj20ELj3ELj12EjjjEENS_11MrrReadFuncEE12readAndCheckEv
E:\zFAS-Jenkins\workspace\zFAS_AIT_Master_AAT\SW\0300_ApplicationLayer\branches\CL3_REL_320_3XX\0350_SWC-SET\CtApMapFusion\02_libs\CtApMapFusion.vxe:8004c90c 00000070 W _ZN12errorhandler17QueueFencesReaderIN9fencesapi10IFencesApiI28_Dt_RECORD_MRRObstacleFences29_Dt_RECORD_MRRObstacleContour28_Dt_RECORD_MRRObstacleVertexLj10ELj20ELj3ELj12EjjjEENS_11MrrReadFuncEE13getNextSampleEPvRS6_j
E:\zFAS-Jenkins\workspace\zFAS_AIT_Master_AAT\SW\0300_ApplicationLayer\branches\CL3_REL_320_3XX\0350_SWC-SET\CtApMapFusion\02_libs\CtApMapFusion.vxe:8001ef34 00000020 W _ZN12errorhandler17QueueFencesReaderIN9fencesapi10IFencesApiI28_Dt_RECORD_MRRObstacleFences29_Dt_RECORD_MRRObstacleContour28_Dt_RECORD_MRRObstacleVertexLj10ELj20ELj3ELj12EjjjEENS_11MrrReadFuncEED0Ev
E:\zFAS-Jenkins\workspace\zFAS_AIT_Master_AAT\SW\0300_ApplicationLayer\branches\CL3_REL_320_3XX\0350_SWC-SET\CtApMapFusion\02_libs\CtApMapFusion.vxe:8001b640 00000010 W _ZN12errorhandler17QueueFencesReaderIN9fencesapi10IFencesApiI28_Dt_RECORD_MRRObstacleFences29_Dt_RECORD_MRRObstacleContour28_Dt_RECORD_MRRObstacleVertexLj10ELj20ELj3ELj12EjjjEENS_11MrrReadFuncEED1Ev
E:\zFAS-Jenkins\workspace\zFAS_AIT_Master_AAT\SW\0300_ApplicationLayer\branches\CL3_REL_320_3XX\0350_SWC-SET\CtApMapFusion\02_libs\CtApMapFusion.vxe:80041504 00000108 W _ZN12errorhandler17QueueFencesReaderIN9fencesapi10IFencesApiI28_Dt_RECORD_USFreespaceFences29_Dt_RECORD_USFreespaceContour28_Dt_RECORD_USFreespaceVertexLj48ELj192ELj1ELj1EjjjEENS_11UsFReadFuncEE12readAndCheckEv
E:\zFAS-Jenkins\workspace\zFAS_AIT_Master_AAT\SW\0300_ApplicationLayer\branches\CL3_REL_320_3XX\0350_SWC-SET\CtApMapFusion\02_libs\CtApMapFusion.vxe:8004ca7c 00000074 W _ZN12errorhandler17QueueFencesReaderIN9fencesapi10IFencesApiI28_Dt_RECORD_USFreespaceFences29_Dt_RECORD_USFreespaceContour28_Dt_RECORD_USFreespaceVertexLj48ELj192ELj1ELj1EjjjEENS_11UsFReadFuncEE13getNextSampleEPvRS6_j
E:\zFAS-Jenkins\workspace\zFAS_AIT_Master_AAT\SW\0300_ApplicationLayer\branches\CL3_REL_320_3XX\0350_SWC-SET\CtApMapFusion\02_libs\CtApMapFusion.vxe:8001efb4 00000020 W _ZN12errorhandler17QueueFencesReaderIN9fencesapi10IFencesApiI28_Dt_RECORD_USFreespaceFences29_Dt_RECORD_USFreespaceContour28_Dt_RECORD_USFreespaceVertexLj48ELj192ELj1ELj1EjjjEENS_11UsFReadFuncEED0Ev
E:\zFAS-Jenkins\workspace\zFAS_AIT_Master_AAT\SW\0300_ApplicationLayer\branches\CL3_REL_320_3XX\0350_SWC-SET\CtApMapFusion\02_libs\CtApMapFusion.vxe:8001b5c0 00000010 W _ZN12errorhandler17QueueFencesReaderIN9fencesapi10IFencesApiI28_Dt_RECORD_USFreespaceFences29_Dt_RECORD_USFreespaceContour28_Dt_RECORD_USFreespaceVertexLj48ELj192ELj1ELj1EjjjEENS_11UsFReadFuncEED1Ev
E:\zFAS-Jenkins\workspace\zFAS_AIT_Master_AAT\SW\0300_ApplicationLayer\branches\CL3_REL_320_3XX\0350_SWC-SET\CtApMapFusion\02_libs\CtApMapFusion.vxe:800422d4 00000114 W _ZN12errorhandler17QueueFencesReaderIN9fencesapi10IFencesApiI29_Dt_RECORD_TVBVObstacleFences30_Dt_RECORD_TVBVObstacleContour29_Dt_RECORD_TVBVObstacleVertexLj64ELj200ELj3ELj12EjjjEENS_11TvOReadFuncEE12readAndCheckEv
E:\zFAS-Jenkins\workspace\zFAS_AIT_Master_AAT\SW\0300_ApplicationLayer\branches\CL3_REL_320_3XX\0350_SWC-SET\CtApMapFusion\02_libs\CtApMapFusion.vxe:8004c9fc 00000080 W _ZN12errorhandler17QueueFencesReaderIN9fencesapi10IFencesApiI29_Dt_RECORD_TVBVObstacleFences30_Dt_RECORD_TVBVObstacleContour29_Dt_RECORD_TVBVObstacleVertexLj64ELj200ELj3ELj12EjjjEENS_11TvOReadFuncEE13getNextSampleEPvRS6_j
E:\zFAS-Jenkins\workspace\zFAS_AIT_Master_AAT\SW\0300_ApplicationLayer\branches\CL3_REL_320_3XX\0350_SWC-SET\CtApMapFusion\02_libs\CtApMapFusion.vxe:8001ef94 00000020 W _ZN12errorhandler17QueueFencesReaderIN9fencesapi10IFencesApiI29_Dt_RECORD_TVBVObstacleFences30_Dt_RECORD_TVBVObstacleContour29_Dt_RECORD_TVBVObstacleVertexLj64ELj200ELj3ELj12EjjjEENS_11TvOReadFuncEED0Ev
E:\zFAS-Jenkins\workspace\zFAS_AIT_Master_AAT\SW\0300_ApplicationLayer\branches\CL3_REL_320_3XX\0350_SWC-SET\CtApMapFusion\02_libs\CtApMapFusion.vxe:8001b5f0 00000010 W _ZN12errorhandler17QueueFencesReaderIN9fencesapi10IFencesApiI29_Dt_RECORD_TVBVObstacleFences30_Dt_RECORD_TVBVObstacleContour29_Dt_RECORD_TVBVObstacleVertexLj64ELj200ELj3ELj12EjjjEENS_11TvOReadFuncEED1Ev
E:\zFAS-Jenkins\workspace\zFAS_AIT_Master_AAT\SW\0300_ApplicationLayer\branches\CL3_REL_320_3XX\0350_SWC-SET\CtApMapFusion\02_libs\CtApMapFusion.vxe:80041e30 00000114 W _ZN12errorhandler17QueueFencesReaderIN9fencesapi10IFencesApiI30_Dt_RECORD_TVBVFreespaceFences31_Dt_RECORD_TVBVFreespaceContour30_Dt_RECORD_TVBVFreespaceVertexLj128ELj440ELj1ELj1EjjjEENS_11TvFReadFuncEE12readAndCheckEv
E:\zFAS-Jenkins\workspace\zFAS_AIT_Master_AAT\SW\0300_ApplicationLayer\branches\CL3_REL_320_3XX\0350_SWC-SET\CtApMapFusion\02_libs\CtApMapFusion.vxe:8004c97c 00000080 W _ZN12errorhandler17QueueFencesReaderIN9fencesapi10IFencesApiI30_Dt_RECORD_TVBVFreespaceFences31_Dt_RECORD_TVBVFreespaceContour30_Dt_RECORD_TVBVFreespaceVertexLj128ELj440ELj1ELj1EjjjEENS_11TvFReadFuncEE13getNextSampleEPvRS6_j
E:\zFAS-Jenkins\workspace\zFAS_AIT_Master_AAT\SW\0300_ApplicationLayer\branches\CL3_REL_320_3XX\0350_SWC-SET\CtApMapFusion\02_libs\CtApMapFusion.vxe:8001ef74 00000020 W _ZN12errorhandler17QueueFencesReaderIN9fencesapi10IFencesApiI30_Dt_RECORD_TVBVFreespaceFences31_Dt_RECORD_TVBVFreespaceContour30_Dt_RECORD_TVBVFreespaceVertexLj128ELj440ELj1ELj1EjjjEENS_11TvFReadFuncEED0Ev
E:\zFAS-Jenkins\workspace\zFAS_AIT_Master_AAT\SW\0300_ApplicationLayer\branches\CL3_REL_320_3XX\0350_SWC-SET\CtApMapFusion\02_libs\CtApMapFusion.vxe:8001b5e0 00000010 W _ZN12errorhandler17QueueFencesReaderIN9fencesapi10IFencesApiI30_Dt_RECORD_TVBVFreespaceFences31_Dt_RECORD_TVBVFreespaceContour30_Dt_RECORD_TVBVFreespaceVertexLj128ELj440ELj1ELj1EjjjEENS_11TvFReadFuncEED1Ev
E:\zFAS-Jenkins\workspace\zFAS_AIT_Master_AAT\SW\0300_ApplicationLayer\branches\CL3_REL_320_3XX\0350_SWC-SET\CtApMapFusion\02_libs\CtApMapFusion.vxe:80023ffc 00000160 W _ZN12errorhandler17QueueObjectReader12readAndCheckEv
E:\zFAS-Jenkins\workspace\zFAS_AIT_Master_AAT\SW\0300_ApplicationLayer\branches\CL3_REL_320_3XX\0350_SWC-SET\CtApMapFusion\02_libs\CtApMapFusion.vxe:8004c734 00000068 W _ZN12errorhandler17QueueObjectReader13getNextSampleEPvRN9mlbevo30322MLBevoSensorObjectListEj
E:\zFAS-Jenkins\workspace\zFAS_AIT_Master_AAT\SW\0300_ApplicationLayer\branches\CL3_REL_320_3XX\0350_SWC-SET\CtApMapFusion\02_libs\CtApMapFusion.vxe:8001fb7c 0000003c W _ZN12errorhandler17QueueObjectReaderD0Ev
E:\zFAS-Jenkins\workspace\zFAS_AIT_Master_AAT\SW\0300_ApplicationLayer\branches\CL3_REL_320_3XX\0350_SWC-SET\CtApMapFusion\02_libs\CtApMapFusion.vxe:8001fb48 00000034 W _ZN12errorhandler17QueueObjectReaderD1Ev
E:\zFAS-Jenkins\workspace\zFAS_AIT_Master_AAT\SW\0300_ApplicationLayer\branches\CL3_REL_320_3XX\0350_SWC-SET\CtApMapFusion\02_libs\CtApMapFusion.vxe:8001f050 0000002c W _ZN14audifusionbase10RingBufferIjED0Ev
E:\zFAS-Jenkins\workspace\zFAS_AIT_Master_AAT\SW\0300_ApplicationLayer\branches\CL3_REL_320_3XX\0350_SWC-SET\CtApMapFusion\02_libs\CtApMapFusion.vxe:8001b464 0000001c W _ZN14audifusionbase10RingBufferIjED1Ev
E:\zFAS-Jenkins\workspace\zFAS_AIT_Master_AAT\SW\0300_ApplicationLayer\branches\CL3_REL_320_3XX\0350_SWC-SET\CtApMapFusion\02_libs\CtApMapFusion.vxe:8026e84c 0000002c W _ZN14audifusionbase10RingBufferIN9mapfusion13TriangFeatureEED0Ev
E:\zFAS-Jenkins\workspace\zFAS_AIT_Master_AAT\SW\0300_ApplicationLayer\branches\CL3_REL_320_3XX\0350_SWC-SET\CtApMapFusion\02_libs\CtApMapFusion.vxe:8026e804 0000001c W _ZN14audifusionbase10RingBufferIN9mapfusion13TriangFeatureEED1Ev
E:\zFAS-Jenkins\workspace\zFAS_AIT_Master_AAT\SW\0300_ApplicationLayer\branches\CL3_REL_320_3XX\0350_SWC-SET\CtApMapFusion\02_libs\CtApMapFusion.vxe:8001f024 0000002c W _ZN14audifusionbase10RingBufferIN9mapfusion9MfOdoDataEED0Ev
E:\zFAS-Jenkins\workspace\zFAS_AIT_Master_AAT\SW\0300_ApplicationLayer\branches\CL3_REL_320_3XX\0350_SWC-SET\CtApMapFusion\02_libs\CtApMapFusion.vxe:8001b448 0000001c W _ZN14audifusionbase10RingBufferIN9mapfusion9MfOdoDataEED1Ev
E:\zFAS-Jenkins\workspace\zFAS_AIT_Master_AAT\SW\0300_ApplicationLayer\branches\CL3_REL_320_3XX\0350_SWC-SET\CtApMapFusion\02_libs\CtApMapFusion.vxe:8026e820 0000002c W _ZN14audifusionbase16StaticRingBufferIN9mapfusion13TriangFeatureELj64EED0Ev
E:\zFAS-Jenkins\workspace\zFAS_AIT_Master_AAT\SW\0300_ApplicationLayer\branches\CL3_REL_320_3XX\0350_SWC-SET\CtApMapFusion\02_libs\CtApMapFusion.vxe:8026e7e8 0000001c W _ZN14audifusionbase16StaticRingBufferIN9mapfusion13TriangFeatureELj64EED1Ev
E:\zFAS-Jenkins\workspace\zFAS_AIT_Master_AAT\SW\0300_ApplicationLayer\branches\CL3_REL_320_3XX\0350_SWC-SET\CtApMapFusion\02_libs\CtApMapFusion.vxe:8026a87c 00000020 W _ZN14object_2fences10IValidatorD0Ev
E:\zFAS-Jenkins\workspace\zFAS_AIT_Master_AAT\SW\0300_ApplicationLayer\branches\CL3_REL_320_3XX\0350_SWC-SET\CtApMapFusion\02_libs\CtApMapFusion.vxe:8026a86c 00000010 W _ZN14object_2fences10IValidatorD1Ev
E:\zFAS-Jenkins\workspace\zFAS_AIT_Master_AAT\SW\0300_ApplicationLayer\branches\CL3_REL_320_3XX\0350_SWC-SET\CtApMapFusion\02_libs\CtApMapFusion.vxe:8026855c 00000020 W _ZN14object_2fences13IObjectFilterD0Ev
E:\zFAS-Jenkins\workspace\zFAS_AIT_Master_AAT\SW\0300_ApplicationLayer\branches\CL3_REL_320_3XX\0350_SWC-SET\CtApMapFusion\02_libs\CtApMapFusion.vxe:8026854c 00000010 W _ZN14object_2fences13IObjectFilterD1Ev
E:\zFAS-Jenkins\workspace\zFAS_AIT_Master_AAT\SW\0300_ApplicationLayer\branches\CL3_REL_320_3XX\0350_SWC-SET\CtApMapFusion\02_libs\CtApMapFusion.vxe:80266f48 00000008 T _ZN14object_2fences15ObjectConverter13setIValidatorEPNS_10IValidatorE
E:\zFAS-Jenkins\workspace\zFAS_AIT_Master_AAT\SW\0300_ApplicationLayer\branches\CL3_REL_320_3XX\0350_SWC-SET\CtApMapFusion\02_libs\CtApMapFusion.vxe:80267f5c 00000390 T _ZN14object_2fences15ObjectConverter15convertToFencesERKN9mlbevo30322MLBevoSensorObjectListERN9fencesapi10IFencesApiIN15fencesinterface17FencesLightStructENS7_7ContourENS7_6VertexELj250ELj500ELj5ELj31EjjjEE
E:\zFAS-Jenkins\workspace\zFAS_AIT_Master_AAT\SW\0300_ApplicationLayer\branches\CL3_REL_320_3XX\0350_SWC-SET\CtApMapFusion\02_libs\CtApMapFusion.vxe:80266f80 00000008 T _ZN14object_2fences15ObjectConverter17setSizeObjectListEj
E:\zFAS-Jenkins\workspace\zFAS_AIT_Master_AAT\SW\0300_ApplicationLayer\branches\CL3_REL_320_3XX\0350_SWC-SET\CtApMapFusion\02_libs\CtApMapFusion.vxe:80266f78 00000008 T _ZN14object_2fences15ObjectConverter26setPositionUncertaintyYMaxEf
E:\zFAS-Jenkins\workspace\zFAS_AIT_Master_AAT\SW\0300_ApplicationLayer\branches\CL3_REL_320_3XX\0350_SWC-SET\CtApMapFusion\02_libs\CtApMapFusion.vxe:80266f70 00000008 T _ZN14object_2fences15ObjectConverter26setPositionUncertaintyYMinEf
E:\zFAS-Jenkins\workspace\zFAS_AIT_Master_AAT\SW\0300_ApplicationLayer\branches\CL3_REL_320_3XX\0350_SWC-SET\CtApMapFusion\02_libs\CtApMapFusion.vxe:802682ec 00000010 T _ZN14object_2fences15ObjectConverter28convertTimestampToPackedTimeERKy
E:\zFAS-Jenkins\workspace\zFAS_AIT_Master_AAT\SW\0300_ApplicationLayer\branches\CL3_REL_320_3XX\0350_SWC-SET\CtApMapFusion\02_libs\CtApMapFusion.vxe:80266f68 00000008 T _ZN14object_2fences15ObjectConverter34setPositionUncertaintyXNegativeMaxEf
E:\zFAS-Jenkins\workspace\zFAS_AIT_Master_AAT\SW\0300_ApplicationLayer\branches\CL3_REL_320_3XX\0350_SWC-SET\CtApMapFusion\02_libs\CtApMapFusion.vxe:80266f60 00000008 T _ZN14object_2fences15ObjectConverter34setPositionUncertaintyXNegativeMinEf
E:\zFAS-Jenkins\workspace\zFAS_AIT_Master_AAT\SW\0300_ApplicationLayer\branches\CL3_REL_320_3XX\0350_SWC-SET\CtApMapFusion\02_libs\CtApMapFusion.vxe:80266f58 00000008 T _ZN14object_2fences15ObjectConverter34setPositionUncertaintyXPositiveMaxEf
E:\zFAS-Jenkins\workspace\zFAS_AIT_Master_AAT\SW\0300_ApplicationLayer\branches\CL3_REL_320_3XX\0350_SWC-SET\CtApMapFusion\02_libs\CtApMapFusion.vxe:80266f50 00000008 T _ZN14object_2fences15ObjectConverter34setPositionUncertaintyXPositiveMinEf
E:\zFAS-Jenkins\workspace\zFAS_AIT_Master_AAT\SW\0300_ApplicationLayer\branches\CL3_REL_320_3XX\0350_SWC-SET\CtApMapFusion\02_libs\CtApMapFusion.vxe:80266fb8 00000a58 T _ZN14object_2fences15ObjectConverter8initByDSEv
E:\zFAS-Jenkins\workspace\zFAS_AIT_Master_AAT\SW\0300_ApplicationLayer\branches\CL3_REL_320_3XX\0350_SWC-SET\CtApMapFusion\02_libs\CtApMapFusion.vxe:80266f90 00000008 T _ZN14object_2fences15ObjectConverter8setWidthEf
E:\zFAS-Jenkins\workspace\zFAS_AIT_Master_AAT\SW\0300_ApplicationLayer\branches\CL3_REL_320_3XX\0350_SWC-SET\CtApMapFusion\02_libs\CtApMapFusion.vxe:80266f88 00000008 T _ZN14object_2fences15ObjectConverter9setLengthEf
E:\zFAS-Jenkins\workspace\zFAS_AIT_Master_AAT\SW\0300_ApplicationLayer\branches\CL3_REL_320_3XX\0350_SWC-SET\CtApMapFusion\02_libs\CtApMapFusion.vxe:80267a10 00000040 T _ZN14object_2fences15ObjectConverterC1Ev
E:\zFAS-Jenkins\workspace\zFAS_AIT_Master_AAT\SW\0300_ApplicationLayer\branches\CL3_REL_320_3XX\0350_SWC-SET\CtApMapFusion\02_libs\CtApMapFusion.vxe:80267a10 00000040 T _ZN14object_2fences15ObjectConverterC2Ev
E:\zFAS-Jenkins\workspace\zFAS_AIT_Master_AAT\SW\0300_ApplicationLayer\branches\CL3_REL_320_3XX\0350_SWC-SET\CtApMapFusion\02_libs\CtApMapFusion.vxe:80266f98 00000020 T _ZN14object_2fences15ObjectConverterD0Ev
E:\zFAS-Jenkins\workspace\zFAS_AIT_Master_AAT\SW\0300_ApplicationLayer\branches\CL3_REL_320_3XX\0350_SWC-SET\CtApMapFusion\02_libs\CtApMapFusion.vxe:80266f38 00000010 T _ZN14object_2fences15ObjectConverterD1Ev
E:\zFAS-Jenkins\workspace\zFAS_AIT_Master_AAT\SW\0300_ApplicationLayer\branches\CL3_REL_320_3XX\0350_SWC-SET\CtApMapFusion\02_libs\CtApMapFusion.vxe:80266f38 00000010 T _ZN14object_2fences15ObjectConverterD2Ev
E:\zFAS-Jenkins\workspace\zFAS_AIT_Master_AAT\SW\0300_ApplicationLayer\branches\CL3_REL_320_3XX\0350_SWC-SET\CtApMapFusion\02_libs\CtApMapFusion.vxe:80269fdc 00000008 T _ZN14object_2fences15ObjectFilterRoi14setAllowedMaxXEf
E:\zFAS-Jenkins\workspace\zFAS_AIT_Master_AAT\SW\0300_ApplicationLayer\branches\CL3_REL_320_3XX\0350_SWC-SET\CtApMapFusion\02_libs\CtApMapFusion.vxe:80269fec 00000008 T _ZN14object_2fences15ObjectFilterRoi14setAllowedMaxYEf
E:\zFAS-Jenkins\workspace\zFAS_AIT_Master_AAT\SW\0300_ApplicationLayer\branches\CL3_REL_320_3XX\0350_SWC-SET\CtApMapFusion\02_libs\CtApMapFusion.vxe:80269fe4 00000008 T _ZN14object_2fences15ObjectFilterRoi14setAllowedMinXEf
E:\zFAS-Jenkins\workspace\zFAS_AIT_Master_AAT\SW\0300_ApplicationLayer\branches\CL3_REL_320_3XX\0350_SWC-SET\CtApMapFusion\02_libs\CtApMapFusion.vxe:80269ff4 00000008 T _ZN14object_2fences15ObjectFilterRoi14setAllowedMinYEf
E:\zFAS-Jenkins\workspace\zFAS_AIT_Master_AAT\SW\0300_ApplicationLayer\branches\CL3_REL_320_3XX\0350_SWC-SET\CtApMapFusion\02_libs\CtApMapFusion.vxe:80269ae0 000004d0 T _ZN14object_2fences15ObjectFilterRoi8initByDSEv
E:\zFAS-Jenkins\workspace\zFAS_AIT_Master_AAT\SW\0300_ApplicationLayer\branches\CL3_REL_320_3XX\0350_SWC-SET\CtApMapFusion\02_libs\CtApMapFusion.vxe:80269ab8 00000008 T _ZN14object_2fences15ObjectFilterRoi9setActiveEb
E:\zFAS-Jenkins\workspace\zFAS_AIT_Master_AAT\SW\0300_ApplicationLayer\branches\CL3_REL_320_3XX\0350_SWC-SET\CtApMapFusion\02_libs\CtApMapFusion.vxe:80269fb0 0000002c T _ZN14object_2fences15ObjectFilterRoiC1Ev
E:\zFAS-Jenkins\workspace\zFAS_AIT_Master_AAT\SW\0300_ApplicationLayer\branches\CL3_REL_320_3XX\0350_SWC-SET\CtApMapFusion\02_libs\CtApMapFusion.vxe:80269fb0 0000002c T _ZN14object_2fences15ObjectFilterRoiC2Ev
E:\zFAS-Jenkins\workspace\zFAS_AIT_Master_AAT\SW\0300_ApplicationLayer\branches\CL3_REL_320_3XX\0350_SWC-SET\CtApMapFusion\02_libs\CtApMapFusion.vxe:80269ac0 00000020 T _ZN14object_2fences15ObjectFilterRoiD0Ev
E:\zFAS-Jenkins\workspace\zFAS_AIT_Master_AAT\SW\0300_ApplicationLayer\branches\CL3_REL_320_3XX\0350_SWC-SET\CtApMapFusion\02_libs\CtApMapFusion.vxe:80269aa8 00000010 T _ZN14object_2fences15ObjectFilterRoiD1Ev
E:\zFAS-Jenkins\workspace\zFAS_AIT_Master_AAT\SW\0300_ApplicationLayer\branches\CL3_REL_320_3XX\0350_SWC-SET\CtApMapFusion\02_libs\CtApMapFusion.vxe:80269aa8 00000010 T _ZN14object_2fences15ObjectFilterRoiD2Ev
E:\zFAS-Jenkins\workspace\zFAS_AIT_Master_AAT\SW\0300_ApplicationLayer\branches\CL3_REL_320_3XX\0350_SWC-SET\CtApMapFusion\02_libs\CtApMapFusion.vxe:80268310 00000020 W _ZN14object_2fences16IObjectConverterD0Ev
E:\zFAS-Jenkins\workspace\zFAS_AIT_Master_AAT\SW\0300_ApplicationLayer\branches\CL3_REL_320_3XX\0350_SWC-SET\CtApMapFusion\02_libs\CtApMapFusion.vxe:80268300 00000010 W _ZN14object_2fences16IObjectConverterD1Ev
E:\zFAS-Jenkins\workspace\zFAS_AIT_Master_AAT\SW\0300_ApplicationLayer\branches\CL3_REL_320_3XX\0350_SWC-SET\CtApMapFusion\02_libs\CtApMapFusion.vxe:80268ba8 00000efc W _ZN14object_2fences18ObjectQualityClass6fromDSERN9mapfusion10ResultTypeE
E:\zFAS-Jenkins\workspace\zFAS_AIT_Master_AAT\SW\0300_ApplicationLayer\branches\CL3_REL_320_3XX\0350_SWC-SET\CtApMapFusion\02_libs\CtApMapFusion.vxe:8026a764 00000008 T _ZN14object_2fences20ObjectFilterVelocity22setAllowedVelocityXMaxEf
E:\zFAS-Jenkins\workspace\zFAS_AIT_Master_AAT\SW\0300_ApplicationLayer\branches\CL3_REL_320_3XX\0350_SWC-SET\CtApMapFusion\02_libs\CtApMapFusion.vxe:8026a75c 00000008 T _ZN14object_2fences20ObjectFilterVelocity22setAllowedVelocityXMinEf
E:\zFAS-Jenkins\workspace\zFAS_AIT_Master_AAT\SW\0300_ApplicationLayer\branches\CL3_REL_320_3XX\0350_SWC-SET\CtApMapFusion\02_libs\CtApMapFusion.vxe:8026a4a4 00000294 T _ZN14object_2fences20ObjectFilterVelocity8initByDSEv
E:\zFAS-Jenkins\workspace\zFAS_AIT_Master_AAT\SW\0300_ApplicationLayer\branches\CL3_REL_320_3XX\0350_SWC-SET\CtApMapFusion\02_libs\CtApMapFusion.vxe:8026a420 00000008 T _ZN14object_2fences20ObjectFilterVelocity9setActiveEb
E:\zFAS-Jenkins\workspace\zFAS_AIT_Master_AAT\SW\0300_ApplicationLayer\branches\CL3_REL_320_3XX\0350_SWC-SET\CtApMapFusion\02_libs\CtApMapFusion.vxe:8026a738 00000024 T _ZN14object_2fences20ObjectFilterVelocityC1Ev
E:\zFAS-Jenkins\workspace\zFAS_AIT_Master_AAT\SW\0300_ApplicationLayer\branches\CL3_REL_320_3XX\0350_SWC-SET\CtApMapFusion\02_libs\CtApMapFusion.vxe:8026a738 00000024 T _ZN14object_2fences20ObjectFilterVelocityC2Ev
E:\zFAS-Jenkins\workspace\zFAS_AIT_Master_AAT\SW\0300_ApplicationLayer\branches\CL3_REL_320_3XX\0350_SWC-SET\CtApMapFusion\02_libs\CtApMapFusion.vxe:8026a428 00000020 T _ZN14object_2fences20ObjectFilterVelocityD0Ev
E:\zFAS-Jenkins\workspace\zFAS_AIT_Master_AAT\SW\0300_ApplicationLayer\branches\CL3_REL_320_3XX\0350_SWC-SET\CtApMapFusion\02_libs\CtApMapFusion.vxe:8026a410 00000010 T _ZN14object_2fences20ObjectFilterVelocityD1Ev
E:\zFAS-Jenkins\workspace\zFAS_AIT_Master_AAT\SW\0300_ApplicationLayer\branches\CL3_REL_320_3XX\0350_SWC-SET\CtApMapFusion\02_libs\CtApMapFusion.vxe:8026a410 00000010 T _ZN14object_2fences20ObjectFilterVelocityD2Ev
E:\zFAS-Jenkins\workspace\zFAS_AIT_Master_AAT\SW\0300_ApplicationLayer\branches\CL3_REL_320_3XX\0350_SWC-SET\CtApMapFusion\02_libs\CtApMapFusion.vxe:802688c4 00000008 T _ZN14object_2fences22ObjectFilterConfidence22setThresholdClassTrustEf
E:\zFAS-Jenkins\workspace\zFAS_AIT_Master_AAT\SW\0300_ApplicationLayer\branches\CL3_REL_320_3XX\0350_SWC-SET\CtApMapFusion\02_libs\CtApMapFusion.vxe:802688cc 00000008 T _ZN14object_2fences22ObjectFilterConfidence24setThresholdPlausibilityEf
E:\zFAS-Jenkins\workspace\zFAS_AIT_Master_AAT\SW\0300_ApplicationLayer\branches\CL3_REL_320_3XX\0350_SWC-SET\CtApMapFusion\02_libs\CtApMapFusion.vxe:8026860c 00000294 T _ZN14object_2fences22ObjectFilterConfidence8initByDSEv
E:\zFAS-Jenkins\workspace\zFAS_AIT_Master_AAT\SW\0300_ApplicationLayer\branches\CL3_REL_320_3XX\0350_SWC-SET\CtApMapFusion\02_libs\CtApMapFusion.vxe:8026858c 00000008 T _ZN14object_2fences22ObjectFilterConfidence9setActiveEb
E:\zFAS-Jenkins\workspace\zFAS_AIT_Master_AAT\SW\0300_ApplicationLayer\branches\CL3_REL_320_3XX\0350_SWC-SET\CtApMapFusion\02_libs\CtApMapFusion.vxe:802688a0 00000024 T _ZN14object_2fences22ObjectFilterConfidenceC1Ev
E:\zFAS-Jenkins\workspace\zFAS_AIT_Master_AAT\SW\0300_ApplicationLayer\branches\CL3_REL_320_3XX\0350_SWC-SET\CtApMapFusion\02_libs\CtApMapFusion.vxe:802688a0 00000024 T _ZN14object_2fences22ObjectFilterConfidenceC2Ev
E:\zFAS-Jenkins\workspace\zFAS_AIT_Master_AAT\SW\0300_ApplicationLayer\branches\CL3_REL_320_3XX\0350_SWC-SET\CtApMapFusion\02_libs\CtApMapFusion.vxe:80268594 00000020 T _ZN14object_2fences22ObjectFilterConfidenceD0Ev
E:\zFAS-Jenkins\workspace\zFAS_AIT_Master_AAT\SW\0300_ApplicationLayer\branches\CL3_REL_320_3XX\0350_SWC-SET\CtApMapFusion\02_libs\CtApMapFusion.vxe:8026857c 00000010 T _ZN14object_2fences22ObjectFilterConfidenceD1Ev
E:\zFAS-Jenkins\workspace\zFAS_AIT_Master_AAT\SW\0300_ApplicationLayer\branches\CL3_REL_320_3XX\0350_SWC-SET\CtApMapFusion\02_libs\CtApMapFusion.vxe:8026857c 00000010 T _ZN14object_2fences22ObjectFilterConfidenceD2Ev
E:\zFAS-Jenkins\workspace\zFAS_AIT_Master_AAT\SW\0300_ApplicationLayer\branches\CL3_REL_320_3XX\0350_SWC-SET\CtApMapFusion\02_libs\CtApMapFusion.vxe:802689b4 0000002c T _ZN14object_2fences24ObjectFilterQualityClass17setAllowedQualityERKNS_18ObjectQualityClassE
E:\zFAS-Jenkins\workspace\zFAS_AIT_Master_AAT\SW\0300_ApplicationLayer\branches\CL3_REL_320_3XX\0350_SWC-SET\CtApMapFusion\02_libs\CtApMapFusion.vxe:8026890c 00000058 T _ZN14object_2fences24ObjectFilterQualityClass8initByDSEv
E:\zFAS-Jenkins\workspace\zFAS_AIT_Master_AAT\SW\0300_ApplicationLayer\branches\CL3_REL_320_3XX\0350_SWC-SET\CtApMapFusion\02_libs\CtApMapFusion.vxe:802688e4 00000008 T _ZN14object_2fences24ObjectFilterQualityClass9setActiveEb
E:\zFAS-Jenkins\workspace\zFAS_AIT_Master_AAT\SW\0300_ApplicationLayer\branches\CL3_REL_320_3XX\0350_SWC-SET\CtApMapFusion\02_libs\CtApMapFusion.vxe:80268964 00000050 T _ZN14object_2fences24ObjectFilterQualityClassC1Ev
E:\zFAS-Jenkins\workspace\zFAS_AIT_Master_AAT\SW\0300_ApplicationLayer\branches\CL3_REL_320_3XX\0350_SWC-SET\CtApMapFusion\02_libs\CtApMapFusion.vxe:80268964 00000050 T _ZN14object_2fences24ObjectFilterQualityClassC2Ev
E:\zFAS-Jenkins\workspace\zFAS_AIT_Master_AAT\SW\0300_ApplicationLayer\branches\CL3_REL_320_3XX\0350_SWC-SET\CtApMapFusion\02_libs\CtApMapFusion.vxe:802688ec 00000020 T _ZN14object_2fences24ObjectFilterQualityClassD0Ev
E:\zFAS-Jenkins\workspace\zFAS_AIT_Master_AAT\SW\0300_ApplicationLayer\branches\CL3_REL_320_3XX\0350_SWC-SET\CtApMapFusion\02_libs\CtApMapFusion.vxe:802688d4 00000010 T _ZN14object_2fences24ObjectFilterQualityClassD1Ev
E:\zFAS-Jenkins\workspace\zFAS_AIT_Master_AAT\SW\0300_ApplicationLayer\branches\CL3_REL_320_3XX\0350_SWC-SET\CtApMapFusion\02_libs\CtApMapFusion.vxe:802688d4 00000010 T _ZN14object_2fences24ObjectFilterQualityClassD2Ev
E:\zFAS-Jenkins\workspace\zFAS_AIT_Master_AAT\SW\0300_ApplicationLayer\branches\CL3_REL_320_3XX\0350_SWC-SET\CtApMapFusion\02_libs\CtApMapFusion.vxe:80268540 0000000c T _ZN14object_2fences26ObjectFilterClassification17setAllowedObjectsERKNS_11ObjectClassE
E:\zFAS-Jenkins\workspace\zFAS_AIT_Master_AAT\SW\0300_ApplicationLayer\branches\CL3_REL_320_3XX\0350_SWC-SET\CtApMapFusion\02_libs\CtApMapFusion.vxe:80268368 0000016c T _ZN14object_2fences26ObjectFilterClassification8initByDSEv
E:\zFAS-Jenkins\workspace\zFAS_AIT_Master_AAT\SW\0300_ApplicationLayer\branches\CL3_REL_320_3XX\0350_SWC-SET\CtApMapFusion\02_libs\CtApMapFusion.vxe:80268340 00000008 T _ZN14object_2fences26ObjectFilterClassification9setActiveEb
E:\zFAS-Jenkins\workspace\zFAS_AIT_Master_AAT\SW\0300_ApplicationLayer\branches\CL3_REL_320_3XX\0350_SWC-SET\CtApMapFusion\02_libs\CtApMapFusion.vxe:80268520 00000020 T _ZN14object_2fences26ObjectFilterClassificationC1Ev
E:\zFAS-Jenkins\workspace\zFAS_AIT_Master_AAT\SW\0300_ApplicationLayer\branches\CL3_REL_320_3XX\0350_SWC-SET\CtApMapFusion\02_libs\CtApMapFusion.vxe:80268520 00000020 T _ZN14object_2fences26ObjectFilterClassificationC2Ev
E:\zFAS-Jenkins\workspace\zFAS_AIT_Master_AAT\SW\0300_ApplicationLayer\branches\CL3_REL_320_3XX\0350_SWC-SET\CtApMapFusion\02_libs\CtApMapFusion.vxe:80268348 00000020 T _ZN14object_2fences26ObjectFilterClassificationD0Ev
E:\zFAS-Jenkins\workspace\zFAS_AIT_Master_AAT\SW\0300_ApplicationLayer\branches\CL3_REL_320_3XX\0350_SWC-SET\CtApMapFusion\02_libs\CtApMapFusion.vxe:80268330 00000010 T _ZN14object_2fences26ObjectFilterClassificationD1Ev
E:\zFAS-Jenkins\workspace\zFAS_AIT_Master_AAT\SW\0300_ApplicationLayer\branches\CL3_REL_320_3XX\0350_SWC-SET\CtApMapFusion\02_libs\CtApMapFusion.vxe:80268330 00000010 T _ZN14object_2fences26ObjectFilterClassificationD2Ev
E:\zFAS-Jenkins\workspace\zFAS_AIT_Master_AAT\SW\0300_ApplicationLayer\branches\CL3_REL_320_3XX\0350_SWC-SET\CtApMapFusion\02_libs\CtApMapFusion.vxe:8026a77c 00000074 T _ZN14object_2fences9Validator13isLegalObjectERNS_12MLBevoObjectE
E:\zFAS-Jenkins\workspace\zFAS_AIT_Master_AAT\SW\0300_ApplicationLayer\branches\CL3_REL_320_3XX\0350_SWC-SET\CtApMapFusion\02_libs\CtApMapFusion.vxe:8026a7f0 0000001c T _ZN14object_2fences9Validator9addFilterEPNS_13IObjectFilterE
E:\zFAS-Jenkins\workspace\zFAS_AIT_Master_AAT\SW\0300_ApplicationLayer\branches\CL3_REL_320_3XX\0350_SWC-SET\CtApMapFusion\02_libs\CtApMapFusion.vxe:8026a82c 00000040 T _ZN14object_2fences9ValidatorC1Ev
E:\zFAS-Jenkins\workspace\zFAS_AIT_Master_AAT\SW\0300_ApplicationLayer\branches\CL3_REL_320_3XX\0350_SWC-SET\CtApMapFusion\02_libs\CtApMapFusion.vxe:8026a82c 00000040 T _ZN14object_2fences9ValidatorC2Ev
E:\zFAS-Jenkins\workspace\zFAS_AIT_Master_AAT\SW\0300_ApplicationLayer\branches\CL3_REL_320_3XX\0350_SWC-SET\CtApMapFusion\02_libs\CtApMapFusion.vxe:8026a80c 00000020 T _ZN14object_2fences9ValidatorD0Ev
E:\zFAS-Jenkins\workspace\zFAS_AIT_Master_AAT\SW\0300_ApplicationLayer\branches\CL3_REL_320_3XX\0350_SWC-SET\CtApMapFusion\02_libs\CtApMapFusion.vxe:8026a76c 00000010 T _ZN14object_2fences9ValidatorD1Ev
E:\zFAS-Jenkins\workspace\zFAS_AIT_Master_AAT\SW\0300_ApplicationLayer\branches\CL3_REL_320_3XX\0350_SWC-SET\CtApMapFusion\02_libs\CtApMapFusion.vxe:8026a76c 00000010 T _ZN14object_2fences9ValidatorD2Ev
E:\zFAS-Jenkins\workspace\zFAS_AIT_Master_AAT\SW\0300_ApplicationLayer\branches\CL3_REL_320_3XX\0350_SWC-SET\CtApMapFusion\02_libs\CtApMapFusion.vxe:8027e5e0 00000024 T _ZN28zfas_object_to_mlbevo_object19ZFASObjectConverter18convertObjectClassEh
E:\zFAS-Jenkins\workspace\zFAS_AIT_Master_AAT\SW\0300_ApplicationLayer\branches\CL3_REL_320_3XX\0350_SWC-SET\CtApMapFusion\02_libs\CtApMapFusion.vxe:8027e5c0 00000020 T _ZN28zfas_object_to_mlbevo_object19ZFASObjectConverterD0Ev
E:\zFAS-Jenkins\workspace\zFAS_AIT_Master_AAT\SW\0300_ApplicationLayer\branches\CL3_REL_320_3XX\0350_SWC-SET\CtApMapFusion\02_libs\CtApMapFusion.vxe:8027e44c 00000010 T _ZN28zfas_object_to_mlbevo_object19ZFASObjectConverterD1Ev
E:\zFAS-Jenkins\workspace\zFAS_AIT_Master_AAT\SW\0300_ApplicationLayer\branches\CL3_REL_320_3XX\0350_SWC-SET\CtApMapFusion\02_libs\CtApMapFusion.vxe:8027e44c 00000010 T _ZN28zfas_object_to_mlbevo_object19ZFASObjectConverterD2Ev
E:\zFAS-Jenkins\workspace\zFAS_AIT_Master_AAT\SW\0300_ApplicationLayer\branches\CL3_REL_320_3XX\0350_SWC-SET\CtApMapFusion\02_libs\CtApMapFusion.vxe:8001ea84 00000020 W _ZN28zfas_object_to_mlbevo_object20IZFASObjectConverterD0Ev
E:\zFAS-Jenkins\workspace\zFAS_AIT_Master_AAT\SW\0300_ApplicationLayer\branches\CL3_REL_320_3XX\0350_SWC-SET\CtApMapFusion\02_libs\CtApMapFusion.vxe:8001b348 00000010 W _ZN28zfas_object_to_mlbevo_object20IZFASObjectConverterD1Ev
E:\zFAS-Jenkins\workspace\zFAS_AIT_Master_AAT\SW\0300_ApplicationLayer\branches\CL3_REL_320_3XX\0350_SWC-SET\CtApMapFusion\02_libs\CtApMapFusion.vxe:8027f020 00000038 T _ZN3afb5Crc3210reflectU32Ej
E:\zFAS-Jenkins\workspace\zFAS_AIT_Master_AAT\SW\0300_ApplicationLayer\branches\CL3_REL_320_3XX\0350_SWC-SET\CtApMapFusion\02_libs\CtApMapFusion.vxe:802c8430 00000400 R _ZN3afb5Crc324lut_E
E:\zFAS-Jenkins\workspace\zFAS_AIT_Master_AAT\SW\0300_ApplicationLayer\branches\CL3_REL_320_3XX\0350_SWC-SET\CtApMapFusion\02_libs\CtApMapFusion.vxe:8027ef74 000000ac T _ZN3afb5Crc327computeEPKhj
E:\zFAS-Jenkins\workspace\zFAS_AIT_Master_AAT\SW\0300_ApplicationLayer\branches\CL3_REL_320_3XX\0350_SWC-SET\CtApMapFusion\02_libs\CtApMapFusion.vxe:8027f058 0000003c T _ZN3afb5Crc329reflectU8Eh
E:\zFAS-Jenkins\workspace\zFAS_AIT_Master_AAT\SW\0300_ApplicationLayer\branches\CL3_REL_320_3XX\0350_SWC-SET\CtApMapFusion\02_libs\CtApMapFusion.vxe:8004eb78 00000020 W _ZN4diag10IDiagnosisD0Ev
E:\zFAS-Jenkins\workspace\zFAS_AIT_Master_AAT\SW\0300_ApplicationLayer\branches\CL3_REL_320_3XX\0350_SWC-SET\CtApMapFusion\02_libs\CtApMapFusion.vxe:8004eb38 00000010 W _ZN4diag10IDiagnosisD1Ev
E:\zFAS-Jenkins\workspace\zFAS_AIT_Master_AAT\SW\0300_ApplicationLayer\branches\CL3_REL_320_3XX\0350_SWC-SET\CtApMapFusion\02_libs\CtApMapFusion.vxe:8025f500 00000078 T _ZN4diag15DiagnosisServer10addBackendEPNS_17IDiagnosisBackendEj
E:\zFAS-Jenkins\workspace\zFAS_AIT_Master_AAT\SW\0300_ApplicationLayer\branches\CL3_REL_320_3XX\0350_SWC-SET\CtApMapFusion\02_libs\CtApMapFusion.vxe:8025fdc4 000000f8 T _ZN4diag15DiagnosisServer10reportVoidEjjjjPvjPKc
E:\zFAS-Jenkins\workspace\zFAS_AIT_Master_AAT\SW\0300_ApplicationLayer\branches\CL3_REL_320_3XX\0350_SWC-SET\CtApMapFusion\02_libs\CtApMapFusion.vxe:80260554 000000c0 T _ZN4diag15DiagnosisServer10requestIntEjjPjS1_PiPKc
E:\zFAS-Jenkins\workspace\zFAS_AIT_Master_AAT\SW\0300_ApplicationLayer\branches\CL3_REL_320_3XX\0350_SWC-SET\CtApMapFusion\02_libs\CtApMapFusion.vxe:8025fcd4 000000f0 T _ZN4diag15DiagnosisServer11reportFloatEjjjjfPKc
E:\zFAS-Jenkins\workspace\zFAS_AIT_Master_AAT\SW\0300_ApplicationLayer\branches\CL3_REL_320_3XX\0350_SWC-SET\CtApMapFusion\02_libs\CtApMapFusion.vxe:8025fbd4 00000100 T _ZN4diag15DiagnosisServer11reportUint8EjjjjhPKc
E:\zFAS-Jenkins\workspace\zFAS_AIT_Master_AAT\SW\0300_ApplicationLayer\branches\CL3_REL_320_3XX\0350_SWC-SET\CtApMapFusion\02_libs\CtApMapFusion.vxe:80260794 000000d4 T _ZN4diag15DiagnosisServer11requestVoidEjjPjS1_PPvS1_PKc
E:\zFAS-Jenkins\workspace\zFAS_AIT_Master_AAT\SW\0300_ApplicationLayer\branches\CL3_REL_320_3XX\0350_SWC-SET\CtApMapFusion\02_libs\CtApMapFusion.vxe:8025f464 00000024 T _ZN4diag15DiagnosisServer12getEntryByIdEj
E:\zFAS-Jenkins\workspace\zFAS_AIT_Master_AAT\SW\0300_ApplicationLayer\branches\CL3_REL_320_3XX\0350_SWC-SET\CtApMapFusion\02_libs\CtApMapFusion.vxe:8025f744 000001d4 T _ZN4diag15DiagnosisServer12reportsStatsEv
E:\zFAS-Jenkins\workspace\zFAS_AIT_Master_AAT\SW\0300_ApplicationLayer\branches\CL3_REL_320_3XX\0350_SWC-SET\CtApMapFusion\02_libs\CtApMapFusion.vxe:802606d4 000000c0 T _ZN4diag15DiagnosisServer12requestFloatEjjPjS1_PfPKc
E:\zFAS-Jenkins\workspace\zFAS_AIT_Master_AAT\SW\0300_ApplicationLayer\branches\CL3_REL_320_3XX\0350_SWC-SET\CtApMapFusion\02_libs\CtApMapFusion.vxe:80260614 000000c0 T _ZN4diag15DiagnosisServer12requestUint8EjjPjS1_PhPKc
E:\zFAS-Jenkins\workspace\zFAS_AIT_Master_AAT\SW\0300_ApplicationLayer\branches\CL3_REL_320_3XX\0350_SWC-SET\CtApMapFusion\02_libs\CtApMapFusion.vxe:8026120c 00000020 T _ZN4diag15DiagnosisServer12resolveEntryEjPKc
E:\zFAS-Jenkins\workspace\zFAS_AIT_Master_AAT\SW\0300_ApplicationLayer\branches\CL3_REL_320_3XX\0350_SWC-SET\CtApMapFusion\02_libs\CtApMapFusion.vxe:8025f578 000000a4 T _ZN4diag15DiagnosisServer13removeBackendEPNS_17IDiagnosisBackendEj
E:\zFAS-Jenkins\workspace\zFAS_AIT_Master_AAT\SW\0300_ApplicationLayer\branches\CL3_REL_320_3XX\0350_SWC-SET\CtApMapFusion\02_libs\CtApMapFusion.vxe:8025f918 000000a0 T _ZN4diag15DiagnosisServer13reportBucketsEv
E:\zFAS-Jenkins\workspace\zFAS_AIT_Master_AAT\SW\0300_ApplicationLayer\branches\CL3_REL_320_3XX\0350_SWC-SET\CtApMapFusion\02_libs\CtApMapFusion.vxe:8025f4f0 00000010 T _ZN4diag15DiagnosisServer13setReportTimeEj
E:\zFAS-Jenkins\workspace\zFAS_AIT_Master_AAT\SW\0300_ApplicationLayer\branches\CL3_REL_320_3XX\0350_SWC-SET\CtApMapFusion\02_libs\CtApMapFusion.vxe:8025f488 00000068 T _ZN4diag15DiagnosisServer14getEntryByHashEj
E:\zFAS-Jenkins\workspace\zFAS_AIT_Master_AAT\SW\0300_ApplicationLayer\branches\CL3_REL_320_3XX\0350_SWC-SET\CtApMapFusion\02_libs\CtApMapFusion.vxe:802600e0 0000000c T _ZN4diag15DiagnosisServer14reportIntArrayEjjjjPKijPKc
E:\zFAS-Jenkins\workspace\zFAS_AIT_Master_AAT\SW\0300_ApplicationLayer\branches\CL3_REL_320_3XX\0350_SWC-SET\CtApMapFusion\02_libs\CtApMapFusion.vxe:80260df8 000000d0 T _ZN4diag15DiagnosisServer14strAppendIndexEPcPKcjj
E:\zFAS-Jenkins\workspace\zFAS_AIT_Master_AAT\SW\0300_ApplicationLayer\branches\CL3_REL_320_3XX\0350_SWC-SET\CtApMapFusion\02_libs\CtApMapFusion.vxe:80260868 00000198 T _ZN4diag15DiagnosisServer15requestIntArrayEjjPjS1_PijPKc
E:\zFAS-Jenkins\workspace\zFAS_AIT_Master_AAT\SW\0300_ApplicationLayer\branches\CL3_REL_320_3XX\0350_SWC-SET\CtApMapFusion\02_libs\CtApMapFusion.vxe:8025febc 00000224 T _ZN4diag15DiagnosisServer16reportFloatArrayEjjjjPKfjPKc
E:\zFAS-Jenkins\workspace\zFAS_AIT_Master_AAT\SW\0300_ApplicationLayer\branches\CL3_REL_320_3XX\0350_SWC-SET\CtApMapFusion\02_libs\CtApMapFusion.vxe:802600ec 0000000c T _ZN4diag15DiagnosisServer16reportUint8ArrayEjjjjPKhjPKc
E:\zFAS-Jenkins\workspace\zFAS_AIT_Master_AAT\SW\0300_ApplicationLayer\branches\CL3_REL_320_3XX\0350_SWC-SET\CtApMapFusion\02_libs\CtApMapFusion.vxe:80260b94 00000194 T _ZN4diag15DiagnosisServer17requestFloatArrayEjjPjS1_PfjPKc
E:\zFAS-Jenkins\workspace\zFAS_AIT_Master_AAT\SW\0300_ApplicationLayer\branches\CL3_REL_320_3XX\0350_SWC-SET\CtApMapFusion\02_libs\CtApMapFusion.vxe:80260a00 00000194 T _ZN4diag15DiagnosisServer17requestUint8ArrayEjjPjS1_PhjPKc
E:\zFAS-Jenkins\workspace\zFAS_AIT_Master_AAT\SW\0300_ApplicationLayer\branches\CL3_REL_320_3XX\0350_SWC-SET\CtApMapFusion\02_libs\CtApMapFusion.vxe:8026032c 00000228 W _ZN4diag15DiagnosisServer18reportIntArrayImplIhLj8EEEjjjjjPKT_jPKc
E:\zFAS-Jenkins\workspace\zFAS_AIT_Master_AAT\SW\0300_ApplicationLayer\branches\CL3_REL_320_3XX\0350_SWC-SET\CtApMapFusion\02_libs\CtApMapFusion.vxe:802600f8 00000234 W _ZN4diag15DiagnosisServer18reportIntArrayImplIiLj1EEEjjjjjPKT_jPKc
E:\zFAS-Jenkins\workspace\zFAS_AIT_Master_AAT\SW\0300_ApplicationLayer\branches\CL3_REL_320_3XX\0350_SWC-SET\CtApMapFusion\02_libs\CtApMapFusion.vxe:8025f9b8 00000010 T _ZN4diag15DiagnosisServer21setEnableStringAccessEb
E:\zFAS-Jenkins\workspace\zFAS_AIT_Master_AAT\SW\0300_ApplicationLayer\branches\CL3_REL_320_3XX\0350_SWC-SET\CtApMapFusion\02_libs\CtApMapFusion.vxe:8025f61c 00000100 T _ZN4diag15DiagnosisServer4initEv
E:\zFAS-Jenkins\workspace\zFAS_AIT_Master_AAT\SW\0300_ApplicationLayer\branches\CL3_REL_320_3XX\0350_SWC-SET\CtApMapFusion\02_libs\CtApMapFusion.vxe:80260f4c 00000044 T _ZN4diag15DiagnosisServer7hashBufEPKvj
E:\zFAS-Jenkins\workspace\zFAS_AIT_Master_AAT\SW\0300_ApplicationLayer\branches\CL3_REL_320_3XX\0350_SWC-SET\CtApMapFusion\02_libs\CtApMapFusion.vxe:80260f90 00000040 T _ZN4diag15DiagnosisServer7hashStrEPKc
E:\zFAS-Jenkins\workspace\zFAS_AIT_Master_AAT\SW\0300_ApplicationLayer\branches\CL3_REL_320_3XX\0350_SWC-SET\CtApMapFusion\02_libs\CtApMapFusion.vxe:80260dd8 00000020 T _ZN4diag15DiagnosisServer7strncpyEPcPKcj
E:\zFAS-Jenkins\workspace\zFAS_AIT_Master_AAT\SW\0300_ApplicationLayer\branches\CL3_REL_320_3XX\0350_SWC-SET\CtApMapFusion\02_libs\CtApMapFusion.vxe:80260d88 00000050 T _ZN4diag15DiagnosisServer7strnlenEPKcj
E:\zFAS-Jenkins\workspace\zFAS_AIT_Master_AAT\SW\0300_ApplicationLayer\branches\CL3_REL_320_3XX\0350_SWC-SET\CtApMapFusion\02_libs\CtApMapFusion.vxe:8026106c 00000100 T _ZN4diag15DiagnosisServer8addEntryEPKcPvjjj
E:\zFAS-Jenkins\workspace\zFAS_AIT_Master_AAT\SW\0300_ApplicationLayer\branches\CL3_REL_320_3XX\0350_SWC-SET\CtApMapFusion\02_libs\CtApMapFusion.vxe:80260fd0 0000009c T _ZN4diag15DiagnosisServer9findEntryEPKc
E:\zFAS-Jenkins\workspace\zFAS_AIT_Master_AAT\SW\0300_ApplicationLayer\branches\CL3_REL_320_3XX\0350_SWC-SET\CtApMapFusion\02_libs\CtApMapFusion.vxe:8025fae4 000000f0 T _ZN4diag15DiagnosisServer9reportIntEjjjjiPKc
E:\zFAS-Jenkins\workspace\zFAS_AIT_Master_AAT\SW\0300_ApplicationLayer\branches\CL3_REL_320_3XX\0350_SWC-SET\CtApMapFusion\02_libs\CtApMapFusion.vxe:80260ec8 00000084 T _ZN4diag15DiagnosisServer9strAppendEPcPKcjS3_
E:\zFAS-Jenkins\workspace\zFAS_AIT_Master_AAT\SW\0300_ApplicationLayer\branches\CL3_REL_320_3XX\0350_SWC-SET\CtApMapFusion\02_libs\CtApMapFusion.vxe:8025f71c 00000028 T _ZN4diag15DiagnosisServerC1Ev
E:\zFAS-Jenkins\workspace\zFAS_AIT_Master_AAT\SW\0300_ApplicationLayer\branches\CL3_REL_320_3XX\0350_SWC-SET\CtApMapFusion\02_libs\CtApMapFusion.vxe:8025f71c 00000028 T _ZN4diag15DiagnosisServerC2Ev
E:\zFAS-Jenkins\workspace\zFAS_AIT_Master_AAT\SW\0300_ApplicationLayer\branches\CL3_REL_320_3XX\0350_SWC-SET\CtApMapFusion\02_libs\CtApMapFusion.vxe:8025f9e8 00000020 W _ZN4diag15DiagnosisServerD0Ev
E:\zFAS-Jenkins\workspace\zFAS_AIT_Master_AAT\SW\0300_ApplicationLayer\branches\CL3_REL_320_3XX\0350_SWC-SET\CtApMapFusion\02_libs\CtApMapFusion.vxe:8025f9d8 00000010 W _ZN4diag15DiagnosisServerD1Ev
E:\zFAS-Jenkins\workspace\zFAS_AIT_Master_AAT\SW\0300_ApplicationLayer\branches\CL3_REL_320_3XX\0350_SWC-SET\CtApMapFusion\02_libs\CtApMapFusion.vxe:8004eb58 00000020 W _ZN4diag17IDiagnosisBackendD0Ev
E:\zFAS-Jenkins\workspace\zFAS_AIT_Master_AAT\SW\0300_ApplicationLayer\branches\CL3_REL_320_3XX\0350_SWC-SET\CtApMapFusion\02_libs\CtApMapFusion.vxe:8004eb28 00000010 W _ZN4diag17IDiagnosisBackendD1Ev
E:\zFAS-Jenkins\workspace\zFAS_AIT_Master_AAT\SW\0300_ApplicationLayer\branches\CL3_REL_320_3XX\0350_SWC-SET\CtApMapFusion\02_libs\CtApMapFusion.vxe:802bb318 000003a0 T _ZN4diag20DiagnosisBackendzFAS11initBackendERNS_10IDiagnosisE
E:\zFAS-Jenkins\workspace\zFAS_AIT_Master_AAT\SW\0300_ApplicationLayer\branches\CL3_REL_320_3XX\0350_SWC-SET\CtApMapFusion\02_libs\CtApMapFusion.vxe:802bb270 000000a8 T _ZN4diag20DiagnosisBackendzFAS12resetBackendEv
E:\zFAS-Jenkins\workspace\zFAS_AIT_Master_AAT\SW\0300_ApplicationLayer\branches\CL3_REL_320_3XX\0350_SWC-SET\CtApMapFusion\02_libs\CtApMapFusion.vxe:8027f7d0 0000018c T _ZN4diag20DiagnosisBackendzFAS13reportFailureERNS_10IDiagnosisEjii
E:\zFAS-Jenkins\workspace\zFAS_AIT_Master_AAT\SW\0300_ApplicationLayer\branches\CL3_REL_320_3XX\0350_SWC-SET\CtApMapFusion\02_libs\CtApMapFusion.vxe:8027f6dc 00000004 T _ZN4diag20DiagnosisBackendzFAS13resetMesswertEv
E:\zFAS-Jenkins\workspace\zFAS_AIT_Master_AAT\SW\0300_ApplicationLayer\branches\CL3_REL_320_3XX\0350_SWC-SET\CtApMapFusion\02_libs\CtApMapFusion.vxe:8027f3e0 000000ac T _ZN4diag20DiagnosisBackendzFAS17diagZFASInitErrorERNS_10IDiagnosisE
E:\zFAS-Jenkins\workspace\zFAS_AIT_Master_AAT\SW\0300_ApplicationLayer\branches\CL3_REL_320_3XX\0350_SWC-SET\CtApMapFusion\02_libs\CtApMapFusion.vxe:802ba9c0 00000454 T _ZN4diag20DiagnosisBackendzFAS17reportToDiagnosisERK22_Dt_RECORD_Diag_CodingRNS_10IDiagnosisE
E:\zFAS-Jenkins\workspace\zFAS_AIT_Master_AAT\SW\0300_ApplicationLayer\branches\CL3_REL_320_3XX\0350_SWC-SET\CtApMapFusion\02_libs\CtApMapFusion.vxe:8027f998 0003b028 T _ZN4diag20DiagnosisBackendzFAS17reportToDiagnosisERK25_Dt_RECORD_SoftwareParamsRNS_10IDiagnosisE
E:\zFAS-Jenkins\workspace\zFAS_AIT_Master_AAT\SW\0300_ApplicationLayer\branches\CL3_REL_320_3XX\0350_SWC-SET\CtApMapFusion\02_libs\CtApMapFusion.vxe:8027f230 000000f8 T _ZN4diag20DiagnosisBackendzFAS19diagZFASResetErrorsEv
E:\zFAS-Jenkins\workspace\zFAS_AIT_Master_AAT\SW\0300_ApplicationLayer\branches\CL3_REL_320_3XX\0350_SWC-SET\CtApMapFusion\02_libs\CtApMapFusion.vxe:802bb008 00000258 T _ZN4diag20DiagnosisBackendzFAS20diagZFASReportErrorsERNS_10IDiagnosisE
E:\zFAS-Jenkins\workspace\zFAS_AIT_Master_AAT\SW\0300_ApplicationLayer\branches\CL3_REL_320_3XX\0350_SWC-SET\CtApMapFusion\02_libs\CtApMapFusion.vxe:802bae14 00000174 T _ZN4diag20DiagnosisBackendzFAS20writeFreezeFrameDataERNS_10IDiagnosisE
E:\zFAS-Jenkins\workspace\zFAS_AIT_Master_AAT\SW\0300_ApplicationLayer\branches\CL3_REL_320_3XX\0350_SWC-SET\CtApMapFusion\02_libs\CtApMapFusion.vxe:8027f48c 00000250 T _ZN4diag20DiagnosisBackendzFAS21diagZFASDefaultCodingERNS_10IDiagnosisE
E:\zFAS-Jenkins\workspace\zFAS_AIT_Master_AAT\SW\0300_ApplicationLayer\branches\CL3_REL_320_3XX\0350_SWC-SET\CtApMapFusion\02_libs\CtApMapFusion.vxe:8027f1a8 00000088 T _ZN4diag20DiagnosisBackendzFAS22diagZFASClearAllErrorsEv
E:\zFAS-Jenkins\workspace\zFAS_AIT_Master_AAT\SW\0300_ApplicationLayer\branches\CL3_REL_320_3XX\0350_SWC-SET\CtApMapFusion\02_libs\CtApMapFusion.vxe:8027f328 000000b8 T _ZN4diag20DiagnosisBackendzFAS22diagZFASInitErrorEntryERNS_10IDiagnosisEhtPKc
E:\zFAS-Jenkins\workspace\zFAS_AIT_Master_AAT\SW\0300_ApplicationLayer\branches\CL3_REL_320_3XX\0350_SWC-SET\CtApMapFusion\02_libs\CtApMapFusion.vxe:8027f154 00000054 T _ZN4diag20DiagnosisBackendzFAS23diagZFASInitMeasurementERNS_10IDiagnosisE
E:\zFAS-Jenkins\workspace\zFAS_AIT_Master_AAT\SW\0300_ApplicationLayer\branches\CL3_REL_320_3XX\0350_SWC-SET\CtApMapFusion\02_libs\CtApMapFusion.vxe:802baf88 00000080 T _ZN4diag20DiagnosisBackendzFAS24diagZFASWriteMeasurementERNS_10IDiagnosisE
E:\zFAS-Jenkins\workspace\zFAS_AIT_Master_AAT\SW\0300_ApplicationLayer\branches\CL3_REL_320_3XX\0350_SWC-SET\CtApMapFusion\02_libs\CtApMapFusion.vxe:8027f95c 0000003c T _ZN4diag20DiagnosisBackendzFAS38reportFailureAndSetRtcIfInvalidEntryIdERNS_10IDiagnosisEjjiiRh
E:\zFAS-Jenkins\workspace\zFAS_AIT_Master_AAT\SW\0300_ApplicationLayer\branches\CL3_REL_320_3XX\0350_SWC-SET\CtApMapFusion\02_libs\CtApMapFusion.vxe:8027f094 000000c0 T _ZN4diag20DiagnosisBackendzFAS8callbackEjPKc
E:\zFAS-Jenkins\workspace\zFAS_AIT_Master_AAT\SW\0300_ApplicationLayer\branches\CL3_REL_320_3XX\0350_SWC-SET\CtApMapFusion\02_libs\CtApMapFusion.vxe:802bb260 00000010 T _ZN4diag20DiagnosisBackendzFAS9nextCycleEv
E:\zFAS-Jenkins\workspace\zFAS_AIT_Master_AAT\SW\0300_ApplicationLayer\branches\CL3_REL_320_3XX\0350_SWC-SET\CtApMapFusion\02_libs\CtApMapFusion.vxe:802bb6b8 0000015c T _ZN4diag20DiagnosisBackendzFASC1ERN9mapfusion24AbstractRteDiagInterfaceE
E:\zFAS-Jenkins\workspace\zFAS_AIT_Master_AAT\SW\0300_ApplicationLayer\branches\CL3_REL_320_3XX\0350_SWC-SET\CtApMapFusion\02_libs\CtApMapFusion.vxe:802bb6b8 0000015c T _ZN4diag20DiagnosisBackendzFASC2ERN9mapfusion24AbstractRteDiagInterfaceE
E:\zFAS-Jenkins\workspace\zFAS_AIT_Master_AAT\SW\0300_ApplicationLayer\branches\CL3_REL_320_3XX\0350_SWC-SET\CtApMapFusion\02_libs\CtApMapFusion.vxe:802bb824 00000020 W _ZN4diag20DiagnosisBackendzFASD0Ev
E:\zFAS-Jenkins\workspace\zFAS_AIT_Master_AAT\SW\0300_ApplicationLayer\branches\CL3_REL_320_3XX\0350_SWC-SET\CtApMapFusion\02_libs\CtApMapFusion.vxe:802bb814 00000010 W _ZN4diag20DiagnosisBackendzFASD1Ev
E:\zFAS-Jenkins\workspace\zFAS_AIT_Master_AAT\SW\0300_ApplicationLayer\branches\CL3_REL_320_3XX\0350_SWC-SET\CtApMapFusion\02_libs\CtApMapFusion.vxe:8025fa08 000000dc W _ZN4diag6DiagDbC1Ev
E:\zFAS-Jenkins\workspace\zFAS_AIT_Master_AAT\SW\0300_ApplicationLayer\branches\CL3_REL_320_3XX\0350_SWC-SET\CtApMapFusion\02_libs\CtApMapFusion.vxe:80259094 00000014 T _ZN7asmfrte17getDatasetPayloadERK25_Dt_RECORD_SoftwareParamsRNS_13DatasetData_tE
E:\zFAS-Jenkins\workspace\zFAS_AIT_Master_AAT\SW\0300_ApplicationLayer\branches\CL3_REL_320_3XX\0350_SWC-SET\CtApMapFusion\02_libs\CtApMapFusion.vxe:802590a8 00000024 T _ZN7asmfrte19writeDatasetPayloadERKNS_13DatasetData_tER25_Dt_RECORD_SoftwareParams
E:\zFAS-Jenkins\workspace\zFAS_AIT_Master_AAT\SW\0300_ApplicationLayer\branches\CL3_REL_320_3XX\0350_SWC-SET\CtApMapFusion\02_libs\CtApMapFusion.vxe:802590cc 0000000c T _ZN7asmfrte22computeDatasetChecksumERK25_Dt_RECORD_SoftwareParams
E:\zFAS-Jenkins\workspace\zFAS_AIT_Master_AAT\SW\0300_ApplicationLayer\branches\CL3_REL_320_3XX\0350_SWC-SET\CtApMapFusion\02_libs\CtApMapFusion.vxe:80053790 000001e4 W _ZN7mathext6sincosEfPfS0_
E:\zFAS-Jenkins\workspace\zFAS_AIT_Master_AAT\SW\0300_ApplicationLayer\branches\CL3_REL_320_3XX\0350_SWC-SET\CtApMapFusion\02_libs\CtApMapFusion.vxe:8004e830 0000002c T _ZN8DiagZFAS12reportErrorsEv
E:\zFAS-Jenkins\workspace\zFAS_AIT_Master_AAT\SW\0300_ApplicationLayer\branches\CL3_REL_320_3XX\0350_SWC-SET\CtApMapFusion\02_libs\CtApMapFusion.vxe:8004e810 0000001c T _ZN8DiagZFAS14exportDiagDataERPhRj
E:\zFAS-Jenkins\workspace\zFAS_AIT_Master_AAT\SW\0300_ApplicationLayer\branches\CL3_REL_320_3XX\0350_SWC-SET\CtApMapFusion\02_libs\CtApMapFusion.vxe:8004e82c 00000004 T _ZN8DiagZFAS14importDiagDataEPKhj
E:\zFAS-Jenkins\workspace\zFAS_AIT_Master_AAT\SW\0300_ApplicationLayer\branches\CL3_REL_320_3XX\0350_SWC-SET\CtApMapFusion\02_libs\CtApMapFusion.vxe:8004e96c 000000b8 T _ZN8DiagZFAS17readCodingFromRteERb
E:\zFAS-Jenkins\workspace\zFAS_AIT_Master_AAT\SW\0300_ApplicationLayer\branches\CL3_REL_320_3XX\0350_SWC-SET\CtApMapFusion\02_libs\CtApMapFusion.vxe:8004e85c 0000002c T _ZN8DiagZFAS17writeMeasurementsEv
E:\zFAS-Jenkins\workspace\zFAS_AIT_Master_AAT\SW\0300_ApplicationLayer\branches\CL3_REL_320_3XX\0350_SWC-SET\CtApMapFusion\02_libs\CtApMapFusion.vxe:8004e8b8 000000b4 T _ZN8DiagZFAS18readDatasetFromRteERb
E:\zFAS-Jenkins\workspace\zFAS_AIT_Master_AAT\SW\0300_ApplicationLayer\branches\CL3_REL_320_3XX\0350_SWC-SET\CtApMapFusion\02_libs\CtApMapFusion.vxe:8004e888 00000030 T _ZN8DiagZFAS28checkDatasetValidityAndRangeEPK25_Dt_RECORD_SoftwareParams
E:\zFAS-Jenkins\workspace\zFAS_AIT_Master_AAT\SW\0300_ApplicationLayer\branches\CL3_REL_320_3XX\0350_SWC-SET\CtApMapFusion\02_libs\CtApMapFusion.vxe:8004ea24 00000104 T _ZN8DiagZFAS8initDiagERjRb
E:\zFAS-Jenkins\workspace\zFAS_AIT_Master_AAT\SW\0300_ApplicationLayer\branches\CL3_REL_320_3XX\0350_SWC-SET\CtApMapFusion\02_libs\CtApMapFusion.vxe:8004e798 00000078 T _ZN8DiagZFASC1Ev
E:\zFAS-Jenkins\workspace\zFAS_AIT_Master_AAT\SW\0300_ApplicationLayer\branches\CL3_REL_320_3XX\0350_SWC-SET\CtApMapFusion\02_libs\CtApMapFusion.vxe:8004e798 00000078 T _ZN8DiagZFASC2Ev
E:\zFAS-Jenkins\workspace\zFAS_AIT_Master_AAT\SW\0300_ApplicationLayer\branches\CL3_REL_320_3XX\0350_SWC-SET\CtApMapFusion\02_libs\CtApMapFusion.vxe:8004e744 00000054 T _ZN8DiagZFASD0Ev
E:\zFAS-Jenkins\workspace\zFAS_AIT_Master_AAT\SW\0300_ApplicationLayer\branches\CL3_REL_320_3XX\0350_SWC-SET\CtApMapFusion\02_libs\CtApMapFusion.vxe:8004e6f8 0000004c T _ZN8DiagZFASD1Ev
E:\zFAS-Jenkins\workspace\zFAS_AIT_Master_AAT\SW\0300_ApplicationLayer\branches\CL3_REL_320_3XX\0350_SWC-SET\CtApMapFusion\02_libs\CtApMapFusion.vxe:8004e6f8 0000004c T _ZN8DiagZFASD2Ev
E:\zFAS-Jenkins\workspace\zFAS_AIT_Master_AAT\SW\0300_ApplicationLayer\branches\CL3_REL_320_3XX\0350_SWC-SET\CtApMapFusion\02_libs\CtApMapFusion.vxe:82d6ee0c 00000004 B _ZN9fencesapi28MvFencesApiAdditionalMembers6dummy_E
E:\zFAS-Jenkins\workspace\zFAS_AIT_Master_AAT\SW\0300_ApplicationLayer\branches\CL3_REL_320_3XX\0350_SWC-SET\CtApMapFusion\02_libs\CtApMapFusion.vxe:8027d924 000003c8 T _ZN9mapfusion10atan2_impl15atan2CordicNeonE17__simd128_int16_tS1_RA8_t
E:\zFAS-Jenkins\workspace\zFAS_AIT_Master_AAT\SW\0300_ApplicationLayer\branches\CL3_REL_320_3XX\0350_SWC-SET\CtApMapFusion\02_libs\CtApMapFusion.vxe:8027dcec 00000094 T _ZN9mapfusion10atan2_impl17atan2CordicX8NeonEssjRA8_t
E:\zFAS-Jenkins\workspace\zFAS_AIT_Master_AAT\SW\0300_ApplicationLayer\branches\CL3_REL_320_3XX\0350_SWC-SET\CtApMapFusion\02_libs\CtApMapFusion.vxe:80027328 0000008c W _ZN9mapfusion10ResultInfo3addENS_10ResultTypeEjPKc
E:\zFAS-Jenkins\workspace\zFAS_AIT_Master_AAT\SW\0300_ApplicationLayer\branches\CL3_REL_320_3XX\0350_SWC-SET\CtApMapFusion\02_libs\CtApMapFusion.vxe:8027d680 00000098 W _ZN9mapfusion10ResultInfoC1Eh
E:\zFAS-Jenkins\workspace\zFAS_AIT_Master_AAT\SW\0300_ApplicationLayer\branches\CL3_REL_320_3XX\0350_SWC-SET\CtApMapFusion\02_libs\CtApMapFusion.vxe:82d6fa64 00000a64 B _ZN9mapfusion10ri_locator10processingE
E:\zFAS-Jenkins\workspace\zFAS_AIT_Master_AAT\SW\0300_ApplicationLayer\branches\CL3_REL_320_3XX\0350_SWC-SET\CtApMapFusion\02_libs\CtApMapFusion.vxe:82d70f2c 00000a64 B _ZN9mapfusion10ri_locator4initE
E:\zFAS-Jenkins\workspace\zFAS_AIT_Master_AAT\SW\0300_ApplicationLayer\branches\CL3_REL_320_3XX\0350_SWC-SET\CtApMapFusion\02_libs\CtApMapFusion.vxe:82d71990 00005320 B _ZN9mapfusion10ri_locator6outputE
E:\zFAS-Jenkins\workspace\zFAS_AIT_Master_AAT\SW\0300_ApplicationLayer\branches\CL3_REL_320_3XX\0350_SWC-SET\CtApMapFusion\02_libs\CtApMapFusion.vxe:82d704c8 00000a64 B _ZN9mapfusion10ri_locator7controlE
E:\zFAS-Jenkins\workspace\zFAS_AIT_Master_AAT\SW\0300_ApplicationLayer\branches\CL3_REL_320_3XX\0350_SWC-SET\CtApMapFusion\02_libs\CtApMapFusion.vxe:82d6f000 00000a64 B _ZN9mapfusion10ri_locator8validityE
E:\zFAS-Jenkins\workspace\zFAS_AIT_Master_AAT\SW\0300_ApplicationLayer\branches\CL3_REL_320_3XX\0350_SWC-SET\CtApMapFusion\02_libs\CtApMapFusion.vxe:8001b810 00000024 W _ZN9mapfusion10StageThreeIN9fencesapi10IFencesApiI28_Dt_RECORD_DMLObstacleFences29_Dt_RECORD_DMLObstacleContour28_Dt_RECORD_DMLObstacleVertexLj50ELj100ELj3ELj12EjjjEEE10endContourEv
E:\zFAS-Jenkins\workspace\zFAS_AIT_Master_AAT\SW\0300_ApplicationLayer\branches\CL3_REL_320_3XX\0350_SWC-SET\CtApMapFusion\02_libs\CtApMapFusion.vxe:8001b75c 00000024 W _ZN9mapfusion10StageThreeIN9fencesapi10IFencesApiI28_Dt_RECORD_DMLObstacleFences29_Dt_RECORD_DMLObstacleContour28_Dt_RECORD_DMLObstacleVertexLj50ELj100ELj3ELj12EjjjEEE11startBufferEhRKNS_10ResultTypeE
E:\zFAS-Jenkins\workspace\zFAS_AIT_Master_AAT\SW\0300_ApplicationLayer\branches\CL3_REL_320_3XX\0350_SWC-SET\CtApMapFusion\02_libs\CtApMapFusion.vxe:8001b858 00000024 W _ZN9mapfusion10StageThreeIN9fencesapi10IFencesApiI28_Dt_RECORD_DMLObstacleFences29_Dt_RECORD_DMLObstacleContour28_Dt_RECORD_DMLObstacleVertexLj50ELj100ELj3ELj12EjjjEEE12setFailureQMEv
E:\zFAS-Jenkins\workspace\zFAS_AIT_Master_AAT\SW\0300_ApplicationLayer\branches\CL3_REL_320_3XX\0350_SWC-SET\CtApMapFusion\02_libs\CtApMapFusion.vxe:8001b780 00000024 W _ZN9mapfusion10StageThreeIN9fencesapi10IFencesApiI28_Dt_RECORD_DMLObstacleFences29_Dt_RECORD_DMLObstacleContour28_Dt_RECORD_DMLObstacleVertexLj50ELj100ELj3ELj12EjjjEEE12startContourEhh
E:\zFAS-Jenkins\workspace\zFAS_AIT_Master_AAT\SW\0300_ApplicationLayer\branches\CL3_REL_320_3XX\0350_SWC-SET\CtApMapFusion\02_libs\CtApMapFusion.vxe:8001b6e0 00000044 W _ZN9mapfusion10StageThreeIN9fencesapi10IFencesApiI28_Dt_RECORD_DMLObstacleFences29_Dt_RECORD_DMLObstacleContour28_Dt_RECORD_DMLObstacleVertexLj50ELj100ELj3ELj12EjjjEEE14setPerformanceERKN15fencesinterface20PerformanceQualifierE
E:\zFAS-Jenkins\workspace\zFAS_AIT_Master_AAT\SW\0300_ApplicationLayer\branches\CL3_REL_320_3XX\0350_SWC-SET\CtApMapFusion\02_libs\CtApMapFusion.vxe:8001b7ec 00000024 W _ZN9mapfusion10StageThreeIN9fencesapi10IFencesApiI28_Dt_RECORD_DMLObstacleFences29_Dt_RECORD_DMLObstacleContour28_Dt_RECORD_DMLObstacleVertexLj50ELj100ELj3ELj12EjjjEEE18addProcessingErrorENS_10ResultTypeE
E:\zFAS-Jenkins\workspace\zFAS_AIT_Master_AAT\SW\0300_ApplicationLayer\branches\CL3_REL_320_3XX\0350_SWC-SET\CtApMapFusion\02_libs\CtApMapFusion.vxe:8002986c 00000428 W _ZN9mapfusion10StageThreeIN9fencesapi10IFencesApiI28_Dt_RECORD_DMLObstacleFences29_Dt_RECORD_DMLObstacleContour28_Dt_RECORD_DMLObstacleVertexLj50ELj100ELj3ELj12EjjjEEE25readParamForPropFilteringERNS_10ResultTypeERA256_KcRNS_4stg313RuntimeParamsE
E:\zFAS-Jenkins\workspace\zFAS_AIT_Master_AAT\SW\0300_ApplicationLayer\branches\CL3_REL_320_3XX\0350_SWC-SET\CtApMapFusion\02_libs\CtApMapFusion.vxe:80029c94 000003c4 W _ZN9mapfusion10StageThreeIN9fencesapi10IFencesApiI28_Dt_RECORD_DMLObstacleFences29_Dt_RECORD_DMLObstacleContour28_Dt_RECORD_DMLObstacleVertexLj50ELj100ELj3ELj12EjjjEEE27readParamForVertexBinRangesERNS_10ResultTypeERA256_KcRNS_4stg313RuntimeParamsE
E:\zFAS-Jenkins\workspace\zFAS_AIT_Master_AAT\SW\0300_ApplicationLayer\branches\CL3_REL_320_3XX\0350_SWC-SET\CtApMapFusion\02_libs\CtApMapFusion.vxe:8001b834 00000024 W _ZN9mapfusion10StageThreeIN9fencesapi10IFencesApiI28_Dt_RECORD_DMLObstacleFences29_Dt_RECORD_DMLObstacleContour28_Dt_RECORD_DMLObstacleVertexLj50ELj100ELj3ELj12EjjjEEE3endEv
E:\zFAS-Jenkins\workspace\zFAS_AIT_Master_AAT\SW\0300_ApplicationLayer\branches\CL3_REL_320_3XX\0350_SWC-SET\CtApMapFusion\02_libs\CtApMapFusion.vxe:8002a058 0000133c W _ZN9mapfusion10StageThreeIN9fencesapi10IFencesApiI28_Dt_RECORD_DMLObstacleFences29_Dt_RECORD_DMLObstacleContour28_Dt_RECORD_DMLObstacleVertexLj50ELj100ELj3ELj12EjjjEEE4initEv
E:\zFAS-Jenkins\workspace\zFAS_AIT_Master_AAT\SW\0300_ApplicationLayer\branches\CL3_REL_320_3XX\0350_SWC-SET\CtApMapFusion\02_libs\CtApMapFusion.vxe:8001b724 00000038 W _ZN9mapfusion10StageThreeIN9fencesapi10IFencesApiI28_Dt_RECORD_DMLObstacleFences29_Dt_RECORD_DMLObstacleContour28_Dt_RECORD_DMLObstacleVertexLj50ELj100ELj3ELj12EjjjEEE8startCmdERKNS_4stg317StageThreeCommandERK9TimeStampj
E:\zFAS-Jenkins\workspace\zFAS_AIT_Master_AAT\SW\0300_ApplicationLayer\branches\CL3_REL_320_3XX\0350_SWC-SET\CtApMapFusion\02_libs\CtApMapFusion.vxe:8001b7c8 00000024 W _ZN9mapfusion10StageThreeIN9fencesapi10IFencesApiI28_Dt_RECORD_DMLObstacleFences29_Dt_RECORD_DMLObstacleContour28_Dt_RECORD_DMLObstacleVertexLj50ELj100ELj3ELj12EjjjEEE9addVertexERKNS_4stg39TmpVertexE
E:\zFAS-Jenkins\workspace\zFAS_AIT_Master_AAT\SW\0300_ApplicationLayer\branches\CL3_REL_320_3XX\0350_SWC-SET\CtApMapFusion\02_libs\CtApMapFusion.vxe:8001b7a4 00000024 W _ZN9mapfusion10StageThreeIN9fencesapi10IFencesApiI28_Dt_RECORD_DMLObstacleFences29_Dt_RECORD_DMLObstacleContour28_Dt_RECORD_DMLObstacleVertexLj50ELj100ELj3ELj12EjjjEEE9addVertexERKNS_4stg39TmpVertexESB_
E:\zFAS-Jenkins\workspace\zFAS_AIT_Master_AAT\SW\0300_ApplicationLayer\branches\CL3_REL_320_3XX\0350_SWC-SET\CtApMapFusion\02_libs\CtApMapFusion.vxe:8001b684 0000005c W _ZN9mapfusion10StageThreeIN9fencesapi10IFencesApiI28_Dt_RECORD_DMLObstacleFences29_Dt_RECORD_DMLObstacleContour28_Dt_RECORD_DMLObstacleVertexLj50ELj100ELj3ELj12EjjjEEE9initFenceEjRK9TimeStamp
E:\zFAS-Jenkins\workspace\zFAS_AIT_Master_AAT\SW\0300_ApplicationLayer\branches\CL3_REL_320_3XX\0350_SWC-SET\CtApMapFusion\02_libs\CtApMapFusion.vxe:80028cf0 000003d4 W _ZN9mapfusion10StageThreeIN9fencesapi10IFencesApiI28_Dt_RECORD_DMLObstacleFences29_Dt_RECORD_DMLObstacleContour28_Dt_RECORD_DMLObstacleVertexLj50ELj100ELj3ELj12EjjjEEEC1ERS6_PKchhh
E:\zFAS-Jenkins\workspace\zFAS_AIT_Master_AAT\SW\0300_ApplicationLayer\branches\CL3_REL_320_3XX\0350_SWC-SET\CtApMapFusion\02_libs\CtApMapFusion.vxe:8001ed84 00000030 W _ZN9mapfusion10StageThreeIN9fencesapi10IFencesApiI28_Dt_RECORD_DMLObstacleFences29_Dt_RECORD_DMLObstacleContour28_Dt_RECORD_DMLObstacleVertexLj50ELj100ELj3ELj12EjjjEEED0Ev
E:\zFAS-Jenkins\workspace\zFAS_AIT_Master_AAT\SW\0300_ApplicationLayer\branches\CL3_REL_320_3XX\0350_SWC-SET\CtApMapFusion\02_libs\CtApMapFusion.vxe:8001b4c0 00000020 W _ZN9mapfusion10StageThreeIN9fencesapi10IFencesApiI28_Dt_RECORD_DMLObstacleFences29_Dt_RECORD_DMLObstacleContour28_Dt_RECORD_DMLObstacleVertexLj50ELj100ELj3ELj12EjjjEEED1Ev
E:\zFAS-Jenkins\workspace\zFAS_AIT_Master_AAT\SW\0300_ApplicationLayer\branches\CL3_REL_320_3XX\0350_SWC-SET\CtApMapFusion\02_libs\CtApMapFusion.vxe:8001c280 00000024 W _ZN9mapfusion10StageThreeIN9fencesapi10IFencesApiI29_Dt_RECORD_ParkObstacleFences30_Dt_RECORD_ParkObstacleContour29_Dt_RECORD_ParkObstacleVertexLj250ELj500ELj3ELj12EjjjEEE10endContourEv
E:\zFAS-Jenkins\workspace\zFAS_AIT_Master_AAT\SW\0300_ApplicationLayer\branches\CL3_REL_320_3XX\0350_SWC-SET\CtApMapFusion\02_libs\CtApMapFusion.vxe:8001c1cc 00000024 W _ZN9mapfusion10StageThreeIN9fencesapi10IFencesApiI29_Dt_RECORD_ParkObstacleFences30_Dt_RECORD_ParkObstacleContour29_Dt_RECORD_ParkObstacleVertexLj250ELj500ELj3ELj12EjjjEEE11startBufferEhRKNS_10ResultTypeE
E:\zFAS-Jenkins\workspace\zFAS_AIT_Master_AAT\SW\0300_ApplicationLayer\branches\CL3_REL_320_3XX\0350_SWC-SET\CtApMapFusion\02_libs\CtApMapFusion.vxe:8001c2c8 00000024 W _ZN9mapfusion10StageThreeIN9fencesapi10IFencesApiI29_Dt_RECORD_ParkObstacleFences30_Dt_RECORD_ParkObstacleContour29_Dt_RECORD_ParkObstacleVertexLj250ELj500ELj3ELj12EjjjEEE12setFailureQMEv
E:\zFAS-Jenkins\workspace\zFAS_AIT_Master_AAT\SW\0300_ApplicationLayer\branches\CL3_REL_320_3XX\0350_SWC-SET\CtApMapFusion\02_libs\CtApMapFusion.vxe:8001c1f0 00000024 W _ZN9mapfusion10StageThreeIN9fencesapi10IFencesApiI29_Dt_RECORD_ParkObstacleFences30_Dt_RECORD_ParkObstacleContour29_Dt_RECORD_ParkObstacleVertexLj250ELj500ELj3ELj12EjjjEEE12startContourEhh
E:\zFAS-Jenkins\workspace\zFAS_AIT_Master_AAT\SW\0300_ApplicationLayer\branches\CL3_REL_320_3XX\0350_SWC-SET\CtApMapFusion\02_libs\CtApMapFusion.vxe:8001c150 00000044 W _ZN9mapfusion10StageThreeIN9fencesapi10IFencesApiI29_Dt_RECORD_ParkObstacleFences30_Dt_RECORD_ParkObstacleContour29_Dt_RECORD_ParkObstacleVertexLj250ELj500ELj3ELj12EjjjEEE14setPerformanceERKN15fencesinterface20PerformanceQualifierE
E:\zFAS-Jenkins\workspace\zFAS_AIT_Master_AAT\SW\0300_ApplicationLayer\branches\CL3_REL_320_3XX\0350_SWC-SET\CtApMapFusion\02_libs\CtApMapFusion.vxe:8001c25c 00000024 W _ZN9mapfusion10StageThreeIN9fencesapi10IFencesApiI29_Dt_RECORD_ParkObstacleFences30_Dt_RECORD_ParkObstacleContour29_Dt_RECORD_ParkObstacleVertexLj250ELj500ELj3ELj12EjjjEEE18addProcessingErrorENS_10ResultTypeE
E:\zFAS-Jenkins\workspace\zFAS_AIT_Master_AAT\SW\0300_ApplicationLayer\branches\CL3_REL_320_3XX\0350_SWC-SET\CtApMapFusion\02_libs\CtApMapFusion.vxe:8002feb4 00000428 W _ZN9mapfusion10StageThreeIN9fencesapi10IFencesApiI29_Dt_RECORD_ParkObstacleFences30_Dt_RECORD_ParkObstacleContour29_Dt_RECORD_ParkObstacleVertexLj250ELj500ELj3ELj12EjjjEEE25readParamForPropFilteringERNS_10ResultTypeERA256_KcRNS_4stg313RuntimeParamsE
E:\zFAS-Jenkins\workspace\zFAS_AIT_Master_AAT\SW\0300_ApplicationLayer\branches\CL3_REL_320_3XX\0350_SWC-SET\CtApMapFusion\02_libs\CtApMapFusion.vxe:800302dc 000003c4 W _ZN9mapfusion10StageThreeIN9fencesapi10IFencesApiI29_Dt_RECORD_ParkObstacleFences30_Dt_RECORD_ParkObstacleContour29_Dt_RECORD_ParkObstacleVertexLj250ELj500ELj3ELj12EjjjEEE27readParamForVertexBinRangesERNS_10ResultTypeERA256_KcRNS_4stg313RuntimeParamsE
E:\zFAS-Jenkins\workspace\zFAS_AIT_Master_AAT\SW\0300_ApplicationLayer\branches\CL3_REL_320_3XX\0350_SWC-SET\CtApMapFusion\02_libs\CtApMapFusion.vxe:8001c2a4 00000024 W _ZN9mapfusion10StageThreeIN9fencesapi10IFencesApiI29_Dt_RECORD_ParkObstacleFences30_Dt_RECORD_ParkObstacleContour29_Dt_RECORD_ParkObstacleVertexLj250ELj500ELj3ELj12EjjjEEE3endEv
E:\zFAS-Jenkins\workspace\zFAS_AIT_Master_AAT\SW\0300_ApplicationLayer\branches\CL3_REL_320_3XX\0350_SWC-SET\CtApMapFusion\02_libs\CtApMapFusion.vxe:800306a0 0000133c W _ZN9mapfusion10StageThreeIN9fencesapi10IFencesApiI29_Dt_RECORD_ParkObstacleFences30_Dt_RECORD_ParkObstacleContour29_Dt_RECORD_ParkObstacleVertexLj250ELj500ELj3ELj12EjjjEEE4initEv
E:\zFAS-Jenkins\workspace\zFAS_AIT_Master_AAT\SW\0300_ApplicationLayer\branches\CL3_REL_320_3XX\0350_SWC-SET\CtApMapFusion\02_libs\CtApMapFusion.vxe:8001c194 00000038 W _ZN9mapfusion10StageThreeIN9fencesapi10IFencesApiI29_Dt_RECORD_ParkObstacleFences30_Dt_RECORD_ParkObstacleContour29_Dt_RECORD_ParkObstacleVertexLj250ELj500ELj3ELj12EjjjEEE8startCmdERKNS_4stg317StageThreeCommandERK9TimeStampj
E:\zFAS-Jenkins\workspace\zFAS_AIT_Master_AAT\SW\0300_ApplicationLayer\branches\CL3_REL_320_3XX\0350_SWC-SET\CtApMapFusion\02_libs\CtApMapFusion.vxe:8001c238 00000024 W _ZN9mapfusion10StageThreeIN9fencesapi10IFencesApiI29_Dt_RECORD_ParkObstacleFences30_Dt_RECORD_ParkObstacleContour29_Dt_RECORD_ParkObstacleVertexLj250ELj500ELj3ELj12EjjjEEE9addVertexERKNS_4stg39TmpVertexE
E:\zFAS-Jenkins\workspace\zFAS_AIT_Master_AAT\SW\0300_ApplicationLayer\branches\CL3_REL_320_3XX\0350_SWC-SET\CtApMapFusion\02_libs\CtApMapFusion.vxe:8001c214 00000024 W _ZN9mapfusion10StageThreeIN9fencesapi10IFencesApiI29_Dt_RECORD_ParkObstacleFences30_Dt_RECORD_ParkObstacleContour29_Dt_RECORD_ParkObstacleVertexLj250ELj500ELj3ELj12EjjjEEE9addVertexERKNS_4stg39TmpVertexESB_
E:\zFAS-Jenkins\workspace\zFAS_AIT_Master_AAT\SW\0300_ApplicationLayer\branches\CL3_REL_320_3XX\0350_SWC-SET\CtApMapFusion\02_libs\CtApMapFusion.vxe:8001c0f4 0000005c W _ZN9mapfusion10StageThreeIN9fencesapi10IFencesApiI29_Dt_RECORD_ParkObstacleFences30_Dt_RECORD_ParkObstacleContour29_Dt_RECORD_ParkObstacleVertexLj250ELj500ELj3ELj12EjjjEEE9initFenceEjRK9TimeStamp
E:\zFAS-Jenkins\workspace\zFAS_AIT_Master_AAT\SW\0300_ApplicationLayer\branches\CL3_REL_320_3XX\0350_SWC-SET\CtApMapFusion\02_libs\CtApMapFusion.vxe:80028548 000003d4 W _ZN9mapfusion10StageThreeIN9fencesapi10IFencesApiI29_Dt_RECORD_ParkObstacleFences30_Dt_RECORD_ParkObstacleContour29_Dt_RECORD_ParkObstacleVertexLj250ELj500ELj3ELj12EjjjEEEC1ERS6_PKchhh
E:\zFAS-Jenkins\workspace\zFAS_AIT_Master_AAT\SW\0300_ApplicationLayer\branches\CL3_REL_320_3XX\0350_SWC-SET\CtApMapFusion\02_libs\CtApMapFusion.vxe:8001eca4 00000030 W _ZN9mapfusion10StageThreeIN9fencesapi10IFencesApiI29_Dt_RECORD_ParkObstacleFences30_Dt_RECORD_ParkObstacleContour29_Dt_RECORD_ParkObstacleVertexLj250ELj500ELj3ELj12EjjjEEED0Ev
E:\zFAS-Jenkins\workspace\zFAS_AIT_Master_AAT\SW\0300_ApplicationLayer\branches\CL3_REL_320_3XX\0350_SWC-SET\CtApMapFusion\02_libs\CtApMapFusion.vxe:8001b480 00000020 W _ZN9mapfusion10StageThreeIN9fencesapi10IFencesApiI29_Dt_RECORD_ParkObstacleFences30_Dt_RECORD_ParkObstacleContour29_Dt_RECORD_ParkObstacleVertexLj250ELj500ELj3ELj12EjjjEEED1Ev
E:\zFAS-Jenkins\workspace\zFAS_AIT_Master_AAT\SW\0300_ApplicationLayer\branches\CL3_REL_320_3XX\0350_SWC-SET\CtApMapFusion\02_libs\CtApMapFusion.vxe:8001bcfc 00000024 W _ZN9mapfusion10StageThreeIN9fencesapi10IFencesApiI33_Dt_RECORD_TVRenderObstacleFences34_Dt_RECORD_TVRenderObstacleContour33_Dt_RECORD_TVRenderObstacleVertexLj250ELj500ELj3ELj12EjjjEEE10endContourEv
E:\zFAS-Jenkins\workspace\zFAS_AIT_Master_AAT\SW\0300_ApplicationLayer\branches\CL3_REL_320_3XX\0350_SWC-SET\CtApMapFusion\02_libs\CtApMapFusion.vxe:8001bc48 00000024 W _ZN9mapfusion10StageThreeIN9fencesapi10IFencesApiI33_Dt_RECORD_TVRenderObstacleFences34_Dt_RECORD_TVRenderObstacleContour33_Dt_RECORD_TVRenderObstacleVertexLj250ELj500ELj3ELj12EjjjEEE11startBufferEhRKNS_10ResultTypeE
E:\zFAS-Jenkins\workspace\zFAS_AIT_Master_AAT\SW\0300_ApplicationLayer\branches\CL3_REL_320_3XX\0350_SWC-SET\CtApMapFusion\02_libs\CtApMapFusion.vxe:8001bd44 00000024 W _ZN9mapfusion10StageThreeIN9fencesapi10IFencesApiI33_Dt_RECORD_TVRenderObstacleFences34_Dt_RECORD_TVRenderObstacleContour33_Dt_RECORD_TVRenderObstacleVertexLj250ELj500ELj3ELj12EjjjEEE12setFailureQMEv
E:\zFAS-Jenkins\workspace\zFAS_AIT_Master_AAT\SW\0300_ApplicationLayer\branches\CL3_REL_320_3XX\0350_SWC-SET\CtApMapFusion\02_libs\CtApMapFusion.vxe:8001bc6c 00000024 W _ZN9mapfusion10StageThreeIN9fencesapi10IFencesApiI33_Dt_RECORD_TVRenderObstacleFences34_Dt_RECORD_TVRenderObstacleContour33_Dt_RECORD_TVRenderObstacleVertexLj250ELj500ELj3ELj12EjjjEEE12startContourEhh
E:\zFAS-Jenkins\workspace\zFAS_AIT_Master_AAT\SW\0300_ApplicationLayer\branches\CL3_REL_320_3XX\0350_SWC-SET\CtApMapFusion\02_libs\CtApMapFusion.vxe:8001bbcc 00000044 W _ZN9mapfusion10StageThreeIN9fencesapi10IFencesApiI33_Dt_RECORD_TVRenderObstacleFences34_Dt_RECORD_TVRenderObstacleContour33_Dt_RECORD_TVRenderObstacleVertexLj250ELj500ELj3ELj12EjjjEEE14setPerformanceERKN15fencesinterface20PerformanceQualifierE
E:\zFAS-Jenkins\workspace\zFAS_AIT_Master_AAT\SW\0300_ApplicationLayer\branches\CL3_REL_320_3XX\0350_SWC-SET\CtApMapFusion\02_libs\CtApMapFusion.vxe:8001bcd8 00000024 W _ZN9mapfusion10StageThreeIN9fencesapi10IFencesApiI33_Dt_RECORD_TVRenderObstacleFences34_Dt_RECORD_TVRenderObstacleContour33_Dt_RECORD_TVRenderObstacleVertexLj250ELj500ELj3ELj12EjjjEEE18addProcessingErrorENS_10ResultTypeE
E:\zFAS-Jenkins\workspace\zFAS_AIT_Master_AAT\SW\0300_ApplicationLayer\branches\CL3_REL_320_3XX\0350_SWC-SET\CtApMapFusion\02_libs\CtApMapFusion.vxe:8002cb90 00000428 W _ZN9mapfusion10StageThreeIN9fencesapi10IFencesApiI33_Dt_RECORD_TVRenderObstacleFences34_Dt_RECORD_TVRenderObstacleContour33_Dt_RECORD_TVRenderObstacleVertexLj250ELj500ELj3ELj12EjjjEEE25readParamForPropFilteringERNS_10ResultTypeERA256_KcRNS_4stg313RuntimeParamsE
E:\zFAS-Jenkins\workspace\zFAS_AIT_Master_AAT\SW\0300_ApplicationLayer\branches\CL3_REL_320_3XX\0350_SWC-SET\CtApMapFusion\02_libs\CtApMapFusion.vxe:8002cfb8 000003c4 W _ZN9mapfusion10StageThreeIN9fencesapi10IFencesApiI33_Dt_RECORD_TVRenderObstacleFences34_Dt_RECORD_TVRenderObstacleContour33_Dt_RECORD_TVRenderObstacleVertexLj250ELj500ELj3ELj12EjjjEEE27readParamForVertexBinRangesERNS_10ResultTypeERA256_KcRNS_4stg313RuntimeParamsE
E:\zFAS-Jenkins\workspace\zFAS_AIT_Master_AAT\SW\0300_ApplicationLayer\branches\CL3_REL_320_3XX\0350_SWC-SET\CtApMapFusion\02_libs\CtApMapFusion.vxe:8001bd20 00000024 W _ZN9mapfusion10StageThreeIN9fencesapi10IFencesApiI33_Dt_RECORD_TVRenderObstacleFences34_Dt_RECORD_TVRenderObstacleContour33_Dt_RECORD_TVRenderObstacleVertexLj250ELj500ELj3ELj12EjjjEEE3endEv
E:\zFAS-Jenkins\workspace\zFAS_AIT_Master_AAT\SW\0300_ApplicationLayer\branches\CL3_REL_320_3XX\0350_SWC-SET\CtApMapFusion\02_libs\CtApMapFusion.vxe:8002d37c 0000133c W _ZN9mapfusion10StageThreeIN9fencesapi10IFencesApiI33_Dt_RECORD_TVRenderObstacleFences34_Dt_RECORD_TVRenderObstacleContour33_Dt_RECORD_TVRenderObstacleVertexLj250ELj500ELj3ELj12EjjjEEE4initEv
E:\zFAS-Jenkins\workspace\zFAS_AIT_Master_AAT\SW\0300_ApplicationLayer\branches\CL3_REL_320_3XX\0350_SWC-SET\CtApMapFusion\02_libs\CtApMapFusion.vxe:8001bc10 00000038 W _ZN9mapfusion10StageThreeIN9fencesapi10IFencesApiI33_Dt_RECORD_TVRenderObstacleFences34_Dt_RECORD_TVRenderObstacleContour33_Dt_RECORD_TVRenderObstacleVertexLj250ELj500ELj3ELj12EjjjEEE8startCmdERKNS_4stg317StageThreeCommandERK9TimeStampj
E:\zFAS-Jenkins\workspace\zFAS_AIT_Master_AAT\SW\0300_ApplicationLayer\branches\CL3_REL_320_3XX\0350_SWC-SET\CtApMapFusion\02_libs\CtApMapFusion.vxe:8001bcb4 00000024 W _ZN9mapfusion10StageThreeIN9fencesapi10IFencesApiI33_Dt_RECORD_TVRenderObstacleFences34_Dt_RECORD_TVRenderObstacleContour33_Dt_RECORD_TVRenderObstacleVertexLj250ELj500ELj3ELj12EjjjEEE9addVertexERKNS_4stg39TmpVertexE
E:\zFAS-Jenkins\workspace\zFAS_AIT_Master_AAT\SW\0300_ApplicationLayer\branches\CL3_REL_320_3XX\0350_SWC-SET\CtApMapFusion\02_libs\CtApMapFusion.vxe:8001bc90 00000024 W _ZN9mapfusion10StageThreeIN9fencesapi10IFencesApiI33_Dt_RECORD_TVRenderObstacleFences34_Dt_RECORD_TVRenderObstacleContour33_Dt_RECORD_TVRenderObstacleVertexLj250ELj500ELj3ELj12EjjjEEE9addVertexERKNS_4stg39TmpVertexESB_
E:\zFAS-Jenkins\workspace\zFAS_AIT_Master_AAT\SW\0300_ApplicationLayer\branches\CL3_REL_320_3XX\0350_SWC-SET\CtApMapFusion\02_libs\CtApMapFusion.vxe:8001bb70 0000005c W _ZN9mapfusion10StageThreeIN9fencesapi10IFencesApiI33_Dt_RECORD_TVRenderObstacleFences34_Dt_RECORD_TVRenderObstacleContour33_Dt_RECORD_TVRenderObstacleVertexLj250ELj500ELj3ELj12EjjjEEE9initFenceEjRK9TimeStamp
E:\zFAS-Jenkins\workspace\zFAS_AIT_Master_AAT\SW\0300_ApplicationLayer\branches\CL3_REL_320_3XX\0350_SWC-SET\CtApMapFusion\02_libs\CtApMapFusion.vxe:8002891c 000003d4 W _ZN9mapfusion10StageThreeIN9fencesapi10IFencesApiI33_Dt_RECORD_TVRenderObstacleFences34_Dt_RECORD_TVRenderObstacleContour33_Dt_RECORD_TVRenderObstacleVertexLj250ELj500ELj3ELj12EjjjEEEC1ERS6_PKchhh
E:\zFAS-Jenkins\workspace\zFAS_AIT_Master_AAT\SW\0300_ApplicationLayer\branches\CL3_REL_320_3XX\0350_SWC-SET\CtApMapFusion\02_libs\CtApMapFusion.vxe:8001ed14 00000030 W _ZN9mapfusion10StageThreeIN9fencesapi10IFencesApiI33_Dt_RECORD_TVRenderObstacleFences34_Dt_RECORD_TVRenderObstacleContour33_Dt_RECORD_TVRenderObstacleVertexLj250ELj500ELj3ELj12EjjjEEED0Ev
E:\zFAS-Jenkins\workspace\zFAS_AIT_Master_AAT\SW\0300_ApplicationLayer\branches\CL3_REL_320_3XX\0350_SWC-SET\CtApMapFusion\02_libs\CtApMapFusion.vxe:8001b4a0 00000020 W _ZN9mapfusion10StageThreeIN9fencesapi10IFencesApiI33_Dt_RECORD_TVRenderObstacleFences34_Dt_RECORD_TVRenderObstacleContour33_Dt_RECORD_TVRenderObstacleVertexLj250ELj500ELj3ELj12EjjjEEED1Ev
E:\zFAS-Jenkins\workspace\zFAS_AIT_Master_AAT\SW\0300_ApplicationLayer\branches\CL3_REL_320_3XX\0350_SWC-SET\CtApMapFusion\02_libs\CtApMapFusion.vxe:8001cafc 00000024 W _ZN9mapfusion10StageThreeINS_14IFencesAdapterIN9fencesapi10IFencesApiIN15fencesinterface17FencesLightStructENS4_7ContourENS4_6VertexELj250ELj500ELj5ELj31EjjjEENS_6OCacheELj2097152ENS_22CommonPrioritySelectorEEEE10endContourEv
E:\zFAS-Jenkins\workspace\zFAS_AIT_Master_AAT\SW\0300_ApplicationLayer\branches\CL3_REL_320_3XX\0350_SWC-SET\CtApMapFusion\02_libs\CtApMapFusion.vxe:8001ca48 00000024 W _ZN9mapfusion10StageThreeINS_14IFencesAdapterIN9fencesapi10IFencesApiIN15fencesinterface17FencesLightStructENS4_7ContourENS4_6VertexELj250ELj500ELj5ELj31EjjjEENS_6OCacheELj2097152ENS_22CommonPrioritySelectorEEEE11startBufferEhRKNS_10ResultTypeE
E:\zFAS-Jenkins\workspace\zFAS_AIT_Master_AAT\SW\0300_ApplicationLayer\branches\CL3_REL_320_3XX\0350_SWC-SET\CtApMapFusion\02_libs\CtApMapFusion.vxe:8001cb44 00000024 W _ZN9mapfusion10StageThreeINS_14IFencesAdapterIN9fencesapi10IFencesApiIN15fencesinterface17FencesLightStructENS4_7ContourENS4_6VertexELj250ELj500ELj5ELj31EjjjEENS_6OCacheELj2097152ENS_22CommonPrioritySelectorEEEE12setFailureQMEv
E:\zFAS-Jenkins\workspace\zFAS_AIT_Master_AAT\SW\0300_ApplicationLayer\branches\CL3_REL_320_3XX\0350_SWC-SET\CtApMapFusion\02_libs\CtApMapFusion.vxe:8001ca6c 00000024 W _ZN9mapfusion10StageThreeINS_14IFencesAdapterIN9fencesapi10IFencesApiIN15fencesinterface17FencesLightStructENS4_7ContourENS4_6VertexELj250ELj500ELj5ELj31EjjjEENS_6OCacheELj2097152ENS_22CommonPrioritySelectorEEEE12startContourEhh
E:\zFAS-Jenkins\workspace\zFAS_AIT_Master_AAT\SW\0300_ApplicationLayer\branches\CL3_REL_320_3XX\0350_SWC-SET\CtApMapFusion\02_libs\CtApMapFusion.vxe:8001c9cc 00000044 W _ZN9mapfusion10StageThreeINS_14IFencesAdapterIN9fencesapi10IFencesApiIN15fencesinterface17FencesLightStructENS4_7ContourENS4_6VertexELj250ELj500ELj5ELj31EjjjEENS_6OCacheELj2097152ENS_22CommonPrioritySelectorEEEE14setPerformanceERKNS4_20PerformanceQualifierE
E:\zFAS-Jenkins\workspace\zFAS_AIT_Master_AAT\SW\0300_ApplicationLayer\branches\CL3_REL_320_3XX\0350_SWC-SET\CtApMapFusion\02_libs\CtApMapFusion.vxe:8001cad8 00000024 W _ZN9mapfusion10StageThreeINS_14IFencesAdapterIN9fencesapi10IFencesApiIN15fencesinterface17FencesLightStructENS4_7ContourENS4_6VertexELj250ELj500ELj5ELj31EjjjEENS_6OCacheELj2097152ENS_22CommonPrioritySelectorEEEE18addProcessingErrorENS_10ResultTypeE
E:\zFAS-Jenkins\workspace\zFAS_AIT_Master_AAT\SW\0300_ApplicationLayer\branches\CL3_REL_320_3XX\0350_SWC-SET\CtApMapFusion\02_libs\CtApMapFusion.vxe:80033658 00000428 W _ZN9mapfusion10StageThreeINS_14IFencesAdapterIN9fencesapi10IFencesApiIN15fencesinterface17FencesLightStructENS4_7ContourENS4_6VertexELj250ELj500ELj5ELj31EjjjEENS_6OCacheELj2097152ENS_22CommonPrioritySelectorEEEE25readParamForPropFilteringERNS_10ResultTypeERA256_KcRNS_4stg313RuntimeParamsE
E:\zFAS-Jenkins\workspace\zFAS_AIT_Master_AAT\SW\0300_ApplicationLayer\branches\CL3_REL_320_3XX\0350_SWC-SET\CtApMapFusion\02_libs\CtApMapFusion.vxe:80033a80 000003c4 W _ZN9mapfusion10StageThreeINS_14IFencesAdapterIN9fencesapi10IFencesApiIN15fencesinterface17FencesLightStructENS4_7ContourENS4_6VertexELj250ELj500ELj5ELj31EjjjEENS_6OCacheELj2097152ENS_22CommonPrioritySelectorEEEE27readParamForVertexBinRangesERNS_10ResultTypeERA256_KcRNS_4stg313RuntimeParamsE
E:\zFAS-Jenkins\workspace\zFAS_AIT_Master_AAT\SW\0300_ApplicationLayer\branches\CL3_REL_320_3XX\0350_SWC-SET\CtApMapFusion\02_libs\CtApMapFusion.vxe:8001cb20 00000024 W _ZN9mapfusion10StageThreeINS_14IFencesAdapterIN9fencesapi10IFencesApiIN15fencesinterface17FencesLightStructENS4_7ContourENS4_6VertexELj250ELj500ELj5ELj31EjjjEENS_6OCacheELj2097152ENS_22CommonPrioritySelectorEEEE3endEv
E:\zFAS-Jenkins\workspace\zFAS_AIT_Master_AAT\SW\0300_ApplicationLayer\branches\CL3_REL_320_3XX\0350_SWC-SET\CtApMapFusion\02_libs\CtApMapFusion.vxe:80033e44 0000133c W _ZN9mapfusion10StageThreeINS_14IFencesAdapterIN9fencesapi10IFencesApiIN15fencesinterface17FencesLightStructENS4_7ContourENS4_6VertexELj250ELj500ELj5ELj31EjjjEENS_6OCacheELj2097152ENS_22CommonPrioritySelectorEEEE4initEv
E:\zFAS-Jenkins\workspace\zFAS_AIT_Master_AAT\SW\0300_ApplicationLayer\branches\CL3_REL_320_3XX\0350_SWC-SET\CtApMapFusion\02_libs\CtApMapFusion.vxe:8001ca10 00000038 W _ZN9mapfusion10StageThreeINS_14IFencesAdapterIN9fencesapi10IFencesApiIN15fencesinterface17FencesLightStructENS4_7ContourENS4_6VertexELj250ELj500ELj5ELj31EjjjEENS_6OCacheELj2097152ENS_22CommonPrioritySelectorEEEE8startCmdERKNS_4stg317StageThreeCommandERK9TimeStampj
E:\zFAS-Jenkins\workspace\zFAS_AIT_Master_AAT\SW\0300_ApplicationLayer\branches\CL3_REL_320_3XX\0350_SWC-SET\CtApMapFusion\02_libs\CtApMapFusion.vxe:8001cab4 00000024 W _ZN9mapfusion10StageThreeINS_14IFencesAdapterIN9fencesapi10IFencesApiIN15fencesinterface17FencesLightStructENS4_7ContourENS4_6VertexELj250ELj500ELj5ELj31EjjjEENS_6OCacheELj2097152ENS_22CommonPrioritySelectorEEEE9addVertexERKNS_4stg39TmpVertexE
E:\zFAS-Jenkins\workspace\zFAS_AIT_Master_AAT\SW\0300_ApplicationLayer\branches\CL3_REL_320_3XX\0350_SWC-SET\CtApMapFusion\02_libs\CtApMapFusion.vxe:8001ca90 00000024 W _ZN9mapfusion10StageThreeINS_14IFencesAdapterIN9fencesapi10IFencesApiIN15fencesinterface17FencesLightStructENS4_7ContourENS4_6VertexELj250ELj500ELj5ELj31EjjjEENS_6OCacheELj2097152ENS_22CommonPrioritySelectorEEEE9addVertexERKNS_4stg39TmpVertexESG_
E:\zFAS-Jenkins\workspace\zFAS_AIT_Master_AAT\SW\0300_ApplicationLayer\branches\CL3_REL_320_3XX\0350_SWC-SET\CtApMapFusion\02_libs\CtApMapFusion.vxe:8001c970 0000005c W _ZN9mapfusion10StageThreeINS_14IFencesAdapterIN9fencesapi10IFencesApiIN15fencesinterface17FencesLightStructENS4_7ContourENS4_6VertexELj250ELj500ELj5ELj31EjjjEENS_6OCacheELj2097152ENS_22CommonPrioritySelectorEEEE9initFenceEjRK9TimeStamp
E:\zFAS-Jenkins\workspace\zFAS_AIT_Master_AAT\SW\0300_ApplicationLayer\branches\CL3_REL_320_3XX\0350_SWC-SET\CtApMapFusion\02_libs\CtApMapFusion.vxe:80029498 000003d4 W _ZN9mapfusion10StageThreeINS_14IFencesAdapterIN9fencesapi10IFencesApiIN15fencesinterface17FencesLightStructENS4_7ContourENS4_6VertexELj250ELj500ELj5ELj31EjjjEENS_6OCacheELj2097152ENS_22CommonPrioritySelectorEEEEC1ERSB_PKchhh
E:\zFAS-Jenkins\workspace\zFAS_AIT_Master_AAT\SW\0300_ApplicationLayer\branches\CL3_REL_320_3XX\0350_SWC-SET\CtApMapFusion\02_libs\CtApMapFusion.vxe:8001ee64 00000030 W _ZN9mapfusion10StageThreeINS_14IFencesAdapterIN9fencesapi10IFencesApiIN15fencesinterface17FencesLightStructENS4_7ContourENS4_6VertexELj250ELj500ELj5ELj31EjjjEENS_6OCacheELj2097152ENS_22CommonPrioritySelectorEEEED0Ev
E:\zFAS-Jenkins\workspace\zFAS_AIT_Master_AAT\SW\0300_ApplicationLayer\branches\CL3_REL_320_3XX\0350_SWC-SET\CtApMapFusion\02_libs\CtApMapFusion.vxe:8001b500 00000020 W _ZN9mapfusion10StageThreeINS_14IFencesAdapterIN9fencesapi10IFencesApiIN15fencesinterface17FencesLightStructENS4_7ContourENS4_6VertexELj250ELj500ELj5ELj31EjjjEENS_6OCacheELj2097152ENS_22CommonPrioritySelectorEEEED1Ev
E:\zFAS-Jenkins\workspace\zFAS_AIT_Master_AAT\SW\0300_ApplicationLayer\branches\CL3_REL_320_3XX\0350_SWC-SET\CtApMapFusion\02_libs\CtApMapFusion.vxe:8001d0e8 00000024 W _ZN9mapfusion10StageThreeINS_14IFencesAdapterIN9fencesapi10IFencesApiIN15fencesinterface17FencesLightStructENS4_7ContourENS4_6VertexELj250ELj500ELj5ELj31EjjjEENS_6OCacheELj2097154ENS_22CommonPrioritySelectorEEEE10endContourEv
E:\zFAS-Jenkins\workspace\zFAS_AIT_Master_AAT\SW\0300_ApplicationLayer\branches\CL3_REL_320_3XX\0350_SWC-SET\CtApMapFusion\02_libs\CtApMapFusion.vxe:8001d034 00000024 W _ZN9mapfusion10StageThreeINS_14IFencesAdapterIN9fencesapi10IFencesApiIN15fencesinterface17FencesLightStructENS4_7ContourENS4_6VertexELj250ELj500ELj5ELj31EjjjEENS_6OCacheELj2097154ENS_22CommonPrioritySelectorEEEE11startBufferEhRKNS_10ResultTypeE
E:\zFAS-Jenkins\workspace\zFAS_AIT_Master_AAT\SW\0300_ApplicationLayer\branches\CL3_REL_320_3XX\0350_SWC-SET\CtApMapFusion\02_libs\CtApMapFusion.vxe:8001d130 00000024 W _ZN9mapfusion10StageThreeINS_14IFencesAdapterIN9fencesapi10IFencesApiIN15fencesinterface17FencesLightStructENS4_7ContourENS4_6VertexELj250ELj500ELj5ELj31EjjjEENS_6OCacheELj2097154ENS_22CommonPrioritySelectorEEEE12setFailureQMEv
E:\zFAS-Jenkins\workspace\zFAS_AIT_Master_AAT\SW\0300_ApplicationLayer\branches\CL3_REL_320_3XX\0350_SWC-SET\CtApMapFusion\02_libs\CtApMapFusion.vxe:8001d058 00000024 W _ZN9mapfusion10StageThreeINS_14IFencesAdapterIN9fencesapi10IFencesApiIN15fencesinterface17FencesLightStructENS4_7ContourENS4_6VertexELj250ELj500ELj5ELj31EjjjEENS_6OCacheELj2097154ENS_22CommonPrioritySelectorEEEE12startContourEhh
E:\zFAS-Jenkins\workspace\zFAS_AIT_Master_AAT\SW\0300_ApplicationLayer\branches\CL3_REL_320_3XX\0350_SWC-SET\CtApMapFusion\02_libs\CtApMapFusion.vxe:8001cfb8 00000044 W _ZN9mapfusion10StageThreeINS_14IFencesAdapterIN9fencesapi10IFencesApiIN15fencesinterface17FencesLightStructENS4_7ContourENS4_6VertexELj250ELj500ELj5ELj31EjjjEENS_6OCacheELj2097154ENS_22CommonPrioritySelectorEEEE14setPerformanceERKNS4_20PerformanceQualifierE
E:\zFAS-Jenkins\workspace\zFAS_AIT_Master_AAT\SW\0300_ApplicationLayer\branches\CL3_REL_320_3XX\0350_SWC-SET\CtApMapFusion\02_libs\CtApMapFusion.vxe:8001d0c4 00000024 W _ZN9mapfusion10StageThreeINS_14IFencesAdapterIN9fencesapi10IFencesApiIN15fencesinterface17FencesLightStructENS4_7ContourENS4_6VertexELj250ELj500ELj5ELj31EjjjEENS_6OCacheELj2097154ENS_22CommonPrioritySelectorEEEE18addProcessingErrorENS_10ResultTypeE
E:\zFAS-Jenkins\workspace\zFAS_AIT_Master_AAT\SW\0300_ApplicationLayer\branches\CL3_REL_320_3XX\0350_SWC-SET\CtApMapFusion\02_libs\CtApMapFusion.vxe:8003697c 00000428 W _ZN9mapfusion10StageThreeINS_14IFencesAdapterIN9fencesapi10IFencesApiIN15fencesinterface17FencesLightStructENS4_7ContourENS4_6VertexELj250ELj500ELj5ELj31EjjjEENS_6OCacheELj2097154ENS_22CommonPrioritySelectorEEEE25readParamForPropFilteringERNS_10ResultTypeERA256_KcRNS_4stg313RuntimeParamsE
E:\zFAS-Jenkins\workspace\zFAS_AIT_Master_AAT\SW\0300_ApplicationLayer\branches\CL3_REL_320_3XX\0350_SWC-SET\CtApMapFusion\02_libs\CtApMapFusion.vxe:80036da4 000003c4 W _ZN9mapfusion10StageThreeINS_14IFencesAdapterIN9fencesapi10IFencesApiIN15fencesinterface17FencesLightStructENS4_7ContourENS4_6VertexELj250ELj500ELj5ELj31EjjjEENS_6OCacheELj2097154ENS_22CommonPrioritySelectorEEEE27readParamForVertexBinRangesERNS_10ResultTypeERA256_KcRNS_4stg313RuntimeParamsE
E:\zFAS-Jenkins\workspace\zFAS_AIT_Master_AAT\SW\0300_ApplicationLayer\branches\CL3_REL_320_3XX\0350_SWC-SET\CtApMapFusion\02_libs\CtApMapFusion.vxe:8001d10c 00000024 W _ZN9mapfusion10StageThreeINS_14IFencesAdapterIN9fencesapi10IFencesApiIN15fencesinterface17FencesLightStructENS4_7ContourENS4_6VertexELj250ELj500ELj5ELj31EjjjEENS_6OCacheELj2097154ENS_22CommonPrioritySelectorEEEE3endEv
E:\zFAS-Jenkins\workspace\zFAS_AIT_Master_AAT\SW\0300_ApplicationLayer\branches\CL3_REL_320_3XX\0350_SWC-SET\CtApMapFusion\02_libs\CtApMapFusion.vxe:80037168 0000133c W _ZN9mapfusion10StageThreeINS_14IFencesAdapterIN9fencesapi10IFencesApiIN15fencesinterface17FencesLightStructENS4_7ContourENS4_6VertexELj250ELj500ELj5ELj31EjjjEENS_6OCacheELj2097154ENS_22CommonPrioritySelectorEEEE4initEv
E:\zFAS-Jenkins\workspace\zFAS_AIT_Master_AAT\SW\0300_ApplicationLayer\branches\CL3_REL_320_3XX\0350_SWC-SET\CtApMapFusion\02_libs\CtApMapFusion.vxe:8001cffc 00000038 W _ZN9mapfusion10StageThreeINS_14IFencesAdapterIN9fencesapi10IFencesApiIN15fencesinterface17FencesLightStructENS4_7ContourENS4_6VertexELj250ELj500ELj5ELj31EjjjEENS_6OCacheELj2097154ENS_22CommonPrioritySelectorEEEE8startCmdERKNS_4stg317StageThreeCommandERK9TimeStampj
E:\zFAS-Jenkins\workspace\zFAS_AIT_Master_AAT\SW\0300_ApplicationLayer\branches\CL3_REL_320_3XX\0350_SWC-SET\CtApMapFusion\02_libs\CtApMapFusion.vxe:8001d0a0 00000024 W _ZN9mapfusion10StageThreeINS_14IFencesAdapterIN9fencesapi10IFencesApiIN15fencesinterface17FencesLightStructENS4_7ContourENS4_6VertexELj250ELj500ELj5ELj31EjjjEENS_6OCacheELj2097154ENS_22CommonPrioritySelectorEEEE9addVertexERKNS_4stg39TmpVertexE
E:\zFAS-Jenkins\workspace\zFAS_AIT_Master_AAT\SW\0300_ApplicationLayer\branches\CL3_REL_320_3XX\0350_SWC-SET\CtApMapFusion\02_libs\CtApMapFusion.vxe:8001d07c 00000024 W _ZN9mapfusion10StageThreeINS_14IFencesAdapterIN9fencesapi10IFencesApiIN15fencesinterface17FencesLightStructENS4_7ContourENS4_6VertexELj250ELj500ELj5ELj31EjjjEENS_6OCacheELj2097154ENS_22CommonPrioritySelectorEEEE9addVertexERKNS_4stg39TmpVertexESG_
E:\zFAS-Jenkins\workspace\zFAS_AIT_Master_AAT\SW\0300_ApplicationLayer\branches\CL3_REL_320_3XX\0350_SWC-SET\CtApMapFusion\02_libs\CtApMapFusion.vxe:8001cf5c 0000005c W _ZN9mapfusion10StageThreeINS_14IFencesAdapterIN9fencesapi10IFencesApiIN15fencesinterface17FencesLightStructENS4_7ContourENS4_6VertexELj250ELj500ELj5ELj31EjjjEENS_6OCacheELj2097154ENS_22CommonPrioritySelectorEEEE9initFenceEjRK9TimeStamp
E:\zFAS-Jenkins\workspace\zFAS_AIT_Master_AAT\SW\0300_ApplicationLayer\branches\CL3_REL_320_3XX\0350_SWC-SET\CtApMapFusion\02_libs\CtApMapFusion.vxe:800290c4 000003d4 W _ZN9mapfusion10StageThreeINS_14IFencesAdapterIN9fencesapi10IFencesApiIN15fencesinterface17FencesLightStructENS4_7ContourENS4_6VertexELj250ELj500ELj5ELj31EjjjEENS_6OCacheELj2097154ENS_22CommonPrioritySelectorEEEEC1ERSB_PKchhh
E:\zFAS-Jenkins\workspace\zFAS_AIT_Master_AAT\SW\0300_ApplicationLayer\branches\CL3_REL_320_3XX\0350_SWC-SET\CtApMapFusion\02_libs\CtApMapFusion.vxe:8001edf4 00000030 W _ZN9mapfusion10StageThreeINS_14IFencesAdapterIN9fencesapi10IFencesApiIN15fencesinterface17FencesLightStructENS4_7ContourENS4_6VertexELj250ELj500ELj5ELj31EjjjEENS_6OCacheELj2097154ENS_22CommonPrioritySelectorEEEED0Ev
E:\zFAS-Jenkins\workspace\zFAS_AIT_Master_AAT\SW\0300_ApplicationLayer\branches\CL3_REL_320_3XX\0350_SWC-SET\CtApMapFusion\02_libs\CtApMapFusion.vxe:8001b4e0 00000020 W _ZN9mapfusion10StageThreeINS_14IFencesAdapterIN9fencesapi10IFencesApiIN15fencesinterface17FencesLightStructENS4_7ContourENS4_6VertexELj250ELj500ELj5ELj31EjjjEENS_6OCacheELj2097154ENS_22CommonPrioritySelectorEEEED1Ev
E:\zFAS-Jenkins\workspace\zFAS_AIT_Master_AAT\SW\0300_ApplicationLayer\branches\CL3_REL_320_3XX\0350_SWC-SET\CtApMapFusion\02_libs\CtApMapFusion.vxe:8027d5b4 00000060 T _ZN9mapfusion10stringCopyERA256_cPKc
E:\zFAS-Jenkins\workspace\zFAS_AIT_Master_AAT\SW\0300_ApplicationLayer\branches\CL3_REL_320_3XX\0350_SWC-SET\CtApMapFusion\02_libs\CtApMapFusion.vxe:8027d718 0000002c T _ZN9mapfusion10TimeServer10startCycleEv
E:\zFAS-Jenkins\workspace\zFAS_AIT_Master_AAT\SW\0300_ApplicationLayer\branches\CL3_REL_320_3XX\0350_SWC-SET\CtApMapFusion\02_libs\CtApMapFusion.vxe:8027d768 00000054 T _ZN9mapfusion10TimeServer13remainingTimeEv
E:\zFAS-Jenkins\workspace\zFAS_AIT_Master_AAT\SW\0300_ApplicationLayer\branches\CL3_REL_320_3XX\0350_SWC-SET\CtApMapFusion\02_libs\CtApMapFusion.vxe:8027d744 00000024 T _ZN9mapfusion10TimeServerC1Eb
E:\zFAS-Jenkins\workspace\zFAS_AIT_Master_AAT\SW\0300_ApplicationLayer\branches\CL3_REL_320_3XX\0350_SWC-SET\CtApMapFusion\02_libs\CtApMapFusion.vxe:8027d744 00000024 T _ZN9mapfusion10TimeServerC2Eb
E:\zFAS-Jenkins\workspace\zFAS_AIT_Master_AAT\SW\0300_ApplicationLayer\branches\CL3_REL_320_3XX\0350_SWC-SET\CtApMapFusion\02_libs\CtApMapFusion.vxe:8027d7c0 00000164 T _ZN9mapfusion11atan2CordicEss
E:\zFAS-Jenkins\workspace\zFAS_AIT_Master_AAT\SW\0300_ApplicationLayer\branches\CL3_REL_320_3XX\0350_SWC-SET\CtApMapFusion\02_libs\CtApMapFusion.vxe:80259a60 00000030 T _ZN9mapfusion11DtcReporter13hasDtcChangedEPKh
E:\zFAS-Jenkins\workspace\zFAS_AIT_Master_AAT\SW\0300_ApplicationLayer\branches\CL3_REL_320_3XX\0350_SWC-SET\CtApMapFusion\02_libs\CtApMapFusion.vxe:80259a90 00000014 T _ZN9mapfusion11DtcReporter16isDatasetInvalidEPKh
E:\zFAS-Jenkins\workspace\zFAS_AIT_Master_AAT\SW\0300_ApplicationLayer\branches\CL3_REL_320_3XX\0350_SWC-SET\CtApMapFusion\02_libs\CtApMapFusion.vxe:80259874 000001ec T _ZN9mapfusion11DtcReporter16reportDtcDatasetEPKh
E:\zFAS-Jenkins\workspace\zFAS_AIT_Master_AAT\SW\0300_ApplicationLayer\branches\CL3_REL_320_3XX\0350_SWC-SET\CtApMapFusion\02_libs\CtApMapFusion.vxe:8025967c 000001f8 T _ZN9mapfusion11DtcReporter16reportDtcRuntimeEPKh
E:\zFAS-Jenkins\workspace\zFAS_AIT_Master_AAT\SW\0300_ApplicationLayer\branches\CL3_REL_320_3XX\0350_SWC-SET\CtApMapFusion\02_libs\CtApMapFusion.vxe:802593e8 00000294 T _ZN9mapfusion11DtcReporter4initEv
E:\zFAS-Jenkins\workspace\zFAS_AIT_Master_AAT\SW\0300_ApplicationLayer\branches\CL3_REL_320_3XX\0350_SWC-SET\CtApMapFusion\02_libs\CtApMapFusion.vxe:80259ca4 00000084 T _ZN9mapfusion11DtcReporter6reportEPKhb
E:\zFAS-Jenkins\workspace\zFAS_AIT_Master_AAT\SW\0300_ApplicationLayer\branches\CL3_REL_320_3XX\0350_SWC-SET\CtApMapFusion\02_libs\CtApMapFusion.vxe:802593a0 00000048 T _ZN9mapfusion11DtcReporterC1Ev
E:\zFAS-Jenkins\workspace\zFAS_AIT_Master_AAT\SW\0300_ApplicationLayer\branches\CL3_REL_320_3XX\0350_SWC-SET\CtApMapFusion\02_libs\CtApMapFusion.vxe:802593a0 00000048 T _ZN9mapfusion11DtcReporterC2Ev
E:\zFAS-Jenkins\workspace\zFAS_AIT_Master_AAT\SW\0300_ApplicationLayer\branches\CL3_REL_320_3XX\0350_SWC-SET\CtApMapFusion\02_libs\CtApMapFusion.vxe:8027c7d0 000000d8 W _ZN9mapfusion11FinderLogic13readParameterIffEEvRNS_10ResultTypeEPKcRT_S5_
E:\zFAS-Jenkins\workspace\zFAS_AIT_Master_AAT\SW\0300_ApplicationLayer\branches\CL3_REL_320_3XX\0350_SWC-SET\CtApMapFusion\02_libs\CtApMapFusion.vxe:8027c8a8 000000d8 W _ZN9mapfusion11FinderLogic13readParameterIhhEEvRNS_10ResultTypeEPKcRT_S5_
E:\zFAS-Jenkins\workspace\zFAS_AIT_Master_AAT\SW\0300_ApplicationLayer\branches\CL3_REL_320_3XX\0350_SWC-SET\CtApMapFusion\02_libs\CtApMapFusion.vxe:8027ca60 000000d8 W _ZN9mapfusion11FinderLogic13readParameterIjjEEvRNS_10ResultTypeEPKcRT_S5_
E:\zFAS-Jenkins\workspace\zFAS_AIT_Master_AAT\SW\0300_ApplicationLayer\branches\CL3_REL_320_3XX\0350_SWC-SET\CtApMapFusion\02_libs\CtApMapFusion.vxe:8027cb38 000000d8 W _ZN9mapfusion11FinderLogic13readParameterItjEEvRNS_10ResultTypeEPKcRT_S5_
E:\zFAS-Jenkins\workspace\zFAS_AIT_Master_AAT\SW\0300_ApplicationLayer\branches\CL3_REL_320_3XX\0350_SWC-SET\CtApMapFusion\02_libs\CtApMapFusion.vxe:8027c980 000000e0 W _ZN9mapfusion11FinderLogic17readParameterBoolIhEEvRNS_10ResultTypeEPKcRbS5_
E:\zFAS-Jenkins\workspace\zFAS_AIT_Master_AAT\SW\0300_ApplicationLayer\branches\CL3_REL_320_3XX\0350_SWC-SET\CtApMapFusion\02_libs\CtApMapFusion.vxe:8027c3f8 00000020 T _ZN9mapfusion11FinderLogicD0Ev
E:\zFAS-Jenkins\workspace\zFAS_AIT_Master_AAT\SW\0300_ApplicationLayer\branches\CL3_REL_320_3XX\0350_SWC-SET\CtApMapFusion\02_libs\CtApMapFusion.vxe:8027c318 00000010 T _ZN9mapfusion11FinderLogicD1Ev
E:\zFAS-Jenkins\workspace\zFAS_AIT_Master_AAT\SW\0300_ApplicationLayer\branches\CL3_REL_320_3XX\0350_SWC-SET\CtApMapFusion\02_libs\CtApMapFusion.vxe:8027c318 00000010 T _ZN9mapfusion11FinderLogicD2Ev
E:\zFAS-Jenkins\workspace\zFAS_AIT_Master_AAT\SW\0300_ApplicationLayer\branches\CL3_REL_320_3XX\0350_SWC-SET\CtApMapFusion\02_libs\CtApMapFusion.vxe:8001ea44 00000020 W _ZN9mapfusion11IStageThreeD0Ev
E:\zFAS-Jenkins\workspace\zFAS_AIT_Master_AAT\SW\0300_ApplicationLayer\branches\CL3_REL_320_3XX\0350_SWC-SET\CtApMapFusion\02_libs\CtApMapFusion.vxe:8001b328 00000010 W _ZN9mapfusion11IStageThreeD1Ev
E:\zFAS-Jenkins\workspace\zFAS_AIT_Master_AAT\SW\0300_ApplicationLayer\branches\CL3_REL_320_3XX\0350_SWC-SET\CtApMapFusion\02_libs\CtApMapFusion.vxe:80262370 00000130 T _ZN9mapfusion11OdoDecayAge10addOdoDataERKNS_9MfOdoDataEj
E:\zFAS-Jenkins\workspace\zFAS_AIT_Master_AAT\SW\0300_ApplicationLayer\branches\CL3_REL_320_3XX\0350_SWC-SET\CtApMapFusion\02_libs\CtApMapFusion.vxe:80262004 00000160 T _ZN9mapfusion11OdoDecayAge15getIndexFromYawEf
E:\zFAS-Jenkins\workspace\zFAS_AIT_Master_AAT\SW\0300_ApplicationLayer\branches\CL3_REL_320_3XX\0350_SWC-SET\CtApMapFusion\02_libs\CtApMapFusion.vxe:80262220 00000150 T _ZN9mapfusion11OdoDecayAge16calcDecayForTurnERjRKNS_9MfOdoDataEj
E:\zFAS-Jenkins\workspace\zFAS_AIT_Master_AAT\SW\0300_ApplicationLayer\branches\CL3_REL_320_3XX\0350_SWC-SET\CtApMapFusion\02_libs\CtApMapFusion.vxe:802624a0 00000084 T _ZN9mapfusion11OdoDecayAge19addOdoDataWithDecayEjjjRKNS_9MfOdoDataE
E:\zFAS-Jenkins\workspace\zFAS_AIT_Master_AAT\SW\0300_ApplicationLayer\branches\CL3_REL_320_3XX\0350_SWC-SET\CtApMapFusion\02_libs\CtApMapFusion.vxe:80262164 000000bc T _ZN9mapfusion11OdoDecayAge22determinValidYawRangesERjS1_S1_S1_jjb
E:\zFAS-Jenkins\workspace\zFAS_AIT_Master_AAT\SW\0300_ApplicationLayer\branches\CL3_REL_320_3XX\0350_SWC-SET\CtApMapFusion\02_libs\CtApMapFusion.vxe:80261a4c 000005b8 T _ZN9mapfusion11OdoDecayAge24calcDecayForTraveledDistERjRN14audifusionbase10RingBufferIjEERffRKNS_9MfOdoDataEj
E:\zFAS-Jenkins\workspace\zFAS_AIT_Master_AAT\SW\0300_ApplicationLayer\branches\CL3_REL_320_3XX\0350_SWC-SET\CtApMapFusion\02_libs\CtApMapFusion.vxe:80261580 000004cc T _ZN9mapfusion11OdoDecayAge4initEv
E:\zFAS-Jenkins\workspace\zFAS_AIT_Master_AAT\SW\0300_ApplicationLayer\branches\CL3_REL_320_3XX\0350_SWC-SET\CtApMapFusion\02_libs\CtApMapFusion.vxe:80261498 000000e8 T _ZN9mapfusion11OdoDecayAge5resetEv
E:\zFAS-Jenkins\workspace\zFAS_AIT_Master_AAT\SW\0300_ApplicationLayer\branches\CL3_REL_320_3XX\0350_SWC-SET\CtApMapFusion\02_libs\CtApMapFusion.vxe:802613a0 000000f8 T _ZN9mapfusion11OdoDecayAgeC1Ev
E:\zFAS-Jenkins\workspace\zFAS_AIT_Master_AAT\SW\0300_ApplicationLayer\branches\CL3_REL_320_3XX\0350_SWC-SET\CtApMapFusion\02_libs\CtApMapFusion.vxe:802613a0 000000f8 T _ZN9mapfusion11OdoDecayAgeC2Ev
E:\zFAS-Jenkins\workspace\zFAS_AIT_Master_AAT\SW\0300_ApplicationLayer\branches\CL3_REL_320_3XX\0350_SWC-SET\CtApMapFusion\02_libs\CtApMapFusion.vxe:80062568 0000023c W _ZN9mapfusion12BlockManagerINS_12GlobalConfigILj4ELj6ELj2ELj2EEENS_9BaseBlockEE11allocBlocksILNS_11UpdateLogicE0ELj0EEENS_10ResultTypeERNS4_10BlockStatsE
E:\zFAS-Jenkins\workspace\zFAS_AIT_Master_AAT\SW\0300_ApplicationLayer\branches\CL3_REL_320_3XX\0350_SWC-SET\CtApMapFusion\02_libs\CtApMapFusion.vxe:800627a4 0000023c W _ZN9mapfusion12BlockManagerINS_12GlobalConfigILj4ELj6ELj2ELj2EEENS_9BaseBlockEE11allocBlocksILNS_11UpdateLogicE0ELj1EEENS_10ResultTypeERNS4_10BlockStatsE
E:\zFAS-Jenkins\workspace\zFAS_AIT_Master_AAT\SW\0300_ApplicationLayer\branches\CL3_REL_320_3XX\0350_SWC-SET\CtApMapFusion\02_libs\CtApMapFusion.vxe:800629e0 00000238 W _ZN9mapfusion12BlockManagerINS_12GlobalConfigILj4ELj6ELj2ELj2EEENS_9BaseBlockEE11allocBlocksILNS_11UpdateLogicE0ELj2EEENS_10ResultTypeERNS4_10BlockStatsE
E:\zFAS-Jenkins\workspace\zFAS_AIT_Master_AAT\SW\0300_ApplicationLayer\branches\CL3_REL_320_3XX\0350_SWC-SET\CtApMapFusion\02_libs\CtApMapFusion.vxe:80062c18 00000238 W _ZN9mapfusion12BlockManagerINS_12GlobalConfigILj4ELj6ELj2ELj2EEENS_9BaseBlockEE11allocBlocksILNS_11UpdateLogicE0ELj3EEENS_10ResultTypeERNS4_10BlockStatsE
E:\zFAS-Jenkins\workspace\zFAS_AIT_Master_AAT\SW\0300_ApplicationLayer\branches\CL3_REL_320_3XX\0350_SWC-SET\CtApMapFusion\02_libs\CtApMapFusion.vxe:80061ea4 00000428 W _ZN9mapfusion12BlockManagerINS_12GlobalConfigILj4ELj6ELj2ELj2EEENS_9BaseBlockEE11getRoiFlagsERNS4_7RoiDataEPKcRA4_j
E:\zFAS-Jenkins\workspace\zFAS_AIT_Master_AAT\SW\0300_ApplicationLayer\branches\CL3_REL_320_3XX\0350_SWC-SET\CtApMapFusion\02_libs\CtApMapFusion.vxe:800bca04 000000c4 W _ZN9mapfusion12BlockManagerINS_12GlobalConfigILj4ELj6ELj2ELj2EEENS_9BaseBlockEE12popFreeBlockENS_11UpdateLogicEj
E:\zFAS-Jenkins\workspace\zFAS_AIT_Master_AAT\SW\0300_ApplicationLayer\branches\CL3_REL_320_3XX\0350_SWC-SET\CtApMapFusion\02_libs\CtApMapFusion.vxe:80060690 000000e8 W _ZN9mapfusion12BlockManagerINS_12GlobalConfigILj4ELj6ELj2ELj2EEENS_9BaseBlockEE12releaseBlockERNS3_IS2_EE
E:\zFAS-Jenkins\workspace\zFAS_AIT_Master_AAT\SW\0300_ApplicationLayer\branches\CL3_REL_320_3XX\0350_SWC-SET\CtApMapFusion\02_libs\CtApMapFusion.vxe:80056118 00000328 W _ZN9mapfusion12BlockManagerINS_12GlobalConfigILj4ELj6ELj2ELj2EEENS_9BaseBlockEE14getBlockConfigERjRfbRKNS4_17BlockConfigParamsE
E:\zFAS-Jenkins\workspace\zFAS_AIT_Master_AAT\SW\0300_ApplicationLayer\branches\CL3_REL_320_3XX\0350_SWC-SET\CtApMapFusion\02_libs\CtApMapFusion.vxe:800618c0 00000220 W _ZN9mapfusion12BlockManagerINS_12GlobalConfigILj4ELj6ELj2ELj2EEENS_9BaseBlockEE14readRoiPolygonEPKcjjRNS4_3RoiEj
E:\zFAS-Jenkins\workspace\zFAS_AIT_Master_AAT\SW\0300_ApplicationLayer\branches\CL3_REL_320_3XX\0350_SWC-SET\CtApMapFusion\02_libs\CtApMapFusion.vxe:80062e50 00000858 W _ZN9mapfusion12BlockManagerINS_12GlobalConfigILj4ELj6ELj2ELj2EEENS_9BaseBlockEE4initERNS4_10InitParamsE
E:\zFAS-Jenkins\workspace\zFAS_AIT_Master_AAT\SW\0300_ApplicationLayer\branches\CL3_REL_320_3XX\0350_SWC-SET\CtApMapFusion\02_libs\CtApMapFusion.vxe:80061ae0 000003c4 W _ZN9mapfusion12BlockManagerINS_12GlobalConfigILj4ELj6ELj2ELj2EEENS_9BaseBlockEE6getRoiERNS4_7RoiDataEPKcjNS5_7RoiTypeES8_j
E:\zFAS-Jenkins\workspace\zFAS_AIT_Master_AAT\SW\0300_ApplicationLayer\branches\CL3_REL_320_3XX\0350_SWC-SET\CtApMapFusion\02_libs\CtApMapFusion.vxe:80028414 00000134 W _ZN9mapfusion12BlockManagerINS_12GlobalConfigILj4ELj6ELj2ELj2EEENS_9BaseBlockEEC1ERNS_9ULManagerERNS_14TotalreflexionERNS_12HeightFusionE
E:\zFAS-Jenkins\workspace\zFAS_AIT_Master_AAT\SW\0300_ApplicationLayer\branches\CL3_REL_320_3XX\0350_SWC-SET\CtApMapFusion\02_libs\CtApMapFusion.vxe:80271754 000003e4 T _ZN9mapfusion12HeightFusion4initEv
E:\zFAS-Jenkins\workspace\zFAS_AIT_Master_AAT\SW\0300_ApplicationLayer\branches\CL3_REL_320_3XX\0350_SWC-SET\CtApMapFusion\02_libs\CtApMapFusion.vxe:80271738 0000001c T _ZN9mapfusion12HeightFusionC1Ev
E:\zFAS-Jenkins\workspace\zFAS_AIT_Master_AAT\SW\0300_ApplicationLayer\branches\CL3_REL_320_3XX\0350_SWC-SET\CtApMapFusion\02_libs\CtApMapFusion.vxe:80271738 0000001c T _ZN9mapfusion12HeightFusionC2Ev
E:\zFAS-Jenkins\workspace\zFAS_AIT_Master_AAT\SW\0300_ApplicationLayer\branches\CL3_REL_320_3XX\0350_SWC-SET\CtApMapFusion\02_libs\CtApMapFusion.vxe:8001ea24 00000020 W _ZN9mapfusion12IRasterCacheD0Ev
E:\zFAS-Jenkins\workspace\zFAS_AIT_Master_AAT\SW\0300_ApplicationLayer\branches\CL3_REL_320_3XX\0350_SWC-SET\CtApMapFusion\02_libs\CtApMapFusion.vxe:8001b318 00000010 W _ZN9mapfusion12IRasterCacheD1Ev
E:\zFAS-Jenkins\workspace\zFAS_AIT_Master_AAT\SW\0300_ApplicationLayer\branches\CL3_REL_320_3XX\0350_SWC-SET\CtApMapFusion\02_libs\CtApMapFusion.vxe:802e13f0 00000001 D _ZN9mapfusion12MemoryConfigILj5EE17initial_variance_E
E:\zFAS-Jenkins\workspace\zFAS_AIT_Master_AAT\SW\0300_ApplicationLayer\branches\CL3_REL_320_3XX\0350_SWC-SET\CtApMapFusion\02_libs\CtApMapFusion.vxe:8005cae4 000005f0 W _ZN9mapfusion12MfControllerINS_19MapFusionComponentsINS_24MapFusionComponentsTypesINS_12GlobalConfigILj4ELj6ELj2ELj2EEEN12errorhandler16InputHandlerZFASENS5_17OutputHandlerZFASEEEEEE10fillFencesEv
E:\zFAS-Jenkins\workspace\zFAS_AIT_Master_AAT\SW\0300_ApplicationLayer\branches\CL3_REL_320_3XX\0350_SWC-SET\CtApMapFusion\02_libs\CtApMapFusion.vxe:80258d58 0000033c W _ZN9mapfusion12MfControllerINS_19MapFusionComponentsINS_24MapFusionComponentsTypesINS_12GlobalConfigILj4ELj6ELj2ELj2EEEN12errorhandler16InputHandlerZFASENS5_17OutputHandlerZFASEEEEEE10processJobERNS_12ResultVectorERNS_9MfOdoDataERNS_3JobERNS_8JobStateE
E:\zFAS-Jenkins\workspace\zFAS_AIT_Master_AAT\SW\0300_ApplicationLayer\branches\CL3_REL_320_3XX\0350_SWC-SET\CtApMapFusion\02_libs\CtApMapFusion.vxe:80059728 000005fc W _ZN9mapfusion12MfControllerINS_19MapFusionComponentsINS_24MapFusionComponentsTypesINS_12GlobalConfigILj4ELj6ELj2ELj2EEEN12errorhandler16InputHandlerZFASENS5_17OutputHandlerZFASEEEEEE10startCycleERNS_9MfOdoDataE
E:\zFAS-Jenkins\workspace\zFAS_AIT_Master_AAT\SW\0300_ApplicationLayer\branches\CL3_REL_320_3XX\0350_SWC-SET\CtApMapFusion\02_libs\CtApMapFusion.vxe:80238a88 00000174 W _ZN9mapfusion12MfControllerINS_19MapFusionComponentsINS_24MapFusionComponentsTypesINS_12GlobalConfigILj4ELj6ELj2ELj2EEEN12errorhandler16InputHandlerZFASENS5_17OutputHandlerZFASEEEEEE13processSensorINS_13FencesAdapterINS_14IFencesAdapterIN9fencesapi10IFencesApiI28_Dt_RECORD_MRRObstacleFences29_Dt_RECORD_MRRObstacleContour28_Dt_RECORD_MRRObstacleVertexLj10ELj20ELj3ELj12EjjjEENS_6OCacheELj2097290ENS_22CommonPrioritySelectorEEENS_11QueueFencesISJ_EELj3EEEEEvRT_RKNS_3JobERKNS_15FusionParameterERb
E:\zFAS-Jenkins\workspace\zFAS_AIT_Master_AAT\SW\0300_ApplicationLayer\branches\CL3_REL_320_3XX\0350_SWC-SET\CtApMapFusion\02_libs\CtApMapFusion.vxe:80245340 00000344 W _ZN9mapfusion12MfControllerINS_19MapFusionComponentsINS_24MapFusionComponentsTypesINS_12GlobalConfigILj4ELj6ELj2ELj2EEEN12errorhandler16InputHandlerZFASENS5_17OutputHandlerZFASEEEEEE15processCarspaceERKNS_15FusionParameterERKj
E:\zFAS-Jenkins\workspace\zFAS_AIT_Master_AAT\SW\0300_ApplicationLayer\branches\CL3_REL_320_3XX\0350_SWC-SET\CtApMapFusion\02_libs\CtApMapFusion.vxe:800552ec 0000041c W _ZN9mapfusion12MfControllerINS_19MapFusionComponentsINS_24MapFusionComponentsTypesINS_12GlobalConfigILj4ELj6ELj2ELj2EEEN12errorhandler16InputHandlerZFASENS5_17OutputHandlerZFASEEEEEE16initCarSpaceDataEv
E:\zFAS-Jenkins\workspace\zFAS_AIT_Master_AAT\SW\0300_ApplicationLayer\branches\CL3_REL_320_3XX\0350_SWC-SET\CtApMapFusion\02_libs\CtApMapFusion.vxe:800666b8 0000029c W _ZN9mapfusion12MfControllerINS_19MapFusionComponentsINS_24MapFusionComponentsTypesINS_12GlobalConfigILj4ELj6ELj2ELj2EEEN12errorhandler16InputHandlerZFASENS5_17OutputHandlerZFASEEEEEE16initProcInstanceEv
E:\zFAS-Jenkins\workspace\zFAS_AIT_Master_AAT\SW\0300_ApplicationLayer\branches\CL3_REL_320_3XX\0350_SWC-SET\CtApMapFusion\02_libs\CtApMapFusion.vxe:802560b8 00000250 W _ZN9mapfusion12MfControllerINS_19MapFusionComponentsINS_24MapFusionComponentsTypesINS_12GlobalConfigILj4ELj6ELj2ELj2EEEN12errorhandler16InputHandlerZFASENS5_17OutputHandlerZFASEEEEEE16initReaderParamsINS_12ObjectReaderINS_12QueueObjectsIN9mlbevo30322MLBevoSensorObjectListEEELj3EEEEENS_10ResultTypeERT_
E:\zFAS-Jenkins\workspace\zFAS_AIT_Master_AAT\SW\0300_ApplicationLayer\branches\CL3_REL_320_3XX\0350_SWC-SET\CtApMapFusion\02_libs\CtApMapFusion.vxe:8005f944 000001e0 W _ZN9mapfusion12MfControllerINS_19MapFusionComponentsINS_24MapFusionComponentsTypesINS_12GlobalConfigILj4ELj6ELj2ELj2EEEN12errorhandler16InputHandlerZFASENS5_17OutputHandlerZFASEEEEEE16initReaderParamsINS_13FencesAdapterINS_14IFencesAdapterIN9fencesapi10IFencesApiI19_Dt_RECORD_MVFences20_Dt_RECORD_MVContour19_Dt_RECORD_MVVertexLj100ELj100ELj3ELj13ENSE_28MvFencesApiAdditionalMembersEjjEENS_6FCacheELj3072ENS_22CommonPrioritySelectorEEENS_11QueueFencesISK_EELj3EEEEENS_10ResultTypeERT_
E:\zFAS-Jenkins\workspace\zFAS_AIT_Master_AAT\SW\0300_ApplicationLayer\branches\CL3_REL_320_3XX\0350_SWC-SET\CtApMapFusion\02_libs\CtApMapFusion.vxe:8005f764 000001e0 W _ZN9mapfusion12MfControllerINS_19MapFusionComponentsINS_24MapFusionComponentsTypesINS_12GlobalConfigILj4ELj6ELj2ELj2EEEN12errorhandler16InputHandlerZFASENS5_17OutputHandlerZFASEEEEEE16initReaderParamsINS_13FencesAdapterINS_14IFencesAdapterIN9fencesapi10IFencesApiI19_Dt_RECORD_MVFences20_Dt_RECORD_MVContour19_Dt_RECORD_MVVertexLj100ELj100ELj3ELj13ENSE_28MvFencesApiAdditionalMembersEjjEENS_6OCacheELj2097290ENS_22CommonPrioritySelectorEEENS_11QueueFencesISK_EELj3EEEEENS_10ResultTypeERT_
E:\zFAS-Jenkins\workspace\zFAS_AIT_Master_AAT\SW\0300_ApplicationLayer\branches\CL3_REL_320_3XX\0350_SWC-SET\CtApMapFusion\02_libs\CtApMapFusion.vxe:8005e6cc 000001e0 W _ZN9mapfusion12MfControllerINS_19MapFusionComponentsINS_24MapFusionComponentsTypesINS_12GlobalConfigILj4ELj6ELj2ELj2EEEN12errorhandler16InputHandlerZFASENS5_17OutputHandlerZFASEEEEEE16initReaderParamsINS_13FencesAdapterINS_14IFencesAdapterIN9fencesapi10IFencesApiI27_Dt_RECORD_LSObstacleFences28_Dt_RECORD_LSObstacleContour27_Dt_RECORD_LSObstacleVertexLj64ELj350ELj3ELj12EjjjEENS_6OCacheELj2322459ENS_18LSPrioritySelectorEEENS_11QueueFencesISJ_EELj3EEEEENS_10ResultTypeERT_
E:\zFAS-Jenkins\workspace\zFAS_AIT_Master_AAT\SW\0300_ApplicationLayer\branches\CL3_REL_320_3XX\0350_SWC-SET\CtApMapFusion\02_libs\CtApMapFusion.vxe:8005f414 000001e0 W _ZN9mapfusion12MfControllerINS_19MapFusionComponentsINS_24MapFusionComponentsTypesINS_12GlobalConfigILj4ELj6ELj2ELj2EEEN12errorhandler16InputHandlerZFASENS5_17OutputHandlerZFASEEEEEE16initReaderParamsINS_13FencesAdapterINS_14IFencesAdapterIN9fencesapi10IFencesApiI27_Dt_RECORD_USObstacleFences28_Dt_RECORD_USObstacleContour27_Dt_RECORD_USObstacleVertexLj24ELj48ELj3ELj12ENSE_36UsObstacleFencesApiAdditionalMembersEjtEENS_6OCacheELj200799355ENS_18USPrioritySelectorEEENS_11QueueFencesISK_EELj5EEEEENS_10ResultTypeERT_
E:\zFAS-Jenkins\workspace\zFAS_AIT_Master_AAT\SW\0300_ApplicationLayer\branches\CL3_REL_320_3XX\0350_SWC-SET\CtApMapFusion\02_libs\CtApMapFusion.vxe:8005ea1c 000001e0 W _ZN9mapfusion12MfControllerINS_19MapFusionComponentsINS_24MapFusionComponentsTypesINS_12GlobalConfigILj4ELj6ELj2ELj2EEEN12errorhandler16InputHandlerZFASENS5_17OutputHandlerZFASEEEEEE16initReaderParamsINS_13FencesAdapterINS_14IFencesAdapterIN9fencesapi10IFencesApiI28_Dt_RECORD_LRRObstacleFences29_Dt_RECORD_LRRObstacleContour28_Dt_RECORD_LRRObstacleVertexLj10ELj20ELj3ELj12EjjjEENS_6OCacheELj2097290ENS_22CommonPrioritySelectorEEENS_11QueueFencesISJ_EELj3EEEEENS_10ResultTypeERT_
E:\zFAS-Jenkins\workspace\zFAS_AIT_Master_AAT\SW\0300_ApplicationLayer\branches\CL3_REL_320_3XX\0350_SWC-SET\CtApMapFusion\02_libs\CtApMapFusion.vxe:8005fc98 000001e0 W _ZN9mapfusion12MfControllerINS_19MapFusionComponentsINS_24MapFusionComponentsTypesINS_12GlobalConfigILj4ELj6ELj2ELj2EEEN12errorhandler16InputHandlerZFASENS5_17OutputHandlerZFASEEEEEE16initReaderParamsINS_13FencesAdapterINS_14IFencesAdapterIN9fencesapi10IFencesApiI28_Dt_RECORD_LSFreespaceFences29_Dt_RECORD_LSFreespaceContour28_Dt_RECORD_LSFreespaceVertexLj64ELj350ELj1ELj1EjNSE_34ZfasLsFreespaceContourApiAddMemberEjEENS_6FCacheELj2322459ENS_18LSPrioritySelectorEEENS_11QueueFencesISK_EELj3EEEEENS_10ResultTypeERT_
E:\zFAS-Jenkins\workspace\zFAS_AIT_Master_AAT\SW\0300_ApplicationLayer\branches\CL3_REL_320_3XX\0350_SWC-SET\CtApMapFusion\02_libs\CtApMapFusion.vxe:8005ed6c 000001e0 W _ZN9mapfusion12MfControllerINS_19MapFusionComponentsINS_24MapFusionComponentsTypesINS_12GlobalConfigILj4ELj6ELj2ELj2EEEN12errorhandler16InputHandlerZFASENS5_17OutputHandlerZFASEEEEEE16initReaderParamsINS_13FencesAdapterINS_14IFencesAdapterIN9fencesapi10IFencesApiI28_Dt_RECORD_MRRObstacleFences29_Dt_RECORD_MRRObstacleContour28_Dt_RECORD_MRRObstacleVertexLj10ELj20ELj3ELj12EjjjEENS_6OCacheELj2097290ENS_22CommonPrioritySelectorEEENS_11QueueFencesISJ_EELj3EEEEENS_10ResultTypeERT_
E:\zFAS-Jenkins\workspace\zFAS_AIT_Master_AAT\SW\0300_ApplicationLayer\branches\CL3_REL_320_3XX\0350_SWC-SET\CtApMapFusion\02_libs\CtApMapFusion.vxe:80060340 000001e0 W _ZN9mapfusion12MfControllerINS_19MapFusionComponentsINS_24MapFusionComponentsTypesINS_12GlobalConfigILj4ELj6ELj2ELj2EEEN12errorhandler16InputHandlerZFASENS5_17OutputHandlerZFASEEEEEE16initReaderParamsINS_13FencesAdapterINS_14IFencesAdapterIN9fencesapi10IFencesApiI28_Dt_RECORD_USFreespaceFences29_Dt_RECORD_USFreespaceContour28_Dt_RECORD_USFreespaceVertexLj48ELj192ELj1ELj1EjjjEENS_6FCacheELj200799355ENS_18USPrioritySelectorEEENS_11QueueFencesISJ_EELj5EEEEENS_10ResultTypeERT_
E:\zFAS-Jenkins\workspace\zFAS_AIT_Master_AAT\SW\0300_ApplicationLayer\branches\CL3_REL_320_3XX\0350_SWC-SET\CtApMapFusion\02_libs\CtApMapFusion.vxe:8005f0c0 000001e0 W _ZN9mapfusion12MfControllerINS_19MapFusionComponentsINS_24MapFusionComponentsTypesINS_12GlobalConfigILj4ELj6ELj2ELj2EEEN12errorhandler16InputHandlerZFASENS5_17OutputHandlerZFASEEEEEE16initReaderParamsINS_13FencesAdapterINS_14IFencesAdapterIN9fencesapi10IFencesApiI29_Dt_RECORD_TVBVObstacleFences30_Dt_RECORD_TVBVObstacleContour29_Dt_RECORD_TVBVObstacleVertexLj64ELj200ELj3ELj12EjjjEENS_6OCacheELj2191391ENS_20TVIPPrioritySelectorEEENS_11QueueFencesISJ_EELj4EEEEENS_10ResultTypeERT_
E:\zFAS-Jenkins\workspace\zFAS_AIT_Master_AAT\SW\0300_ApplicationLayer\branches\CL3_REL_320_3XX\0350_SWC-SET\CtApMapFusion\02_libs\CtApMapFusion.vxe:8005ffec 000001e0 W _ZN9mapfusion12MfControllerINS_19MapFusionComponentsINS_24MapFusionComponentsTypesINS_12GlobalConfigILj4ELj6ELj2ELj2EEEN12errorhandler16InputHandlerZFASENS5_17OutputHandlerZFASEEEEEE16initReaderParamsINS_13FencesAdapterINS_14IFencesAdapterIN9fencesapi10IFencesApiI30_Dt_RECORD_TVBVFreespaceFences31_Dt_RECORD_TVBVFreespaceContour30_Dt_RECORD_TVBVFreespaceVertexLj128ELj440ELj1ELj1EjjjEENS_6FCacheELj2191391ENS_20TVIPPrioritySelectorEEENS_11QueueFencesISJ_EELj4EEEEENS_10ResultTypeERT_
E:\zFAS-Jenkins\workspace\zFAS_AIT_Master_AAT\SW\0300_ApplicationLayer\branches\CL3_REL_320_3XX\0350_SWC-SET\CtApMapFusion\02_libs\CtApMapFusion.vxe:80054eec 000000d8 W _ZN9mapfusion12MfControllerINS_19MapFusionComponentsINS_24MapFusionComponentsTypesINS_12GlobalConfigILj4ELj6ELj2ELj2EEEN12errorhandler16InputHandlerZFASENS5_17OutputHandlerZFASEEEEEE17resetOutputFencesERNS_12ResultVectorE
E:\zFAS-Jenkins\workspace\zFAS_AIT_Master_AAT\SW\0300_ApplicationLayer\branches\CL3_REL_320_3XX\0350_SWC-SET\CtApMapFusion\02_libs\CtApMapFusion.vxe:80256c24 00000b08 W _ZN9mapfusion12MfControllerINS_19MapFusionComponentsINS_24MapFusionComponentsTypesINS_12GlobalConfigILj4ELj6ELj2ELj2EEEN12errorhandler16InputHandlerZFASENS5_17OutputHandlerZFASEEEEEE18processSensorQueueINS_12ObjectReaderINS_12QueueObjectsIN9mlbevo30322MLBevoSensorObjectListEEELj3EEEEEvRT_RKNS_15FusionParameterERKj
E:\zFAS-Jenkins\workspace\zFAS_AIT_Master_AAT\SW\0300_ApplicationLayer\branches\CL3_REL_320_3XX\0350_SWC-SET\CtApMapFusion\02_libs\CtApMapFusion.vxe:8024ac58 000010fc W _ZN9mapfusion12MfControllerINS_19MapFusionComponentsINS_24MapFusionComponentsTypesINS_12GlobalConfigILj4ELj6ELj2ELj2EEEN12errorhandler16InputHandlerZFASENS5_17OutputHandlerZFASEEEEEE18processSensorQueueINS_13FencesAdapterINS_14IFencesAdapterIN9fencesapi10IFencesApiI19_Dt_RECORD_MVFences20_Dt_RECORD_MVContour19_Dt_RECORD_MVVertexLj100ELj100ELj3ELj13ENSE_28MvFencesApiAdditionalMembersEjjEENS_6FCacheELj3072ENS_22CommonPrioritySelectorEEENS_11QueueFencesISK_EELj3EEEEEvRT_RKNS_15FusionParameterERKj
E:\zFAS-Jenkins\workspace\zFAS_AIT_Master_AAT\SW\0300_ApplicationLayer\branches\CL3_REL_320_3XX\0350_SWC-SET\CtApMapFusion\02_libs\CtApMapFusion.vxe:8023a350 000010fc W _ZN9mapfusion12MfControllerINS_19MapFusionComponentsINS_24MapFusionComponentsTypesINS_12GlobalConfigILj4ELj6ELj2ELj2EEEN12errorhandler16InputHandlerZFASENS5_17OutputHandlerZFASEEEEEE18processSensorQueueINS_13FencesAdapterINS_14IFencesAdapterIN9fencesapi10IFencesApiI19_Dt_RECORD_MVFences20_Dt_RECORD_MVContour19_Dt_RECORD_MVVertexLj100ELj100ELj3ELj13ENSE_28MvFencesApiAdditionalMembersEjjEENS_6OCacheELj2097290ENS_22CommonPrioritySelectorEEENS_11QueueFencesISK_EELj3EEEEEvRT_RKNS_15FusionParameterERKj
E:\zFAS-Jenkins\workspace\zFAS_AIT_Master_AAT\SW\0300_ApplicationLayer\branches\CL3_REL_320_3XX\0350_SWC-SET\CtApMapFusion\02_libs\CtApMapFusion.vxe:802315b0 00000c10 W _ZN9mapfusion12MfControllerINS_19MapFusionComponentsINS_24MapFusionComponentsTypesINS_12GlobalConfigILj4ELj6ELj2ELj2EEEN12errorhandler16InputHandlerZFASENS5_17OutputHandlerZFASEEEEEE18processSensorQueueINS_13FencesAdapterINS_14IFencesAdapterIN9fencesapi10IFencesApiI27_Dt_RECORD_LSObstacleFences28_Dt_RECORD_LSObstacleContour27_Dt_RECORD_LSObstacleVertexLj64ELj350ELj3ELj12EjjjEENS_6OCacheELj2322459ENS_18LSPrioritySelectorEEENS_11QueueFencesISJ_EELj3EEEEEvRT_RKNS_15FusionParameterERKj
E:\zFAS-Jenkins\workspace\zFAS_AIT_Master_AAT\SW\0300_ApplicationLayer\branches\CL3_REL_320_3XX\0350_SWC-SET\CtApMapFusion\02_libs\CtApMapFusion.vxe:8023f480 00000dc4 W _ZN9mapfusion12MfControllerINS_19MapFusionComponentsINS_24MapFusionComponentsTypesINS_12GlobalConfigILj4ELj6ELj2ELj2EEEN12errorhandler16InputHandlerZFASENS5_17OutputHandlerZFASEEEEEE18processSensorQueueINS_13FencesAdapterINS_14IFencesAdapterIN9fencesapi10IFencesApiI27_Dt_RECORD_USObstacleFences28_Dt_RECORD_USObstacleContour27_Dt_RECORD_USObstacleVertexLj24ELj48ELj3ELj12ENSE_36UsObstacleFencesApiAdditionalMembersEjtEENS_6OCacheELj200799355ENS_18USPrioritySelectorEEENS_11QueueFencesISK_EELj5EEEEEvRT_RKNS_15FusionParameterERKj
E:\zFAS-Jenkins\workspace\zFAS_AIT_Master_AAT\SW\0300_ApplicationLayer\branches\CL3_REL_320_3XX\0350_SWC-SET\CtApMapFusion\02_libs\CtApMapFusion.vxe:80235cac 00000bd8 W _ZN9mapfusion12MfControllerINS_19MapFusionComponentsINS_24MapFusionComponentsTypesINS_12GlobalConfigILj4ELj6ELj2ELj2EEEN12errorhandler16InputHandlerZFASENS5_17OutputHandlerZFASEEEEEE18processSensorQueueINS_13FencesAdapterINS_14IFencesAdapterIN9fencesapi10IFencesApiI28_Dt_RECORD_LRRObstacleFences29_Dt_RECORD_LRRObstacleContour28_Dt_RECORD_LRRObstacleVertexLj10ELj20ELj3ELj12EjjjEENS_6OCacheELj2097290ENS_22CommonPrioritySelectorEEENS_11QueueFencesISJ_EELj3EEEEEvRT_RKNS_15FusionParameterERKj
E:\zFAS-Jenkins\workspace\zFAS_AIT_Master_AAT\SW\0300_ApplicationLayer\branches\CL3_REL_320_3XX\0350_SWC-SET\CtApMapFusion\02_libs\CtApMapFusion.vxe:8024795c 00000c20 W _ZN9mapfusion12MfControllerINS_19MapFusionComponentsINS_24MapFusionComponentsTypesINS_12GlobalConfigILj4ELj6ELj2ELj2EEEN12errorhandler16InputHandlerZFASENS5_17OutputHandlerZFASEEEEEE18processSensorQueueINS_13FencesAdapterINS_14IFencesAdapterIN9fencesapi10IFencesApiI28_Dt_RECORD_LSFreespaceFences29_Dt_RECORD_LSFreespaceContour28_Dt_RECORD_LSFreespaceVertexLj64ELj350ELj1ELj1EjNSE_34ZfasLsFreespaceContourApiAddMemberEjEENS_6FCacheELj2322459ENS_18LSPrioritySelectorEEENS_11QueueFencesISK_EELj3EEEEEvRT_RKNS_15FusionParameterERKj
E:\zFAS-Jenkins\workspace\zFAS_AIT_Master_AAT\SW\0300_ApplicationLayer\branches\CL3_REL_320_3XX\0350_SWC-SET\CtApMapFusion\02_libs\CtApMapFusion.vxe:80237eb0 00000bd8 W _ZN9mapfusion12MfControllerINS_19MapFusionComponentsINS_24MapFusionComponentsTypesINS_12GlobalConfigILj4ELj6ELj2ELj2EEEN12errorhandler16InputHandlerZFASENS5_17OutputHandlerZFASEEEEEE18processSensorQueueINS_13FencesAdapterINS_14IFencesAdapterIN9fencesapi10IFencesApiI28_Dt_RECORD_MRRObstacleFences29_Dt_RECORD_MRRObstacleContour28_Dt_RECORD_MRRObstacleVertexLj10ELj20ELj3ELj12EjjjEENS_6OCacheELj2097290ENS_22CommonPrioritySelectorEEENS_11QueueFencesISJ_EELj3EEEEEvRT_RKNS_15FusionParameterERKj
E:\zFAS-Jenkins\workspace\zFAS_AIT_Master_AAT\SW\0300_ApplicationLayer\branches\CL3_REL_320_3XX\0350_SWC-SET\CtApMapFusion\02_libs\CtApMapFusion.vxe:802510c4 00000bfc W _ZN9mapfusion12MfControllerINS_19MapFusionComponentsINS_24MapFusionComponentsTypesINS_12GlobalConfigILj4ELj6ELj2ELj2EEEN12errorhandler16InputHandlerZFASENS5_17OutputHandlerZFASEEEEEE18processSensorQueueINS_13FencesAdapterINS_14IFencesAdapterIN9fencesapi10IFencesApiI28_Dt_RECORD_USFreespaceFences29_Dt_RECORD_USFreespaceContour28_Dt_RECORD_USFreespaceVertexLj48ELj192ELj1ELj1EjjjEENS_6FCacheELj200799355ENS_18USPrioritySelectorEEENS_11QueueFencesISJ_EELj5EEEEEvRT_RKNS_15FusionParameterERKj
E:\zFAS-Jenkins\workspace\zFAS_AIT_Master_AAT\SW\0300_ApplicationLayer\branches\CL3_REL_320_3XX\0350_SWC-SET\CtApMapFusion\02_libs\CtApMapFusion.vxe:8023cc9c 00000c08 W _ZN9mapfusion12MfControllerINS_19MapFusionComponentsINS_24MapFusionComponentsTypesINS_12GlobalConfigILj4ELj6ELj2ELj2EEEN12errorhandler16InputHandlerZFASENS5_17OutputHandlerZFASEEEEEE18processSensorQueueINS_13FencesAdapterINS_14IFencesAdapterIN9fencesapi10IFencesApiI29_Dt_RECORD_TVBVObstacleFences30_Dt_RECORD_TVBVObstacleContour29_Dt_RECORD_TVBVObstacleVertexLj64ELj200ELj3ELj12EjjjEENS_6OCacheELj2191391ENS_20TVIPPrioritySelectorEEENS_11QueueFencesISJ_EELj4EEEEEvRT_RKNS_15FusionParameterERKj
E:\zFAS-Jenkins\workspace\zFAS_AIT_Master_AAT\SW\0300_ApplicationLayer\branches\CL3_REL_320_3XX\0350_SWC-SET\CtApMapFusion\02_libs\CtApMapFusion.vxe:8024df80 00000c44 W _ZN9mapfusion12MfControllerINS_19MapFusionComponentsINS_24MapFusionComponentsTypesINS_12GlobalConfigILj4ELj6ELj2ELj2EEEN12errorhandler16InputHandlerZFASENS5_17OutputHandlerZFASEEEEEE18processSensorQueueINS_13FencesAdapterINS_14IFencesAdapterIN9fencesapi10IFencesApiI30_Dt_RECORD_TVBVFreespaceFences31_Dt_RECORD_TVBVFreespaceContour30_Dt_RECORD_TVBVFreespaceVertexLj128ELj440ELj1ELj1EjjjEENS_6FCacheELj2191391ENS_20TVIPPrioritySelectorEEENS_11QueueFencesISJ_EELj4EEEEEvRT_RKNS_15FusionParameterERKj
E:\zFAS-Jenkins\workspace\zFAS_AIT_Master_AAT\SW\0300_ApplicationLayer\branches\CL3_REL_320_3XX\0350_SWC-SET\CtApMapFusion\02_libs\CtApMapFusion.vxe:80051258 0000003c W _ZN9mapfusion12MfControllerINS_19MapFusionComponentsINS_24MapFusionComponentsTypesINS_12GlobalConfigILj4ELj6ELj2ELj2EEEN12errorhandler16InputHandlerZFASENS5_17OutputHandlerZFASEEEEEE19ContourAgeDistEntry6sortFnERKSB_SD_
E:\zFAS-Jenkins\workspace\zFAS_AIT_Master_AAT\SW\0300_ApplicationLayer\branches\CL3_REL_320_3XX\0350_SWC-SET\CtApMapFusion\02_libs\CtApMapFusion.vxe:80055708 00000444 W _ZN9mapfusion12MfControllerINS_19MapFusionComponentsINS_24MapFusionComponentsTypesINS_12GlobalConfigILj4ELj6ELj2ELj2EEEN12errorhandler16InputHandlerZFASENS5_17OutputHandlerZFASEEEEEE20initOutputSortParamsEv
E:\zFAS-Jenkins\workspace\zFAS_AIT_Master_AAT\SW\0300_ApplicationLayer\branches\CL3_REL_320_3XX\0350_SWC-SET\CtApMapFusion\02_libs\CtApMapFusion.vxe:8024377c 00000288 W _ZN9mapfusion12MfControllerINS_19MapFusionComponentsINS_24MapFusionComponentsTypesINS_12GlobalConfigILj4ELj6ELj2ELj2EEEN12errorhandler16InputHandlerZFASENS5_17OutputHandlerZFASEEEEEE20processInternalFenceINS_14IFencesAdapterIN9fencesapi10IFencesApiIN15fencesinterface17FencesLightStructENSF_7ContourENSF_6VertexELj250ELj500ELj5ELj31EjjjEENS_6OCacheELj2097152ENS_22CommonPrioritySelectorEEEEEvRT_RKjttt
E:\zFAS-Jenkins\workspace\zFAS_AIT_Master_AAT\SW\0300_ApplicationLayer\branches\CL3_REL_320_3XX\0350_SWC-SET\CtApMapFusion\02_libs\CtApMapFusion.vxe:80241b9c 00000288 W _ZN9mapfusion12MfControllerINS_19MapFusionComponentsINS_24MapFusionComponentsTypesINS_12GlobalConfigILj4ELj6ELj2ELj2EEEN12errorhandler16InputHandlerZFASENS5_17OutputHandlerZFASEEEEEE20processInternalFenceINS_14IFencesAdapterIN9fencesapi10IFencesApiIN15fencesinterface17FencesLightStructENSF_7ContourENSF_6VertexELj250ELj500ELj5ELj31EjjjEENS_6OCacheELj2097154ENS_22CommonPrioritySelectorEEEEEvRT_RKjttt
E:\zFAS-Jenkins\workspace\zFAS_AIT_Master_AAT\SW\0300_ApplicationLayer\branches\CL3_REL_320_3XX\0350_SWC-SET\CtApMapFusion\02_libs\CtApMapFusion.vxe:8005c1b8 0000092c W _ZN9mapfusion12MfControllerINS_19MapFusionComponentsINS_24MapFusionComponentsTypesINS_12GlobalConfigILj4ELj6ELj2ELj2EEEN12errorhandler16InputHandlerZFASENS5_17OutputHandlerZFASEEEEEE21loopOverVertexBuffersERA5_NS_10ResultTypeERA3_KPKNS_15TmpVertexBufferERKN14audifusionbase13TVectorStaticINSA_19ContourAgeDistEntryELj1024EEERA3_SB_NS_4stg317StageThreeCommandE
E:\zFAS-Jenkins\workspace\zFAS_AIT_Master_AAT\SW\0300_ApplicationLayer\branches\CL3_REL_320_3XX\0350_SWC-SET\CtApMapFusion\02_libs\CtApMapFusion.vxe:800551ac 00000140 W _ZN9mapfusion12MfControllerINS_19MapFusionComponentsINS_24MapFusionComponentsTypesINS_12GlobalConfigILj4ELj6ELj2ELj2EEEN12errorhandler16InputHandlerZFASENS5_17OutputHandlerZFASEEEEEE22setCarspaceFromOutlineERKN14audifusionbase13TVectorStaticI12FloatPoint2DLj22EEE
E:\zFAS-Jenkins\workspace\zFAS_AIT_Master_AAT\SW\0300_ApplicationLayer\branches\CL3_REL_320_3XX\0350_SWC-SET\CtApMapFusion\02_libs\CtApMapFusion.vxe:80058da0 00000988 W _ZN9mapfusion12MfControllerINS_19MapFusionComponentsINS_24MapFusionComponentsTypesINS_12GlobalConfigILj4ELj6ELj2ELj2EEEN12errorhandler16InputHandlerZFASENS5_17OutputHandlerZFASEEEEEE23invokeOutlineEstimationERKNS_9MfOdoDataE
E:\zFAS-Jenkins\workspace\zFAS_AIT_Master_AAT\SW\0300_ApplicationLayer\branches\CL3_REL_320_3XX\0350_SWC-SET\CtApMapFusion\02_libs\CtApMapFusion.vxe:80055b4c 000005cc W _ZN9mapfusion12MfControllerINS_19MapFusionComponentsINS_24MapFusionComponentsTypesINS_12GlobalConfigILj4ELj6ELj2ELj2EEEN12errorhandler16InputHandlerZFASENS5_17OutputHandlerZFASEEEEEE24initializeStage3InstacesEv
E:\zFAS-Jenkins\workspace\zFAS_AIT_Master_AAT\SW\0300_ApplicationLayer\branches\CL3_REL_320_3XX\0350_SWC-SET\CtApMapFusion\02_libs\CtApMapFusion.vxe:8025642c 0000054c W _ZN9mapfusion12MfControllerINS_19MapFusionComponentsINS_24MapFusionComponentsTypesINS_12GlobalConfigILj4ELj6ELj2ELj2EEEN12errorhandler16InputHandlerZFASENS5_17OutputHandlerZFASEEEEEE4initENS_10ResultTypeEj
E:\zFAS-Jenkins\workspace\zFAS_AIT_Master_AAT\SW\0300_ApplicationLayer\branches\CL3_REL_320_3XX\0350_SWC-SET\CtApMapFusion\02_libs\CtApMapFusion.vxe:80060b00 0000058c W _ZN9mapfusion12MfControllerINS_19MapFusionComponentsINS_24MapFusionComponentsTypesINS_12GlobalConfigILj4ELj6ELj2ELj2EEEN12errorhandler16InputHandlerZFASENS5_17OutputHandlerZFASEEEEEE5resetEv
E:\zFAS-Jenkins\workspace\zFAS_AIT_Master_AAT\SW\0300_ApplicationLayer\branches\CL3_REL_320_3XX\0350_SWC-SET\CtApMapFusion\02_libs\CtApMapFusion.vxe:800bdfe8 00000440 W _ZN9mapfusion12MfControllerINS_19MapFusionComponentsINS_24MapFusionComponentsTypesINS_12GlobalConfigILj4ELj6ELj2ELj2EEEN12errorhandler16InputHandlerZFASENS5_17OutputHandlerZFASEEEEEE5shiftERKNS_3JobERNS_12ResultVectorE
E:\zFAS-Jenkins\workspace\zFAS_AIT_Master_AAT\SW\0300_ApplicationLayer\branches\CL3_REL_320_3XX\0350_SWC-SET\CtApMapFusion\02_libs\CtApMapFusion.vxe:8025772c 0000162c W _ZN9mapfusion12MfControllerINS_19MapFusionComponentsINS_24MapFusionComponentsTypesINS_12GlobalConfigILj4ELj6ELj2ELj2EEEN12errorhandler16InputHandlerZFASENS5_17OutputHandlerZFASEEEEEE6updateERKNS_3JobERKNS_15FusionParameterERNS_12ResultVectorE
E:\zFAS-Jenkins\workspace\zFAS_AIT_Master_AAT\SW\0300_ApplicationLayer\branches\CL3_REL_320_3XX\0350_SWC-SET\CtApMapFusion\02_libs\CtApMapFusion.vxe:8005d0d4 0000087c W _ZN9mapfusion12MfControllerINS_19MapFusionComponentsINS_24MapFusionComponentsTypesINS_12GlobalConfigILj4ELj6ELj2ELj2EEEN12errorhandler16InputHandlerZFASENS5_17OutputHandlerZFASEEEEEE7extractERKNS_3JobERNS_12ResultVectorE
E:\zFAS-Jenkins\workspace\zFAS_AIT_Master_AAT\SW\0300_ApplicationLayer\branches\CL3_REL_320_3XX\0350_SWC-SET\CtApMapFusion\02_libs\CtApMapFusion.vxe:80054fc4 000001e8 W _ZN9mapfusion12MfControllerINS_19MapFusionComponentsINS_24MapFusionComponentsTypesINS_12GlobalConfigILj4ELj6ELj2ELj2EEEN12errorhandler16InputHandlerZFASENS5_17OutputHandlerZFASEEEEEE8endCycleERNS_12ResultVectorE
E:\zFAS-Jenkins\workspace\zFAS_AIT_Master_AAT\SW\0300_ApplicationLayer\branches\CL3_REL_320_3XX\0350_SWC-SET\CtApMapFusion\02_libs\CtApMapFusion.vxe:80027ddc 000002bc W _ZN9mapfusion12MfControllerINS_19MapFusionComponentsINS_24MapFusionComponentsTypesINS_12GlobalConfigILj4ELj6ELj2ELj2EEEN12errorhandler16InputHandlerZFASENS5_17OutputHandlerZFASEEEEEEC1ERS9_
E:\zFAS-Jenkins\workspace\zFAS_AIT_Master_AAT\SW\0300_ApplicationLayer\branches\CL3_REL_320_3XX\0350_SWC-SET\CtApMapFusion\02_libs\CtApMapFusion.vxe:8001eff4 00000030 W _ZN9mapfusion12MfControllerINS_19MapFusionComponentsINS_24MapFusionComponentsTypesINS_12GlobalConfigILj4ELj6ELj2ELj2EEEN12errorhandler16InputHandlerZFASENS5_17OutputHandlerZFASEEEEEED0Ev
E:\zFAS-Jenkins\workspace\zFAS_AIT_Master_AAT\SW\0300_ApplicationLayer\branches\CL3_REL_320_3XX\0350_SWC-SET\CtApMapFusion\02_libs\CtApMapFusion.vxe:8001b664 00000020 W _ZN9mapfusion12MfControllerINS_19MapFusionComponentsINS_24MapFusionComponentsTypesINS_12GlobalConfigILj4ELj6ELj2ELj2EEEN12errorhandler16InputHandlerZFASENS5_17OutputHandlerZFASEEEEEED1Ev
E:\zFAS-Jenkins\workspace\zFAS_AIT_Master_AAT\SW\0300_ApplicationLayer\branches\CL3_REL_320_3XX\0350_SWC-SET\CtApMapFusion\02_libs\CtApMapFusion.vxe:8027dd80 000001c0 T _ZN9mapfusion12NormalCDFLUT4ncdfEd
E:\zFAS-Jenkins\workspace\zFAS_AIT_Master_AAT\SW\0300_ApplicationLayer\branches\CL3_REL_320_3XX\0350_SWC-SET\CtApMapFusion\02_libs\CtApMapFusion.vxe:8027df40 00000078 T _ZN9mapfusion12NormalCDFLUTC1Ev
E:\zFAS-Jenkins\workspace\zFAS_AIT_Master_AAT\SW\0300_ApplicationLayer\branches\CL3_REL_320_3XX\0350_SWC-SET\CtApMapFusion\02_libs\CtApMapFusion.vxe:8027df40 00000078 T _ZN9mapfusion12NormalCDFLUTC2Ev
E:\zFAS-Jenkins\workspace\zFAS_AIT_Master_AAT\SW\0300_ApplicationLayer\branches\CL3_REL_320_3XX\0350_SWC-SET\CtApMapFusion\02_libs\CtApMapFusion.vxe:80256978 000002ac W _ZN9mapfusion12ObjectReaderINS_12QueueObjectsIN9mlbevo30322MLBevoSensorObjectListEEELj3EE8getEntryERNS_10ResultTypeEj
E:\zFAS-Jenkins\workspace\zFAS_AIT_Master_AAT\SW\0300_ApplicationLayer\branches\CL3_REL_320_3XX\0350_SWC-SET\CtApMapFusion\02_libs\CtApMapFusion.vxe:8027d614 0000006c T _ZN9mapfusion12stringAppendERA256_cPKc
E:\zFAS-Jenkins\workspace\zFAS_AIT_Master_AAT\SW\0300_ApplicationLayer\branches\CL3_REL_320_3XX\0350_SWC-SET\CtApMapFusion\02_libs\CtApMapFusion.vxe:80264e24 000002fc T _ZN9mapfusion13CommonPreProc4initEPKc
E:\zFAS-Jenkins\workspace\zFAS_AIT_Master_AAT\SW\0300_ApplicationLayer\branches\CL3_REL_320_3XX\0350_SWC-SET\CtApMapFusion\02_libs\CtApMapFusion.vxe:80264e08 0000001c T _ZN9mapfusion13CommonPreProcC1Ev
E:\zFAS-Jenkins\workspace\zFAS_AIT_Master_AAT\SW\0300_ApplicationLayer\branches\CL3_REL_320_3XX\0350_SWC-SET\CtApMapFusion\02_libs\CtApMapFusion.vxe:80264e08 0000001c T _ZN9mapfusion13CommonPreProcC2Ev
E:\zFAS-Jenkins\workspace\zFAS_AIT_Master_AAT\SW\0300_ApplicationLayer\branches\CL3_REL_320_3XX\0350_SWC-SET\CtApMapFusion\02_libs\CtApMapFusion.vxe:8026e6c0 000000dc T _ZN9mapfusion13FeatureBuffer13getAllEntriesERN14audifusionbase16StaticRingBufferIPNS_13TriangFeatureELj64EEE
E:\zFAS-Jenkins\workspace\zFAS_AIT_Master_AAT\SW\0300_ApplicationLayer\branches\CL3_REL_320_3XX\0350_SWC-SET\CtApMapFusion\02_libs\CtApMapFusion.vxe:8026e5d8 000000e8 T _ZN9mapfusion13FeatureBuffer16getValidFeaturesERN14audifusionbase16StaticRingBufferIPNS_13TriangFeatureELj64EEE
E:\zFAS-Jenkins\workspace\zFAS_AIT_Master_AAT\SW\0300_ApplicationLayer\branches\CL3_REL_320_3XX\0350_SWC-SET\CtApMapFusion\02_libs\CtApMapFusion.vxe:8026e308 00000138 T _ZN9mapfusion13FeatureBuffer3addERKNS_13TriangFeatureE
E:\zFAS-Jenkins\workspace\zFAS_AIT_Master_AAT\SW\0300_ApplicationLayer\branches\CL3_REL_320_3XX\0350_SWC-SET\CtApMapFusion\02_libs\CtApMapFusion.vxe:8026e2f4 00000014 T _ZN9mapfusion13FeatureBuffer4initERKj
E:\zFAS-Jenkins\workspace\zFAS_AIT_Master_AAT\SW\0300_ApplicationLayer\branches\CL3_REL_320_3XX\0350_SWC-SET\CtApMapFusion\02_libs\CtApMapFusion.vxe:8026e440 00000198 T _ZN9mapfusion13FeatureBuffer5shiftERK6Pose2DfRKy
E:\zFAS-Jenkins\workspace\zFAS_AIT_Master_AAT\SW\0300_ApplicationLayer\branches\CL3_REL_320_3XX\0350_SWC-SET\CtApMapFusion\02_libs\CtApMapFusion.vxe:8026e1f8 000000fc T _ZN9mapfusion13FeatureBufferC1Ev
E:\zFAS-Jenkins\workspace\zFAS_AIT_Master_AAT\SW\0300_ApplicationLayer\branches\CL3_REL_320_3XX\0350_SWC-SET\CtApMapFusion\02_libs\CtApMapFusion.vxe:8026e1f8 000000fc T _ZN9mapfusion13FeatureBufferC2Ev
E:\zFAS-Jenkins\workspace\zFAS_AIT_Master_AAT\SW\0300_ApplicationLayer\branches\CL3_REL_320_3XX\0350_SWC-SET\CtApMapFusion\02_libs\CtApMapFusion.vxe:8026e1cc 0000002c T _ZN9mapfusion13FeatureBufferD0Ev
E:\zFAS-Jenkins\workspace\zFAS_AIT_Master_AAT\SW\0300_ApplicationLayer\branches\CL3_REL_320_3XX\0350_SWC-SET\CtApMapFusion\02_libs\CtApMapFusion.vxe:8026e1b0 0000001c T _ZN9mapfusion13FeatureBufferD1Ev
E:\zFAS-Jenkins\workspace\zFAS_AIT_Master_AAT\SW\0300_ApplicationLayer\branches\CL3_REL_320_3XX\0350_SWC-SET\CtApMapFusion\02_libs\CtApMapFusion.vxe:8026e1b0 0000001c T _ZN9mapfusion13FeatureBufferD2Ev
E:\zFAS-Jenkins\workspace\zFAS_AIT_Master_AAT\SW\0300_ApplicationLayer\branches\CL3_REL_320_3XX\0350_SWC-SET\CtApMapFusion\02_libs\CtApMapFusion.vxe:80261268 00000138 T _ZN9mapfusion13MemController17getMemoryFromPoolEjNS0_9AlignmentE
E:\zFAS-Jenkins\workspace\zFAS_AIT_Master_AAT\SW\0300_ApplicationLayer\branches\CL3_REL_320_3XX\0350_SWC-SET\CtApMapFusion\02_libs\CtApMapFusion.vxe:8026125c 0000000c T _ZN9mapfusion13MemController4initEv
E:\zFAS-Jenkins\workspace\zFAS_AIT_Master_AAT\SW\0300_ApplicationLayer\branches\CL3_REL_320_3XX\0350_SWC-SET\CtApMapFusion\02_libs\CtApMapFusion.vxe:80261244 00000018 T _ZN9mapfusion13MemControllerC1Ev
E:\zFAS-Jenkins\workspace\zFAS_AIT_Master_AAT\SW\0300_ApplicationLayer\branches\CL3_REL_320_3XX\0350_SWC-SET\CtApMapFusion\02_libs\CtApMapFusion.vxe:80261244 00000018 T _ZN9mapfusion13MemControllerC2Ev
E:\zFAS-Jenkins\workspace\zFAS_AIT_Master_AAT\SW\0300_ApplicationLayer\branches\CL3_REL_320_3XX\0350_SWC-SET\CtApMapFusion\02_libs\CtApMapFusion.vxe:8026aee4 00000134 T _ZN9mapfusion13ModeSelection17getModeFromParamsEj
E:\zFAS-Jenkins\workspace\zFAS_AIT_Master_AAT\SW\0300_ApplicationLayer\branches\CL3_REL_320_3XX\0350_SWC-SET\CtApMapFusion\02_libs\CtApMapFusion.vxe:8026ab40 00000100 T _ZN9mapfusion13ModeSelection19getModeIdFromParamsENS0_4ModeEPKc
E:\zFAS-Jenkins\workspace\zFAS_AIT_Master_AAT\SW\0300_ApplicationLayer\branches\CL3_REL_320_3XX\0350_SWC-SET\CtApMapFusion\02_libs\CtApMapFusion.vxe:8026aa10 000000d8 T _ZN9mapfusion13ModeSelection20getModeTjpFromParamsERNS0_4ModeEPKc
E:\zFAS-Jenkins\workspace\zFAS_AIT_Master_AAT\SW\0300_ApplicationLayer\branches\CL3_REL_320_3XX\0350_SWC-SET\CtApMapFusion\02_libs\CtApMapFusion.vxe:8026a948 000000c8 T _ZN9mapfusion13ModeSelection21getNumModesFromParamsEv
E:\zFAS-Jenkins\workspace\zFAS_AIT_Master_AAT\SW\0300_ApplicationLayer\branches\CL3_REL_320_3XX\0350_SWC-SET\CtApMapFusion\02_libs\CtApMapFusion.vxe:8026ac40 000000f0 T _ZN9mapfusion13ModeSelection23getModeRadiusFromParamsENS0_4ModeEPKc
E:\zFAS-Jenkins\workspace\zFAS_AIT_Master_AAT\SW\0300_ApplicationLayer\branches\CL3_REL_320_3XX\0350_SWC-SET\CtApMapFusion\02_libs\CtApMapFusion.vxe:8026aae8 00000058 T _ZN9mapfusion13ModeSelection24checkIfNewModeCanBeAddedENS0_4ModeEj
E:\zFAS-Jenkins\workspace\zFAS_AIT_Master_AAT\SW\0300_ApplicationLayer\branches\CL3_REL_320_3XX\0350_SWC-SET\CtApMapFusion\02_libs\CtApMapFusion.vxe:8026ad30 000001b4 T _ZN9mapfusion13ModeSelection25getModeVelocityFromParamsENS0_4ModeEPKc
E:\zFAS-Jenkins\workspace\zFAS_AIT_Master_AAT\SW\0300_ApplicationLayer\branches\CL3_REL_320_3XX\0350_SWC-SET\CtApMapFusion\02_libs\CtApMapFusion.vxe:8026b018 0000009c T _ZN9mapfusion13ModeSelection4initEv
E:\zFAS-Jenkins\workspace\zFAS_AIT_Master_AAT\SW\0300_ApplicationLayer\branches\CL3_REL_320_3XX\0350_SWC-SET\CtApMapFusion\02_libs\CtApMapFusion.vxe:8026a8f4 00000054 T _ZN9mapfusion13ModeSelection7cleanUpEv
E:\zFAS-Jenkins\workspace\zFAS_AIT_Master_AAT\SW\0300_ApplicationLayer\branches\CL3_REL_320_3XX\0350_SWC-SET\CtApMapFusion\02_libs\CtApMapFusion.vxe:8026a89c 00000058 T _ZN9mapfusion13ModeSelectionC1Ev
E:\zFAS-Jenkins\workspace\zFAS_AIT_Master_AAT\SW\0300_ApplicationLayer\branches\CL3_REL_320_3XX\0350_SWC-SET\CtApMapFusion\02_libs\CtApMapFusion.vxe:8026a89c 00000058 T _ZN9mapfusion13ModeSelectionC2Ev
E:\zFAS-Jenkins\workspace\zFAS_AIT_Master_AAT\SW\0300_ApplicationLayer\branches\CL3_REL_320_3XX\0350_SWC-SET\CtApMapFusion\02_libs\CtApMapFusion.vxe:80273be4 00000894 T _ZN9mapfusion13OdoController11interpolateERNS_9MfOdoDataERKS1_S4_RK9TimeStamp
E:\zFAS-Jenkins\workspace\zFAS_AIT_Master_AAT\SW\0300_ApplicationLayer\branches\CL3_REL_320_3XX\0350_SWC-SET\CtApMapFusion\02_libs\CtApMapFusion.vxe:8027540c 000000b4 T _ZN9mapfusion13OdoController11isPoseValidERKNS_9MfOdoDataE
E:\zFAS-Jenkins\workspace\zFAS_AIT_Master_AAT\SW\0300_ApplicationLayer\branches\CL3_REL_320_3XX\0350_SWC-SET\CtApMapFusion\02_libs\CtApMapFusion.vxe:80274dc0 00000060 T _ZN9mapfusion13OdoController11predictPoseERNS_9MfOdoDataERKN14audifusionbase15IteratorBoundedIKS1_EERKy
E:\zFAS-Jenkins\workspace\zFAS_AIT_Master_AAT\SW\0300_ApplicationLayer\branches\CL3_REL_320_3XX\0350_SWC-SET\CtApMapFusion\02_libs\CtApMapFusion.vxe:80275794 00000150 T _ZN9mapfusion13OdoController12initBasePoseEff
E:\zFAS-Jenkins\workspace\zFAS_AIT_Master_AAT\SW\0300_ApplicationLayer\branches\CL3_REL_320_3XX\0350_SWC-SET\CtApMapFusion\02_libs\CtApMapFusion.vxe:802754c0 000002b0 T _ZN9mapfusion13OdoController14isOdoConfidentEfb
E:\zFAS-Jenkins\workspace\zFAS_AIT_Master_AAT\SW\0300_ApplicationLayer\branches\CL3_REL_320_3XX\0350_SWC-SET\CtApMapFusion\02_libs\CtApMapFusion.vxe:802751bc 00000130 T _ZN9mapfusion13OdoController14updateBasePoseER6Pose2DR9TimeStampRNS_9MfOdoDataE
E:\zFAS-Jenkins\workspace\zFAS_AIT_Master_AAT\SW\0300_ApplicationLayer\branches\CL3_REL_320_3XX\0350_SWC-SET\CtApMapFusion\02_libs\CtApMapFusion.vxe:802753c4 00000048 T _ZN9mapfusion13OdoController15isPoseBestGuessERKNS_9MfOdoDataE
E:\zFAS-Jenkins\workspace\zFAS_AIT_Master_AAT\SW\0300_ApplicationLayer\branches\CL3_REL_320_3XX\0350_SWC-SET\CtApMapFusion\02_libs\CtApMapFusion.vxe:80273524 00000218 T _ZN9mapfusion13OdoController17addOdoMeasurementERKNS_9MfOdoDataE
E:\zFAS-Jenkins\workspace\zFAS_AIT_Master_AAT\SW\0300_ApplicationLayer\branches\CL3_REL_320_3XX\0350_SWC-SET\CtApMapFusion\02_libs\CtApMapFusion.vxe:802734a0 00000084 T _ZN9mapfusion13OdoController17checkOdoActualityERK9TimeStamp
E:\zFAS-Jenkins\workspace\zFAS_AIT_Master_AAT\SW\0300_ApplicationLayer\branches\CL3_REL_320_3XX\0350_SWC-SET\CtApMapFusion\02_libs\CtApMapFusion.vxe:80275378 0000004c T _ZN9mapfusion13OdoController17isPoseUnconfidentERKNS_9MfOdoDataE
E:\zFAS-Jenkins\workspace\zFAS_AIT_Master_AAT\SW\0300_ApplicationLayer\branches\CL3_REL_320_3XX\0350_SWC-SET\CtApMapFusion\02_libs\CtApMapFusion.vxe:80275930 0000009c T _ZN9mapfusion13OdoController17markSampleInvalidENS_10ResultTypeE
E:\zFAS-Jenkins\workspace\zFAS_AIT_Master_AAT\SW\0300_ApplicationLayer\branches\CL3_REL_320_3XX\0350_SWC-SET\CtApMapFusion\02_libs\CtApMapFusion.vxe:800589ec 000003b4 W _ZN9mapfusion13OdoController18addOdoMeasurementsINS_15OdometryAdapterINS_8QueueOdoELj10EEEEENS_10ResultTypeERKT_Rb
E:\zFAS-Jenkins\workspace\zFAS_AIT_Master_AAT\SW\0300_ApplicationLayer\branches\CL3_REL_320_3XX\0350_SWC-SET\CtApMapFusion\02_libs\CtApMapFusion.vxe:802759cc 00000354 T _ZN9mapfusion13OdoController18tryAddValidOdoPoseERbRKNS_9MfOdoDataE
E:\zFAS-Jenkins\workspace\zFAS_AIT_Master_AAT\SW\0300_ApplicationLayer\branches\CL3_REL_320_3XX\0350_SWC-SET\CtApMapFusion\02_libs\CtApMapFusion.vxe:80274484 0000093c T _ZN9mapfusion13OdoController20predictPoseUncheckedERNS_9MfOdoDataERKN14audifusionbase15IteratorBoundedIKS1_EERKj
E:\zFAS-Jenkins\workspace\zFAS_AIT_Master_AAT\SW\0300_ApplicationLayer\branches\CL3_REL_320_3XX\0350_SWC-SET\CtApMapFusion\02_libs\CtApMapFusion.vxe:80274478 0000000c T _ZN9mapfusion13OdoController22setResultCodeAndReportERNS_10ResultTypeE
E:\zFAS-Jenkins\workspace\zFAS_AIT_Master_AAT\SW\0300_ApplicationLayer\branches\CL3_REL_320_3XX\0350_SWC-SET\CtApMapFusion\02_libs\CtApMapFusion.vxe:802727f4 00000b84 T _ZN9mapfusion13OdoController4initEv
E:\zFAS-Jenkins\workspace\zFAS_AIT_Master_AAT\SW\0300_ApplicationLayer\branches\CL3_REL_320_3XX\0350_SWC-SET\CtApMapFusion\02_libs\CtApMapFusion.vxe:80273378 00000128 T _ZN9mapfusion13OdoController5resetEv
E:\zFAS-Jenkins\workspace\zFAS_AIT_Master_AAT\SW\0300_ApplicationLayer\branches\CL3_REL_320_3XX\0350_SWC-SET\CtApMapFusion\02_libs\CtApMapFusion.vxe:8027373c 00000270 T _ZN9mapfusion13OdoController8getShiftERKNS_9MfOdoDataES3_
E:\zFAS-Jenkins\workspace\zFAS_AIT_Master_AAT\SW\0300_ApplicationLayer\branches\CL3_REL_320_3XX\0350_SWC-SET\CtApMapFusion\02_libs\CtApMapFusion.vxe:802725c0 00000234 T _ZN9mapfusion13OdoControllerC1Ev
E:\zFAS-Jenkins\workspace\zFAS_AIT_Master_AAT\SW\0300_ApplicationLayer\branches\CL3_REL_320_3XX\0350_SWC-SET\CtApMapFusion\02_libs\CtApMapFusion.vxe:802725c0 00000234 T _ZN9mapfusion13OdoControllerC2Ev
E:\zFAS-Jenkins\workspace\zFAS_AIT_Master_AAT\SW\0300_ApplicationLayer\branches\CL3_REL_320_3XX\0350_SWC-SET\CtApMapFusion\02_libs\CtApMapFusion.vxe:8004e614 0000002c T _ZN9mapfusion13SafeStateInfo12errorOccuredENS_19MfCheckerIdentifierEhh
E:\zFAS-Jenkins\workspace\zFAS_AIT_Master_AAT\SW\0300_ApplicationLayer\branches\CL3_REL_320_3XX\0350_SWC-SET\CtApMapFusion\02_libs\CtApMapFusion.vxe:8004e600 00000014 T _ZN9mapfusion13SafeStateInfo14resetSafeStateEv
E:\zFAS-Jenkins\workspace\zFAS_AIT_Master_AAT\SW\0300_ApplicationLayer\branches\CL3_REL_320_3XX\0350_SWC-SET\CtApMapFusion\02_libs\CtApMapFusion.vxe:8004e4d0 00000130 T _ZN9mapfusion13SafeStateInfo16evaluteSafeStateEb
E:\zFAS-Jenkins\workspace\zFAS_AIT_Master_AAT\SW\0300_ApplicationLayer\branches\CL3_REL_320_3XX\0350_SWC-SET\CtApMapFusion\02_libs\CtApMapFusion.vxe:8004e6b0 0000001c T _ZN9mapfusion13SafeStateInfo19resetCheckersStatusEv
E:\zFAS-Jenkins\workspace\zFAS_AIT_Master_AAT\SW\0300_ApplicationLayer\branches\CL3_REL_320_3XX\0350_SWC-SET\CtApMapFusion\02_libs\CtApMapFusion.vxe:8004e640 0000004c T _ZN9mapfusion13SafeStateInfo25mapResultToInternalStatusENS_10ResultTypeE
E:\zFAS-Jenkins\workspace\zFAS_AIT_Master_AAT\SW\0300_ApplicationLayer\branches\CL3_REL_320_3XX\0350_SWC-SET\CtApMapFusion\02_libs\CtApMapFusion.vxe:8004e68c 0000001c T _ZN9mapfusion13SafeStateInfo26mapInternalStatusToCheckerENS_15MfCheckerStatusE
E:\zFAS-Jenkins\workspace\zFAS_AIT_Master_AAT\SW\0300_ApplicationLayer\branches\CL3_REL_320_3XX\0350_SWC-SET\CtApMapFusion\02_libs\CtApMapFusion.vxe:8004e4ac 00000024 T _ZN9mapfusion13SafeStateInfo4initEv
E:\zFAS-Jenkins\workspace\zFAS_AIT_Master_AAT\SW\0300_ApplicationLayer\branches\CL3_REL_320_3XX\0350_SWC-SET\CtApMapFusion\02_libs\CtApMapFusion.vxe:8004e6cc 0000002c T _ZN9mapfusion13SafeStateInfo5resetEv
E:\zFAS-Jenkins\workspace\zFAS_AIT_Master_AAT\SW\0300_ApplicationLayer\branches\CL3_REL_320_3XX\0350_SWC-SET\CtApMapFusion\02_libs\CtApMapFusion.vxe:8004e43c 00000070 T _ZN9mapfusion13SafeStateInfoC1EPNS_24MfErrorHandlerInfoHolderE
E:\zFAS-Jenkins\workspace\zFAS_AIT_Master_AAT\SW\0300_ApplicationLayer\branches\CL3_REL_320_3XX\0350_SWC-SET\CtApMapFusion\02_libs\CtApMapFusion.vxe:8004e43c 00000070 T _ZN9mapfusion13SafeStateInfoC2EPNS_24MfErrorHandlerInfoHolderE
E:\zFAS-Jenkins\workspace\zFAS_AIT_Master_AAT\SW\0300_ApplicationLayer\branches\CL3_REL_320_3XX\0350_SWC-SET\CtApMapFusion\02_libs\CtApMapFusion.vxe:80049d74 000013a4 W _ZN9mapfusion13SensorHandlerINS_13SensorAdapterIN12errorhandler16InputHandlerZFASEEEEC1ERS4_
E:\zFAS-Jenkins\workspace\zFAS_AIT_Master_AAT\SW\0300_ApplicationLayer\branches\CL3_REL_320_3XX\0350_SWC-SET\CtApMapFusion\02_libs\CtApMapFusion.vxe:8027a2bc 0000003c T _ZN9mapfusion13SimplePolygon10vcmpfltF32E19__simd128_float32_tS1_
E:\zFAS-Jenkins\workspace\zFAS_AIT_Master_AAT\SW\0300_ApplicationLayer\branches\CL3_REL_320_3XX\0350_SWC-SET\CtApMapFusion\02_libs\CtApMapFusion.vxe:8027a0c8 00000004 T _ZN9mapfusion13SimplePolygon12isVarXLargerERKN14audifusionbase13TVectorStaticINS0_11PolygonLineELj2000EEE
E:\zFAS-Jenkins\workspace\zFAS_AIT_Master_AAT\SW\0300_ApplicationLayer\branches\CL3_REL_320_3XX\0350_SWC-SET\CtApMapFusion\02_libs\CtApMapFusion.vxe:80279e28 0000001c T _ZN9mapfusion13SimplePolygon13sortFunctionXERKNS0_11PolygonLineES3_
E:\zFAS-Jenkins\workspace\zFAS_AIT_Master_AAT\SW\0300_ApplicationLayer\branches\CL3_REL_320_3XX\0350_SWC-SET\CtApMapFusion\02_libs\CtApMapFusion.vxe:80279e44 0000001c T _ZN9mapfusion13SimplePolygon13sortFunctionYERKNS0_11PolygonLineES3_
E:\zFAS-Jenkins\workspace\zFAS_AIT_Master_AAT\SW\0300_ApplicationLayer\branches\CL3_REL_320_3XX\0350_SWC-SET\CtApMapFusion\02_libs\CtApMapFusion.vxe:8024878c 000000ac W _ZN9mapfusion13SimplePolygon15isPolygonSimpleINS_14IFencesAdapterIN9fencesapi10IFencesApiI19_Dt_RECORD_MVFences20_Dt_RECORD_MVContour19_Dt_RECORD_MVVertexLj100ELj100ELj3ELj13ENS3_28MvFencesApiAdditionalMembersEjjEENS_6FCacheELj3072ENS_22CommonPrioritySelectorEEEEEbRKT_j
E:\zFAS-Jenkins\workspace\zFAS_AIT_Master_AAT\SW\0300_ApplicationLayer\branches\CL3_REL_320_3XX\0350_SWC-SET\CtApMapFusion\02_libs\CtApMapFusion.vxe:8022dc98 000000ac W _ZN9mapfusion13SimplePolygon15isPolygonSimpleINS_14IFencesAdapterIN9fencesapi10IFencesApiI19_Dt_RECORD_MVFences20_Dt_RECORD_MVContour19_Dt_RECORD_MVVertexLj100ELj100ELj3ELj13ENS3_28MvFencesApiAdditionalMembersEjjEENS_6OCacheELj2097290ENS_22CommonPrioritySelectorEEEEEbRKT_j
E:\zFAS-Jenkins\workspace\zFAS_AIT_Master_AAT\SW\0300_ApplicationLayer\branches\CL3_REL_320_3XX\0350_SWC-SET\CtApMapFusion\02_libs\CtApMapFusion.vxe:8022c7fc 00000074 W _ZN9mapfusion13SimplePolygon15isPolygonSimpleINS_14IFencesAdapterIN9fencesapi10IFencesApiI27_Dt_RECORD_LSObstacleFences28_Dt_RECORD_LSObstacleContour27_Dt_RECORD_LSObstacleVertexLj64ELj350ELj3ELj12EjjjEENS_6OCacheELj2322459ENS_18LSPrioritySelectorEEEEEbRKT_j
E:\zFAS-Jenkins\workspace\zFAS_AIT_Master_AAT\SW\0300_ApplicationLayer\branches\CL3_REL_320_3XX\0350_SWC-SET\CtApMapFusion\02_libs\CtApMapFusion.vxe:8022ea40 00000070 W _ZN9mapfusion13SimplePolygon15isPolygonSimpleINS_14IFencesAdapterIN9fencesapi10IFencesApiI27_Dt_RECORD_USObstacleFences28_Dt_RECORD_USObstacleContour27_Dt_RECORD_USObstacleVertexLj24ELj48ELj3ELj12ENS3_36UsObstacleFencesApiAdditionalMembersEjtEENS_6OCacheELj200799355ENS_18USPrioritySelectorEEEEEbRKT_j
E:\zFAS-Jenkins\workspace\zFAS_AIT_Master_AAT\SW\0300_ApplicationLayer\branches\CL3_REL_320_3XX\0350_SWC-SET\CtApMapFusion\02_libs\CtApMapFusion.vxe:8022ceac 00000070 W _ZN9mapfusion13SimplePolygon15isPolygonSimpleINS_14IFencesAdapterIN9fencesapi10IFencesApiI28_Dt_RECORD_LRRObstacleFences29_Dt_RECORD_LRRObstacleContour28_Dt_RECORD_LRRObstacleVertexLj10ELj20ELj3ELj12EjjjEENS_6OCacheELj2097290ENS_22CommonPrioritySelectorEEEEEbRKT_j
E:\zFAS-Jenkins\workspace\zFAS_AIT_Master_AAT\SW\0300_ApplicationLayer\branches\CL3_REL_320_3XX\0350_SWC-SET\CtApMapFusion\02_libs\CtApMapFusion.vxe:80245818 00000070 W _ZN9mapfusion13SimplePolygon15isPolygonSimpleINS_14IFencesAdapterIN9fencesapi10IFencesApiI28_Dt_RECORD_LSFreespaceFences29_Dt_RECORD_LSFreespaceContour28_Dt_RECORD_LSFreespaceVertexLj64ELj350ELj1ELj1EjNS3_34ZfasLsFreespaceContourApiAddMemberEjEENS_6FCacheELj2322459ENS_18LSPrioritySelectorEEEEEbRKT_j
E:\zFAS-Jenkins\workspace\zFAS_AIT_Master_AAT\SW\0300_ApplicationLayer\branches\CL3_REL_320_3XX\0350_SWC-SET\CtApMapFusion\02_libs\CtApMapFusion.vxe:8022d558 00000070 W _ZN9mapfusion13SimplePolygon15isPolygonSimpleINS_14IFencesAdapterIN9fencesapi10IFencesApiI28_Dt_RECORD_MRRObstacleFences29_Dt_RECORD_MRRObstacleContour28_Dt_RECORD_MRRObstacleVertexLj10ELj20ELj3ELj12EjjjEENS_6OCacheELj2097290ENS_22CommonPrioritySelectorEEEEEbRKT_j
E:\zFAS-Jenkins\workspace\zFAS_AIT_Master_AAT\SW\0300_ApplicationLayer\branches\CL3_REL_320_3XX\0350_SWC-SET\CtApMapFusion\02_libs\CtApMapFusion.vxe:8024ed48 0000006c W _ZN9mapfusion13SimplePolygon15isPolygonSimpleINS_14IFencesAdapterIN9fencesapi10IFencesApiI28_Dt_RECORD_USFreespaceFences29_Dt_RECORD_USFreespaceContour28_Dt_RECORD_USFreespaceVertexLj48ELj192ELj1ELj1EjjjEENS_6FCacheELj200799355ENS_18USPrioritySelectorEEEEEbRKT_j
E:\zFAS-Jenkins\workspace\zFAS_AIT_Master_AAT\SW\0300_ApplicationLayer\branches\CL3_REL_320_3XX\0350_SWC-SET\CtApMapFusion\02_libs\CtApMapFusion.vxe:8022e390 00000074 W _ZN9mapfusion13SimplePolygon15isPolygonSimpleINS_14IFencesAdapterIN9fencesapi10IFencesApiI29_Dt_RECORD_TVBVObstacleFences30_Dt_RECORD_TVBVObstacleContour29_Dt_RECORD_TVBVObstacleVertexLj64ELj200ELj3ELj12EjjjEENS_6OCacheELj2191391ENS_20TVIPPrioritySelectorEEEEEbRKT_j
E:\zFAS-Jenkins\workspace\zFAS_AIT_Master_AAT\SW\0300_ApplicationLayer\branches\CL3_REL_320_3XX\0350_SWC-SET\CtApMapFusion\02_libs\CtApMapFusion.vxe:8024bee4 00000070 W _ZN9mapfusion13SimplePolygon15isPolygonSimpleINS_14IFencesAdapterIN9fencesapi10IFencesApiI30_Dt_RECORD_TVBVFreespaceFences31_Dt_RECORD_TVBVFreespaceContour30_Dt_RECORD_TVBVFreespaceVertexLj128ELj440ELj1ELj1EjjjEENS_6FCacheELj2191391ENS_20TVIPPrioritySelectorEEEEEbRKT_j
E:\zFAS-Jenkins\workspace\zFAS_AIT_Master_AAT\SW\0300_ApplicationLayer\branches\CL3_REL_320_3XX\0350_SWC-SET\CtApMapFusion\02_libs\CtApMapFusion.vxe:80251e60 00000088 W _ZN9mapfusion13SimplePolygon15isPolygonSimpleINS_14IFencesAdapterIN9fencesapi10IFencesApiIN15fencesinterface17FencesLightStructENS5_7ContourENS5_6VertexELj250ELj500ELj5ELj31EjjjEENS_6FCacheELj4608ENS_22CommonPrioritySelectorEEEEEbRKT_j
E:\zFAS-Jenkins\workspace\zFAS_AIT_Master_AAT\SW\0300_ApplicationLayer\branches\CL3_REL_320_3XX\0350_SWC-SET\CtApMapFusion\02_libs\CtApMapFusion.vxe:8022c0b4 00000088 W _ZN9mapfusion13SimplePolygon15isPolygonSimpleINS_14IFencesAdapterIN9fencesapi10IFencesApiIN15fencesinterface17FencesLightStructENS5_7ContourENS5_6VertexELj250ELj500ELj5ELj31EjjjEENS_6FCacheELj8392705ENS_22CommonPrioritySelectorEEEEEbRKT_j
E:\zFAS-Jenkins\workspace\zFAS_AIT_Master_AAT\SW\0300_ApplicationLayer\branches\CL3_REL_320_3XX\0350_SWC-SET\CtApMapFusion\02_libs\CtApMapFusion.vxe:80227410 00000088 W _ZN9mapfusion13SimplePolygon15isPolygonSimpleINS_14IFencesAdapterIN9fencesapi10IFencesApiIN15fencesinterface17FencesLightStructENS5_7ContourENS5_6VertexELj250ELj500ELj5ELj31EjjjEENS_6OCacheELj2097152ENS_22CommonPrioritySelectorEEEEEbRKT_j
E:\zFAS-Jenkins\workspace\zFAS_AIT_Master_AAT\SW\0300_ApplicationLayer\branches\CL3_REL_320_3XX\0350_SWC-SET\CtApMapFusion\02_libs\CtApMapFusion.vxe:80226d1c 00000088 W _ZN9mapfusion13SimplePolygon15isPolygonSimpleINS_14IFencesAdapterIN9fencesapi10IFencesApiIN15fencesinterface17FencesLightStructENS5_7ContourENS5_6VertexELj250ELj500ELj5ELj31EjjjEENS_6OCacheELj2097154ENS_22CommonPrioritySelectorEEEEEbRKT_j
E:\zFAS-Jenkins\workspace\zFAS_AIT_Master_AAT\SW\0300_ApplicationLayer\branches\CL3_REL_320_3XX\0350_SWC-SET\CtApMapFusion\02_libs\CtApMapFusion.vxe:80279f6c 0000015c T _ZN9mapfusion13SimplePolygon16isVarXLargerNeonERKN14audifusionbase13TVectorStaticINS0_11PolygonLineELj2000EEE
E:\zFAS-Jenkins\workspace\zFAS_AIT_Master_AAT\SW\0300_ApplicationLayer\branches\CL3_REL_320_3XX\0350_SWC-SET\CtApMapFusion\02_libs\CtApMapFusion.vxe:8027a6b8 000003f8 T _ZN9mapfusion13SimplePolygon17findIntersectionsERN14audifusionbase13TVectorStaticINS0_11PolygonLineELj2000EEE
E:\zFAS-Jenkins\workspace\zFAS_AIT_Master_AAT\SW\0300_ApplicationLayer\branches\CL3_REL_320_3XX\0350_SWC-SET\CtApMapFusion\02_libs\CtApMapFusion.vxe:8024857c 00000210 W _ZN9mapfusion13SimplePolygon19createVertexPolygonINS_14IFencesAdapterIN9fencesapi10IFencesApiI19_Dt_RECORD_MVFences20_Dt_RECORD_MVContour19_Dt_RECORD_MVVertexLj100ELj100ELj3ELj13ENS3_28MvFencesApiAdditionalMembersEjjEENS_6FCacheELj3072ENS_22CommonPrioritySelectorEEEEEbRKT_j
E:\zFAS-Jenkins\workspace\zFAS_AIT_Master_AAT\SW\0300_ApplicationLayer\branches\CL3_REL_320_3XX\0350_SWC-SET\CtApMapFusion\02_libs\CtApMapFusion.vxe:8022da88 00000210 W _ZN9mapfusion13SimplePolygon19createVertexPolygonINS_14IFencesAdapterIN9fencesapi10IFencesApiI19_Dt_RECORD_MVFences20_Dt_RECORD_MVContour19_Dt_RECORD_MVVertexLj100ELj100ELj3ELj13ENS3_28MvFencesApiAdditionalMembersEjjEENS_6OCacheELj2097290ENS_22CommonPrioritySelectorEEEEEbRKT_j
E:\zFAS-Jenkins\workspace\zFAS_AIT_Master_AAT\SW\0300_ApplicationLayer\branches\CL3_REL_320_3XX\0350_SWC-SET\CtApMapFusion\02_libs\CtApMapFusion.vxe:8022c660 0000019c W _ZN9mapfusion13SimplePolygon19createVertexPolygonINS_14IFencesAdapterIN9fencesapi10IFencesApiI27_Dt_RECORD_LSObstacleFences28_Dt_RECORD_LSObstacleContour27_Dt_RECORD_LSObstacleVertexLj64ELj350ELj3ELj12EjjjEENS_6OCacheELj2322459ENS_18LSPrioritySelectorEEEEEbRKT_j
E:\zFAS-Jenkins\workspace\zFAS_AIT_Master_AAT\SW\0300_ApplicationLayer\branches\CL3_REL_320_3XX\0350_SWC-SET\CtApMapFusion\02_libs\CtApMapFusion.vxe:8022e8c4 0000017c W _ZN9mapfusion13SimplePolygon19createVertexPolygonINS_14IFencesAdapterIN9fencesapi10IFencesApiI27_Dt_RECORD_USObstacleFences28_Dt_RECORD_USObstacleContour27_Dt_RECORD_USObstacleVertexLj24ELj48ELj3ELj12ENS3_36UsObstacleFencesApiAdditionalMembersEjtEENS_6OCacheELj200799355ENS_18USPrioritySelectorEEEEEbRKT_j
E:\zFAS-Jenkins\workspace\zFAS_AIT_Master_AAT\SW\0300_ApplicationLayer\branches\CL3_REL_320_3XX\0350_SWC-SET\CtApMapFusion\02_libs\CtApMapFusion.vxe:8022cd30 0000017c W _ZN9mapfusion13SimplePolygon19createVertexPolygonINS_14IFencesAdapterIN9fencesapi10IFencesApiI28_Dt_RECORD_LRRObstacleFences29_Dt_RECORD_LRRObstacleContour28_Dt_RECORD_LRRObstacleVertexLj10ELj20ELj3ELj12EjjjEENS_6OCacheELj2097290ENS_22CommonPrioritySelectorEEEEEbRKT_j
E:\zFAS-Jenkins\workspace\zFAS_AIT_Master_AAT\SW\0300_ApplicationLayer\branches\CL3_REL_320_3XX\0350_SWC-SET\CtApMapFusion\02_libs\CtApMapFusion.vxe:80245684 00000194 W _ZN9mapfusion13SimplePolygon19createVertexPolygonINS_14IFencesAdapterIN9fencesapi10IFencesApiI28_Dt_RECORD_LSFreespaceFences29_Dt_RECORD_LSFreespaceContour28_Dt_RECORD_LSFreespaceVertexLj64ELj350ELj1ELj1EjNS3_34ZfasLsFreespaceContourApiAddMemberEjEENS_6FCacheELj2322459ENS_18LSPrioritySelectorEEEEEbRKT_j
E:\zFAS-Jenkins\workspace\zFAS_AIT_Master_AAT\SW\0300_ApplicationLayer\branches\CL3_REL_320_3XX\0350_SWC-SET\CtApMapFusion\02_libs\CtApMapFusion.vxe:8022d3dc 0000017c W _ZN9mapfusion13SimplePolygon19createVertexPolygonINS_14IFencesAdapterIN9fencesapi10IFencesApiI28_Dt_RECORD_MRRObstacleFences29_Dt_RECORD_MRRObstacleContour28_Dt_RECORD_MRRObstacleVertexLj10ELj20ELj3ELj12EjjjEENS_6OCacheELj2097290ENS_22CommonPrioritySelectorEEEEEbRKT_j
E:\zFAS-Jenkins\workspace\zFAS_AIT_Master_AAT\SW\0300_ApplicationLayer\branches\CL3_REL_320_3XX\0350_SWC-SET\CtApMapFusion\02_libs\CtApMapFusion.vxe:8024ebc4 00000184 W _ZN9mapfusion13SimplePolygon19createVertexPolygonINS_14IFencesAdapterIN9fencesapi10IFencesApiI28_Dt_RECORD_USFreespaceFences29_Dt_RECORD_USFreespaceContour28_Dt_RECORD_USFreespaceVertexLj48ELj192ELj1ELj1EjjjEENS_6FCacheELj200799355ENS_18USPrioritySelectorEEEEEbRKT_j
E:\zFAS-Jenkins\workspace\zFAS_AIT_Master_AAT\SW\0300_ApplicationLayer\branches\CL3_REL_320_3XX\0350_SWC-SET\CtApMapFusion\02_libs\CtApMapFusion.vxe:8022e204 0000018c W _ZN9mapfusion13SimplePolygon19createVertexPolygonINS_14IFencesAdapterIN9fencesapi10IFencesApiI29_Dt_RECORD_TVBVObstacleFences30_Dt_RECORD_TVBVObstacleContour29_Dt_RECORD_TVBVObstacleVertexLj64ELj200ELj3ELj12EjjjEENS_6OCacheELj2191391ENS_20TVIPPrioritySelectorEEEEEbRKT_j
E:\zFAS-Jenkins\workspace\zFAS_AIT_Master_AAT\SW\0300_ApplicationLayer\branches\CL3_REL_320_3XX\0350_SWC-SET\CtApMapFusion\02_libs\CtApMapFusion.vxe:8024bd54 00000190 W _ZN9mapfusion13SimplePolygon19createVertexPolygonINS_14IFencesAdapterIN9fencesapi10IFencesApiI30_Dt_RECORD_TVBVFreespaceFences31_Dt_RECORD_TVBVFreespaceContour30_Dt_RECORD_TVBVFreespaceVertexLj128ELj440ELj1ELj1EjjjEENS_6FCacheELj2191391ENS_20TVIPPrioritySelectorEEEEEbRKT_j
E:\zFAS-Jenkins\workspace\zFAS_AIT_Master_AAT\SW\0300_ApplicationLayer\branches\CL3_REL_320_3XX\0350_SWC-SET\CtApMapFusion\02_libs\CtApMapFusion.vxe:80251cc0 000001a0 W _ZN9mapfusion13SimplePolygon19createVertexPolygonINS_14IFencesAdapterIN9fencesapi10IFencesApiIN15fencesinterface17FencesLightStructENS5_7ContourENS5_6VertexELj250ELj500ELj5ELj31EjjjEENS_6FCacheELj4608ENS_22CommonPrioritySelectorEEEEEbRKT_j
E:\zFAS-Jenkins\workspace\zFAS_AIT_Master_AAT\SW\0300_ApplicationLayer\branches\CL3_REL_320_3XX\0350_SWC-SET\CtApMapFusion\02_libs\CtApMapFusion.vxe:8022bf14 000001a0 W _ZN9mapfusion13SimplePolygon19createVertexPolygonINS_14IFencesAdapterIN9fencesapi10IFencesApiIN15fencesinterface17FencesLightStructENS5_7ContourENS5_6VertexELj250ELj500ELj5ELj31EjjjEENS_6FCacheELj8392705ENS_22CommonPrioritySelectorEEEEEbRKT_j
E:\zFAS-Jenkins\workspace\zFAS_AIT_Master_AAT\SW\0300_ApplicationLayer\branches\CL3_REL_320_3XX\0350_SWC-SET\CtApMapFusion\02_libs\CtApMapFusion.vxe:80227270 000001a0 W _ZN9mapfusion13SimplePolygon19createVertexPolygonINS_14IFencesAdapterIN9fencesapi10IFencesApiIN15fencesinterface17FencesLightStructENS5_7ContourENS5_6VertexELj250ELj500ELj5ELj31EjjjEENS_6OCacheELj2097152ENS_22CommonPrioritySelectorEEEEEbRKT_j
E:\zFAS-Jenkins\workspace\zFAS_AIT_Master_AAT\SW\0300_ApplicationLayer\branches\CL3_REL_320_3XX\0350_SWC-SET\CtApMapFusion\02_libs\CtApMapFusion.vxe:80226b7c 000001a0 W _ZN9mapfusion13SimplePolygon19createVertexPolygonINS_14IFencesAdapterIN9fencesapi10IFencesApiIN15fencesinterface17FencesLightStructENS5_7ContourENS5_6VertexELj250ELj500ELj5ELj31EjjjEENS_6OCacheELj2097154ENS_22CommonPrioritySelectorEEEEEbRKT_j
E:\zFAS-Jenkins\workspace\zFAS_AIT_Master_AAT\SW\0300_ApplicationLayer\branches\CL3_REL_320_3XX\0350_SWC-SET\CtApMapFusion\02_libs\CtApMapFusion.vxe:8027a130 0000018c T _ZN9mapfusion13SimplePolygon20findLineIntersectionERKN14audifusionbase13TVectorStaticINS0_11PolygonLineELj2000EEEjj
E:\zFAS-Jenkins\workspace\zFAS_AIT_Master_AAT\SW\0300_ApplicationLayer\branches\CL3_REL_320_3XX\0350_SWC-SET\CtApMapFusion\02_libs\CtApMapFusion.vxe:8027a578 00000004 T _ZN9mapfusion13SimplePolygon21find4LineIntersectionERKN14audifusionbase13TVectorStaticINS0_11PolygonLineELj2000EEEjj
E:\zFAS-Jenkins\workspace\zFAS_AIT_Master_AAT\SW\0300_ApplicationLayer\branches\CL3_REL_320_3XX\0350_SWC-SET\CtApMapFusion\02_libs\CtApMapFusion.vxe:8027a57c 000000b8 T _ZN9mapfusion13SimplePolygon21findLineIntersectionsERKN14audifusionbase13TVectorStaticINS0_11PolygonLineELj2000EEEjj
E:\zFAS-Jenkins\workspace\zFAS_AIT_Master_AAT\SW\0300_ApplicationLayer\branches\CL3_REL_320_3XX\0350_SWC-SET\CtApMapFusion\02_libs\CtApMapFusion.vxe:8027a2f8 00000280 T _ZN9mapfusion13SimplePolygon25find4LineIntersectionNEONERKN14audifusionbase13TVectorStaticINS0_11PolygonLineELj2000EEEjj
E:\zFAS-Jenkins\workspace\zFAS_AIT_Master_AAT\SW\0300_ApplicationLayer\branches\CL3_REL_320_3XX\0350_SWC-SET\CtApMapFusion\02_libs\CtApMapFusion.vxe:8027aba4 00000004 T _ZN9mapfusion13SimplePolygon25isPolygonCounterClockwiseERKN14audifusionbase13TVectorStaticINS0_11PolygonLineELj2000EEE
E:\zFAS-Jenkins\workspace\zFAS_AIT_Master_AAT\SW\0300_ApplicationLayer\branches\CL3_REL_320_3XX\0350_SWC-SET\CtApMapFusion\02_libs\CtApMapFusion.vxe:8027a0cc 00000064 T _ZN9mapfusion13SimplePolygon27compareFloatingPointNumbersEff
E:\zFAS-Jenkins\workspace\zFAS_AIT_Master_AAT\SW\0300_ApplicationLayer\branches\CL3_REL_320_3XX\0350_SWC-SET\CtApMapFusion\02_libs\CtApMapFusion.vxe:8027a634 00000084 T _ZN9mapfusion13SimplePolygon28findLastPossibleIntersectionERjRN14audifusionbase13TVectorStaticINS0_11PolygonLineELj2000EEEbRK12FloatPoint2D
E:\zFAS-Jenkins\workspace\zFAS_AIT_Master_AAT\SW\0300_ApplicationLayer\branches\CL3_REL_320_3XX\0350_SWC-SET\CtApMapFusion\02_libs\CtApMapFusion.vxe:8027aab0 000000f4 T _ZN9mapfusion13SimplePolygon29isPolygonCounterClockwiseNEONERKN14audifusionbase13TVectorStaticINS0_11PolygonLineELj2000EEE
E:\zFAS-Jenkins\workspace\zFAS_AIT_Master_AAT\SW\0300_ApplicationLayer\branches\CL3_REL_320_3XX\0350_SWC-SET\CtApMapFusion\02_libs\CtApMapFusion.vxe:80279e60 00000068 T _ZN9mapfusion13SimplePolygon4swapERNS0_11PolygonLineEb
E:\zFAS-Jenkins\workspace\zFAS_AIT_Master_AAT\SW\0300_ApplicationLayer\branches\CL3_REL_320_3XX\0350_SWC-SET\CtApMapFusion\02_libs\CtApMapFusion.vxe:80279ec8 000000a4 T _ZN9mapfusion13SimplePolygon9swapLinesERN14audifusionbase13TVectorStaticINS0_11PolygonLineELj2000EEEb
E:\zFAS-Jenkins\workspace\zFAS_AIT_Master_AAT\SW\0300_ApplicationLayer\branches\CL3_REL_320_3XX\0350_SWC-SET\CtApMapFusion\02_libs\CtApMapFusion.vxe:8027d524 00000090 T _ZN9mapfusion13stringCompareEPKcS1_
E:\zFAS-Jenkins\workspace\zFAS_AIT_Master_AAT\SW\0300_ApplicationLayer\branches\CL3_REL_320_3XX\0350_SWC-SET\CtApMapFusion\02_libs\CtApMapFusion.vxe:8026d064 00000040 T _ZN9mapfusion13TriangFeature14setConfidencesERA5_KhRKj
E:\zFAS-Jenkins\workspace\zFAS_AIT_Master_AAT\SW\0300_ApplicationLayer\branches\CL3_REL_320_3XX\0350_SWC-SET\CtApMapFusion\02_libs\CtApMapFusion.vxe:8026e058 000000d4 T _ZN9mapfusion13TriangFeature16remeasureBySharpERKS0_
E:\zFAS-Jenkins\workspace\zFAS_AIT_Master_AAT\SW\0300_ApplicationLayer\branches\CL3_REL_320_3XX\0350_SWC-SET\CtApMapFusion\02_libs\CtApMapFusion.vxe:8026df4c 0000010c T _ZN9mapfusion13TriangFeature17remeasureByUnsureERKS0_
E:\zFAS-Jenkins\workspace\zFAS_AIT_Master_AAT\SW\0300_ApplicationLayer\branches\CL3_REL_320_3XX\0350_SWC-SET\CtApMapFusion\02_libs\CtApMapFusion.vxe:8026e150 00000060 T _ZN9mapfusion13TriangFeature17updateUncertaintyERKNS_4Vec2E
E:\zFAS-Jenkins\workspace\zFAS_AIT_Master_AAT\SW\0300_ApplicationLayer\branches\CL3_REL_320_3XX\0350_SWC-SET\CtApMapFusion\02_libs\CtApMapFusion.vxe:8026da84 000004c8 T _ZN9mapfusion13TriangFeature18remeasureByUnsharpERKS0_
E:\zFAS-Jenkins\workspace\zFAS_AIT_Master_AAT\SW\0300_ApplicationLayer\branches\CL3_REL_320_3XX\0350_SWC-SET\CtApMapFusion\02_libs\CtApMapFusion.vxe:8026d0a4 00000118 T _ZN9mapfusion13TriangFeature5shiftERKNS_4Vec2ERKf
E:\zFAS-Jenkins\workspace\zFAS_AIT_Master_AAT\SW\0300_ApplicationLayer\branches\CL3_REL_320_3XX\0350_SWC-SET\CtApMapFusion\02_libs\CtApMapFusion.vxe:8026e12c 00000024 T _ZN9mapfusion13TriangFeature9remeasureERKS0_
E:\zFAS-Jenkins\workspace\zFAS_AIT_Master_AAT\SW\0300_ApplicationLayer\branches\CL3_REL_320_3XX\0350_SWC-SET\CtApMapFusion\02_libs\CtApMapFusion.vxe:8026ccd0 0000036c T _ZN9mapfusion13TriangFeatureC1ERKNS0_11MeasurementE
E:\zFAS-Jenkins\workspace\zFAS_AIT_Master_AAT\SW\0300_ApplicationLayer\branches\CL3_REL_320_3XX\0350_SWC-SET\CtApMapFusion\02_libs\CtApMapFusion.vxe:8026cbec 000000e4 T _ZN9mapfusion13TriangFeatureC1ERKS0_
E:\zFAS-Jenkins\workspace\zFAS_AIT_Master_AAT\SW\0300_ApplicationLayer\branches\CL3_REL_320_3XX\0350_SWC-SET\CtApMapFusion\02_libs\CtApMapFusion.vxe:8026cb58 00000094 T _ZN9mapfusion13TriangFeatureC1Ev
E:\zFAS-Jenkins\workspace\zFAS_AIT_Master_AAT\SW\0300_ApplicationLayer\branches\CL3_REL_320_3XX\0350_SWC-SET\CtApMapFusion\02_libs\CtApMapFusion.vxe:8026ccd0 0000036c T _ZN9mapfusion13TriangFeatureC2ERKNS0_11MeasurementE
E:\zFAS-Jenkins\workspace\zFAS_AIT_Master_AAT\SW\0300_ApplicationLayer\branches\CL3_REL_320_3XX\0350_SWC-SET\CtApMapFusion\02_libs\CtApMapFusion.vxe:8026cbec 000000e4 T _ZN9mapfusion13TriangFeatureC2ERKS0_
E:\zFAS-Jenkins\workspace\zFAS_AIT_Master_AAT\SW\0300_ApplicationLayer\branches\CL3_REL_320_3XX\0350_SWC-SET\CtApMapFusion\02_libs\CtApMapFusion.vxe:8026cb58 00000094 T _ZN9mapfusion13TriangFeatureC2Ev
E:\zFAS-Jenkins\workspace\zFAS_AIT_Master_AAT\SW\0300_ApplicationLayer\branches\CL3_REL_320_3XX\0350_SWC-SET\CtApMapFusion\02_libs\CtApMapFusion.vxe:8027bed8 0000030c T _ZN9mapfusion13Triangulation17tryToSnipEdgeNeonEPK12FloatPoint2Djjjj
E:\zFAS-Jenkins\workspace\zFAS_AIT_Master_AAT\SW\0300_ApplicationLayer\branches\CL3_REL_320_3XX\0350_SWC-SET\CtApMapFusion\02_libs\CtApMapFusion.vxe:8027be3c 0000009c T _ZN9mapfusion13Triangulation18isCounterClockwiseERK12FloatPoint2DS3_S3_
E:\zFAS-Jenkins\workspace\zFAS_AIT_Master_AAT\SW\0300_ApplicationLayer\branches\CL3_REL_320_3XX\0350_SWC-SET\CtApMapFusion\02_libs\CtApMapFusion.vxe:80248838 00000420 W _ZN9mapfusion13Triangulation18triangulateContourINS_14IFencesAdapterIN9fencesapi10IFencesApiI19_Dt_RECORD_MVFences20_Dt_RECORD_MVContour19_Dt_RECORD_MVVertexLj100ELj100ELj3ELj13ENS3_28MvFencesApiAdditionalMembersEjjEENS_6FCacheELj3072ENS_22CommonPrioritySelectorEEEEENS_10ResultTypeERKNT_14VertexListTypeERA1500_jRj
E:\zFAS-Jenkins\workspace\zFAS_AIT_Master_AAT\SW\0300_ApplicationLayer\branches\CL3_REL_320_3XX\0350_SWC-SET\CtApMapFusion\02_libs\CtApMapFusion.vxe:8022dd44 00000420 W _ZN9mapfusion13Triangulation18triangulateContourINS_14IFencesAdapterIN9fencesapi10IFencesApiI19_Dt_RECORD_MVFences20_Dt_RECORD_MVContour19_Dt_RECORD_MVVertexLj100ELj100ELj3ELj13ENS3_28MvFencesApiAdditionalMembersEjjEENS_6OCacheELj2097290ENS_22CommonPrioritySelectorEEEEENS_10ResultTypeERKNT_14VertexListTypeERA1500_jRj
E:\zFAS-Jenkins\workspace\zFAS_AIT_Master_AAT\SW\0300_ApplicationLayer\branches\CL3_REL_320_3XX\0350_SWC-SET\CtApMapFusion\02_libs\CtApMapFusion.vxe:8022c870 00000420 W _ZN9mapfusion13Triangulation18triangulateContourINS_14IFencesAdapterIN9fencesapi10IFencesApiI27_Dt_RECORD_LSObstacleFences28_Dt_RECORD_LSObstacleContour27_Dt_RECORD_LSObstacleVertexLj64ELj350ELj3ELj12EjjjEENS_6OCacheELj2322459ENS_18LSPrioritySelectorEEEEENS_10ResultTypeERKNT_14VertexListTypeERA1500_jRj
E:\zFAS-Jenkins\workspace\zFAS_AIT_Master_AAT\SW\0300_ApplicationLayer\branches\CL3_REL_320_3XX\0350_SWC-SET\CtApMapFusion\02_libs\CtApMapFusion.vxe:8022eab0 00000420 W _ZN9mapfusion13Triangulation18triangulateContourINS_14IFencesAdapterIN9fencesapi10IFencesApiI27_Dt_RECORD_USObstacleFences28_Dt_RECORD_USObstacleContour27_Dt_RECORD_USObstacleVertexLj24ELj48ELj3ELj12ENS3_36UsObstacleFencesApiAdditionalMembersEjtEENS_6OCacheELj200799355ENS_18USPrioritySelectorEEEEENS_10ResultTypeERKNT_14VertexListTypeERA1500_jRj
E:\zFAS-Jenkins\workspace\zFAS_AIT_Master_AAT\SW\0300_ApplicationLayer\branches\CL3_REL_320_3XX\0350_SWC-SET\CtApMapFusion\02_libs\CtApMapFusion.vxe:8022cf1c 00000420 W _ZN9mapfusion13Triangulation18triangulateContourINS_14IFencesAdapterIN9fencesapi10IFencesApiI28_Dt_RECORD_LRRObstacleFences29_Dt_RECORD_LRRObstacleContour28_Dt_RECORD_LRRObstacleVertexLj10ELj20ELj3ELj12EjjjEENS_6OCacheELj2097290ENS_22CommonPrioritySelectorEEEEENS_10ResultTypeERKNT_14VertexListTypeERA1500_jRj
E:\zFAS-Jenkins\workspace\zFAS_AIT_Master_AAT\SW\0300_ApplicationLayer\branches\CL3_REL_320_3XX\0350_SWC-SET\CtApMapFusion\02_libs\CtApMapFusion.vxe:80245888 00000420 W _ZN9mapfusion13Triangulation18triangulateContourINS_14IFencesAdapterIN9fencesapi10IFencesApiI28_Dt_RECORD_LSFreespaceFences29_Dt_RECORD_LSFreespaceContour28_Dt_RECORD_LSFreespaceVertexLj64ELj350ELj1ELj1EjNS3_34ZfasLsFreespaceContourApiAddMemberEjEENS_6FCacheELj2322459ENS_18LSPrioritySelectorEEEEENS_10ResultTypeERKNT_14VertexListTypeERA1500_jRj
E:\zFAS-Jenkins\workspace\zFAS_AIT_Master_AAT\SW\0300_ApplicationLayer\branches\CL3_REL_320_3XX\0350_SWC-SET\CtApMapFusion\02_libs\CtApMapFusion.vxe:8022d5c8 00000420 W _ZN9mapfusion13Triangulation18triangulateContourINS_14IFencesAdapterIN9fencesapi10IFencesApiI28_Dt_RECORD_MRRObstacleFences29_Dt_RECORD_MRRObstacleContour28_Dt_RECORD_MRRObstacleVertexLj10ELj20ELj3ELj12EjjjEENS_6OCacheELj2097290ENS_22CommonPrioritySelectorEEEEENS_10ResultTypeERKNT_14VertexListTypeERA1500_jRj
E:\zFAS-Jenkins\workspace\zFAS_AIT_Master_AAT\SW\0300_ApplicationLayer\branches\CL3_REL_320_3XX\0350_SWC-SET\CtApMapFusion\02_libs\CtApMapFusion.vxe:8024edb4 00000420 W _ZN9mapfusion13Triangulation18triangulateContourINS_14IFencesAdapterIN9fencesapi10IFencesApiI28_Dt_RECORD_USFreespaceFences29_Dt_RECORD_USFreespaceContour28_Dt_RECORD_USFreespaceVertexLj48ELj192ELj1ELj1EjjjEENS_6FCacheELj200799355ENS_18USPrioritySelectorEEEEENS_10ResultTypeERKNT_14VertexListTypeERA1500_jRj
E:\zFAS-Jenkins\workspace\zFAS_AIT_Master_AAT\SW\0300_ApplicationLayer\branches\CL3_REL_320_3XX\0350_SWC-SET\CtApMapFusion\02_libs\CtApMapFusion.vxe:8022e404 00000420 W _ZN9mapfusion13Triangulation18triangulateContourINS_14IFencesAdapterIN9fencesapi10IFencesApiI29_Dt_RECORD_TVBVObstacleFences30_Dt_RECORD_TVBVObstacleContour29_Dt_RECORD_TVBVObstacleVertexLj64ELj200ELj3ELj12EjjjEENS_6OCacheELj2191391ENS_20TVIPPrioritySelectorEEEEENS_10ResultTypeERKNT_14VertexListTypeERA1500_jRj
E:\zFAS-Jenkins\workspace\zFAS_AIT_Master_AAT\SW\0300_ApplicationLayer\branches\CL3_REL_320_3XX\0350_SWC-SET\CtApMapFusion\02_libs\CtApMapFusion.vxe:8024bf54 00000420 W _ZN9mapfusion13Triangulation18triangulateContourINS_14IFencesAdapterIN9fencesapi10IFencesApiI30_Dt_RECORD_TVBVFreespaceFences31_Dt_RECORD_TVBVFreespaceContour30_Dt_RECORD_TVBVFreespaceVertexLj128ELj440ELj1ELj1EjjjEENS_6FCacheELj2191391ENS_20TVIPPrioritySelectorEEEEENS_10ResultTypeERKNT_14VertexListTypeERA1500_jRj
E:\zFAS-Jenkins\workspace\zFAS_AIT_Master_AAT\SW\0300_ApplicationLayer\branches\CL3_REL_320_3XX\0350_SWC-SET\CtApMapFusion\02_libs\CtApMapFusion.vxe:80251ee8 00000420 W _ZN9mapfusion13Triangulation18triangulateContourINS_14IFencesAdapterIN9fencesapi10IFencesApiIN15fencesinterface17FencesLightStructENS5_7ContourENS5_6VertexELj250ELj500ELj5ELj31EjjjEENS_6FCacheELj4608ENS_22CommonPrioritySelectorEEEEENS_10ResultTypeERKNT_14VertexListTypeERA1500_jRj
E:\zFAS-Jenkins\workspace\zFAS_AIT_Master_AAT\SW\0300_ApplicationLayer\branches\CL3_REL_320_3XX\0350_SWC-SET\CtApMapFusion\02_libs\CtApMapFusion.vxe:8022c13c 00000478 W _ZN9mapfusion13Triangulation18triangulateContourINS_14IFencesAdapterIN9fencesapi10IFencesApiIN15fencesinterface17FencesLightStructENS5_7ContourENS5_6VertexELj250ELj500ELj5ELj31EjjjEENS_6FCacheELj8392705ENS_22CommonPrioritySelectorEEEEENS_10ResultTypeERKNT_14VertexListTypeERA1500_jRj
E:\zFAS-Jenkins\workspace\zFAS_AIT_Master_AAT\SW\0300_ApplicationLayer\branches\CL3_REL_320_3XX\0350_SWC-SET\CtApMapFusion\02_libs\CtApMapFusion.vxe:80227498 00000420 W _ZN9mapfusion13Triangulation18triangulateContourINS_14IFencesAdapterIN9fencesapi10IFencesApiIN15fencesinterface17FencesLightStructENS5_7ContourENS5_6VertexELj250ELj500ELj5ELj31EjjjEENS_6OCacheELj2097152ENS_22CommonPrioritySelectorEEEEENS_10ResultTypeERKNT_14VertexListTypeERA1500_jRj
E:\zFAS-Jenkins\workspace\zFAS_AIT_Master_AAT\SW\0300_ApplicationLayer\branches\CL3_REL_320_3XX\0350_SWC-SET\CtApMapFusion\02_libs\CtApMapFusion.vxe:80226da4 00000420 W _ZN9mapfusion13Triangulation18triangulateContourINS_14IFencesAdapterIN9fencesapi10IFencesApiIN15fencesinterface17FencesLightStructENS5_7ContourENS5_6VertexELj250ELj500ELj5ELj31EjjjEENS_6OCacheELj2097154ENS_22CommonPrioritySelectorEEEEENS_10ResultTypeERKNT_14VertexListTypeERA1500_jRj
E:\zFAS-Jenkins\workspace\zFAS_AIT_Master_AAT\SW\0300_ApplicationLayer\branches\CL3_REL_320_3XX\0350_SWC-SET\CtApMapFusion\02_libs\CtApMapFusion.vxe:8027bc78 00000068 T _ZN9mapfusion13Triangulation19determineSideOfLineERK12FloatPoint2DS3_S3_
E:\zFAS-Jenkins\workspace\zFAS_AIT_Master_AAT\SW\0300_ApplicationLayer\branches\CL3_REL_320_3XX\0350_SWC-SET\CtApMapFusion\02_libs\CtApMapFusion.vxe:8027bce0 0000015c T _ZN9mapfusion13Triangulation21isPointInsideTriangleERK12FloatPoint2DS3_S3_S3_
E:\zFAS-Jenkins\workspace\zFAS_AIT_Master_AAT\SW\0300_ApplicationLayer\branches\CL3_REL_320_3XX\0350_SWC-SET\CtApMapFusion\02_libs\CtApMapFusion.vxe:8027c3bc 00000020 T _ZN9mapfusion14CarFinderLogic11isMixedTypeEht
E:\zFAS-Jenkins\workspace\zFAS_AIT_Master_AAT\SW\0300_ApplicationLayer\branches\CL3_REL_320_3XX\0350_SWC-SET\CtApMapFusion\02_libs\CtApMapFusion.vxe:8027c39c 00000020 T _ZN9mapfusion14CarFinderLogic12isAcceptTypeEht
E:\zFAS-Jenkins\workspace\zFAS_AIT_Master_AAT\SW\0300_ApplicationLayer\branches\CL3_REL_320_3XX\0350_SWC-SET\CtApMapFusion\02_libs\CtApMapFusion.vxe:8027c3dc 0000001c T _ZN9mapfusion14CarFinderLogic13isDeclineTypeEht
E:\zFAS-Jenkins\workspace\zFAS_AIT_Master_AAT\SW\0300_ApplicationLayer\branches\CL3_REL_320_3XX\0350_SWC-SET\CtApMapFusion\02_libs\CtApMapFusion.vxe:8027c390 0000000c T _ZN9mapfusion14CarFinderLogic16checkContourTypeEh
E:\zFAS-Jenkins\workspace\zFAS_AIT_Master_AAT\SW\0300_ApplicationLayer\branches\CL3_REL_320_3XX\0350_SWC-SET\CtApMapFusion\02_libs\CtApMapFusion.vxe:8027c5c4 000001ac T _ZN9mapfusion14CarFinderLogic4initEv
E:\zFAS-Jenkins\workspace\zFAS_AIT_Master_AAT\SW\0300_ApplicationLayer\branches\CL3_REL_320_3XX\0350_SWC-SET\CtApMapFusion\02_libs\CtApMapFusion.vxe:8027c790 00000020 W _ZN9mapfusion14CarFinderLogicD0Ev
E:\zFAS-Jenkins\workspace\zFAS_AIT_Master_AAT\SW\0300_ApplicationLayer\branches\CL3_REL_320_3XX\0350_SWC-SET\CtApMapFusion\02_libs\CtApMapFusion.vxe:8027c770 00000010 W _ZN9mapfusion14CarFinderLogicD1Ev
E:\zFAS-Jenkins\workspace\zFAS_AIT_Master_AAT\SW\0300_ApplicationLayer\branches\CL3_REL_320_3XX\0350_SWC-SET\CtApMapFusion\02_libs\CtApMapFusion.vxe:802c824c 00000010 R _ZN9mapfusion14CellAttributes8cos_lut_E
E:\zFAS-Jenkins\workspace\zFAS_AIT_Master_AAT\SW\0300_ApplicationLayer\branches\CL3_REL_320_3XX\0350_SWC-SET\CtApMapFusion\02_libs\CtApMapFusion.vxe:802c825c 00000010 R _ZN9mapfusion14CellAttributes8sin_lut_E
E:\zFAS-Jenkins\workspace\zFAS_AIT_Master_AAT\SW\0300_ApplicationLayer\branches\CL3_REL_320_3XX\0350_SWC-SET\CtApMapFusion\02_libs\CtApMapFusion.vxe:8004ded4 000000d8 T _ZN9mapfusion14MfErrorHandler13checkInputOdoERK14_Dt_RECORD_EMLRKNS_9MfOdoDataENS_11PacketStateE
E:\zFAS-Jenkins\workspace\zFAS_AIT_Master_AAT\SW\0300_ApplicationLayer\branches\CL3_REL_320_3XX\0350_SWC-SET\CtApMapFusion\02_libs\CtApMapFusion.vxe:8004de94 00000004 T _ZN9mapfusion14MfErrorHandler13prepareChecksENS_17FencesAdapterNameE
E:\zFAS-Jenkins\workspace\zFAS_AIT_Master_AAT\SW\0300_ApplicationLayer\branches\CL3_REL_320_3XX\0350_SWC-SET\CtApMapFusion\02_libs\CtApMapFusion.vxe:800432f8 00000280 W _ZN9mapfusion14MfErrorHandler16checkInputFencesIN9fencesapi10IFencesApiI19_Dt_RECORD_MVFences20_Dt_RECORD_MVContour19_Dt_RECORD_MVVertexLj100ELj100ELj3ELj13ENS2_28MvFencesApiAdditionalMembersEjjEEEENS_11PacketStateERKT_S9_NS_17FencesAdapterNameE
E:\zFAS-Jenkins\workspace\zFAS_AIT_Master_AAT\SW\0300_ApplicationLayer\branches\CL3_REL_320_3XX\0350_SWC-SET\CtApMapFusion\02_libs\CtApMapFusion.vxe:800429bc 00000260 W _ZN9mapfusion14MfErrorHandler16checkInputFencesIN9fencesapi10IFencesApiI27_Dt_RECORD_LSObstacleFences28_Dt_RECORD_LSObstacleContour27_Dt_RECORD_LSObstacleVertexLj64ELj350ELj3ELj12EjjjEEEENS_11PacketStateERKT_S8_NS_17FencesAdapterNameE
E:\zFAS-Jenkins\workspace\zFAS_AIT_Master_AAT\SW\0300_ApplicationLayer\branches\CL3_REL_320_3XX\0350_SWC-SET\CtApMapFusion\02_libs\CtApMapFusion.vxe:80041738 00000264 W _ZN9mapfusion14MfErrorHandler16checkInputFencesIN9fencesapi10IFencesApiI27_Dt_RECORD_USObstacleFences28_Dt_RECORD_USObstacleContour27_Dt_RECORD_USObstacleVertexLj24ELj48ELj3ELj12ENS2_36UsObstacleFencesApiAdditionalMembersEjtEEEENS_11PacketStateERKT_S9_NS_17FencesAdapterNameE
E:\zFAS-Jenkins\workspace\zFAS_AIT_Master_AAT\SW\0300_ApplicationLayer\branches\CL3_REL_320_3XX\0350_SWC-SET\CtApMapFusion\02_libs\CtApMapFusion.vxe:80042e60 00000264 W _ZN9mapfusion14MfErrorHandler16checkInputFencesIN9fencesapi10IFencesApiI28_Dt_RECORD_LRRObstacleFences29_Dt_RECORD_LRRObstacleContour28_Dt_RECORD_LRRObstacleVertexLj10ELj20ELj3ELj12EjjjEEEENS_11PacketStateERKT_S8_NS_17FencesAdapterNameE
E:\zFAS-Jenkins\workspace\zFAS_AIT_Master_AAT\SW\0300_ApplicationLayer\branches\CL3_REL_320_3XX\0350_SWC-SET\CtApMapFusion\02_libs\CtApMapFusion.vxe:80042518 00000260 W _ZN9mapfusion14MfErrorHandler16checkInputFencesIN9fencesapi10IFencesApiI28_Dt_RECORD_LSFreespaceFences29_Dt_RECORD_LSFreespaceContour28_Dt_RECORD_LSFreespaceVertexLj64ELj350ELj1ELj1EjNS2_34ZfasLsFreespaceContourApiAddMemberEjEEEENS_11PacketStateERKT_S9_NS_17FencesAdapterNameE
E:\zFAS-Jenkins\workspace\zFAS_AIT_Master_AAT\SW\0300_ApplicationLayer\branches\CL3_REL_320_3XX\0350_SWC-SET\CtApMapFusion\02_libs\CtApMapFusion.vxe:800437b0 00000264 W _ZN9mapfusion14MfErrorHandler16checkInputFencesIN9fencesapi10IFencesApiI28_Dt_RECORD_MRRObstacleFences29_Dt_RECORD_MRRObstacleContour28_Dt_RECORD_MRRObstacleVertexLj10ELj20ELj3ELj12EjjjEEEENS_11PacketStateERKT_S8_NS_17FencesAdapterNameE
E:\zFAS-Jenkins\workspace\zFAS_AIT_Master_AAT\SW\0300_ApplicationLayer\branches\CL3_REL_320_3XX\0350_SWC-SET\CtApMapFusion\02_libs\CtApMapFusion.vxe:800412a0 00000264 W _ZN9mapfusion14MfErrorHandler16checkInputFencesIN9fencesapi10IFencesApiI28_Dt_RECORD_USFreespaceFences29_Dt_RECORD_USFreespaceContour28_Dt_RECORD_USFreespaceVertexLj48ELj192ELj1ELj1EjjjEEEENS_11PacketStateERKT_S8_NS_17FencesAdapterNameE
E:\zFAS-Jenkins\workspace\zFAS_AIT_Master_AAT\SW\0300_ApplicationLayer\branches\CL3_REL_320_3XX\0350_SWC-SET\CtApMapFusion\02_libs\CtApMapFusion.vxe:80042074 00000260 W _ZN9mapfusion14MfErrorHandler16checkInputFencesIN9fencesapi10IFencesApiI29_Dt_RECORD_TVBVObstacleFences30_Dt_RECORD_TVBVObstacleContour29_Dt_RECORD_TVBVObstacleVertexLj64ELj200ELj3ELj12EjjjEEEENS_11PacketStateERKT_S8_NS_17FencesAdapterNameE
E:\zFAS-Jenkins\workspace\zFAS_AIT_Master_AAT\SW\0300_ApplicationLayer\branches\CL3_REL_320_3XX\0350_SWC-SET\CtApMapFusion\02_libs\CtApMapFusion.vxe:80041bd0 00000260 W _ZN9mapfusion14MfErrorHandler16checkInputFencesIN9fencesapi10IFencesApiI30_Dt_RECORD_TVBVFreespaceFences31_Dt_RECORD_TVBVFreespaceContour30_Dt_RECORD_TVBVFreespaceVertexLj128ELj440ELj1ELj1EjjjEEEENS_11PacketStateERKT_S8_NS_17FencesAdapterNameE
E:\zFAS-Jenkins\workspace\zFAS_AIT_Master_AAT\SW\0300_ApplicationLayer\branches\CL3_REL_320_3XX\0350_SWC-SET\CtApMapFusion\02_libs\CtApMapFusion.vxe:8004deb4 00000020 T _ZN9mapfusion14MfErrorHandler16resetCurrentInfoEv
E:\zFAS-Jenkins\workspace\zFAS_AIT_Master_AAT\SW\0300_ApplicationLayer\branches\CL3_REL_320_3XX\0350_SWC-SET\CtApMapFusion\02_libs\CtApMapFusion.vxe:8004dfb8 000000d0 T _ZN9mapfusion14MfErrorHandler17evaluateSafeStateEb
E:\zFAS-Jenkins\workspace\zFAS_AIT_Master_AAT\SW\0300_ApplicationLayer\branches\CL3_REL_320_3XX\0350_SWC-SET\CtApMapFusion\02_libs\CtApMapFusion.vxe:8004e088 00000074 T _ZN9mapfusion14MfErrorHandler24passResultToErrorHandlerENS_10ResultTypeE
E:\zFAS-Jenkins\workspace\zFAS_AIT_Master_AAT\SW\0300_ApplicationLayer\branches\CL3_REL_320_3XX\0350_SWC-SET\CtApMapFusion\02_libs\CtApMapFusion.vxe:8004e0fc 00000004 T _ZN9mapfusion14MfErrorHandler26configureSensorsByScheduleERKN14audifusionbase13TVectorStaticIPNS_13ScheduleEntryELj39EEE
E:\zFAS-Jenkins\workspace\zFAS_AIT_Master_AAT\SW\0300_ApplicationLayer\branches\CL3_REL_320_3XX\0350_SWC-SET\CtApMapFusion\02_libs\CtApMapFusion.vxe:8004ddf8 0000009c T _ZN9mapfusion14MfErrorHandler4initENS_10ResultTypeEbf
E:\zFAS-Jenkins\workspace\zFAS_AIT_Master_AAT\SW\0300_ApplicationLayer\branches\CL3_REL_320_3XX\0350_SWC-SET\CtApMapFusion\02_libs\CtApMapFusion.vxe:8004de98 0000001c T _ZN9mapfusion14MfErrorHandler5resetEv
E:\zFAS-Jenkins\workspace\zFAS_AIT_Master_AAT\SW\0300_ApplicationLayer\branches\CL3_REL_320_3XX\0350_SWC-SET\CtApMapFusion\02_libs\CtApMapFusion.vxe:8026b520 00000008 T _ZN9mapfusion14normalizeAngleEi
E:\zFAS-Jenkins\workspace\zFAS_AIT_Master_AAT\SW\0300_ApplicationLayer\branches\CL3_REL_320_3XX\0350_SWC-SET\CtApMapFusion\02_libs\CtApMapFusion.vxe:8004680c 00000274 W _ZN9mapfusion14StageTwoFinderINS_14CarFinderLogicEE19findAcceptedSegmentERKiRiRfS6_S6_RKNS_15TmpVertexBufferEs
E:\zFAS-Jenkins\workspace\zFAS_AIT_Master_AAT\SW\0300_ApplicationLayer\branches\CL3_REL_320_3XX\0350_SWC-SET\CtApMapFusion\02_libs\CtApMapFusion.vxe:80046a80 00000b20 W _ZN9mapfusion14StageTwoFinderINS_14CarFinderLogicEE19splitSegmentsByPropERNS_15TmpVertexBufferEsRi
E:\zFAS-Jenkins\workspace\zFAS_AIT_Master_AAT\SW\0300_ApplicationLayer\branches\CL3_REL_320_3XX\0350_SWC-SET\CtApMapFusion\02_libs\CtApMapFusion.vxe:800440e8 00000258 W _ZN9mapfusion14StageTwoFinderINS_14CarFinderLogicEE20splitSegmentsByShapeERNS_15TmpVertexBufferERi
E:\zFAS-Jenkins\workspace\zFAS_AIT_Master_AAT\SW\0300_ApplicationLayer\branches\CL3_REL_320_3XX\0350_SWC-SET\CtApMapFusion\02_libs\CtApMapFusion.vxe:8001fb08 00000040 W _ZN9mapfusion14StageTwoFinderINS_14CarFinderLogicEED0Ev
E:\zFAS-Jenkins\workspace\zFAS_AIT_Master_AAT\SW\0300_ApplicationLayer\branches\CL3_REL_320_3XX\0350_SWC-SET\CtApMapFusion\02_libs\CtApMapFusion.vxe:8001fad0 00000038 W _ZN9mapfusion14StageTwoFinderINS_14CarFinderLogicEED1Ev
E:\zFAS-Jenkins\workspace\zFAS_AIT_Master_AAT\SW\0300_ApplicationLayer\branches\CL3_REL_320_3XX\0350_SWC-SET\CtApMapFusion\02_libs\CtApMapFusion.vxe:80045a78 00000274 W _ZN9mapfusion14StageTwoFinderINS_15CurbFinderLogicEE19findAcceptedSegmentERKiRiRfS6_S6_RKNS_15TmpVertexBufferEs
E:\zFAS-Jenkins\workspace\zFAS_AIT_Master_AAT\SW\0300_ApplicationLayer\branches\CL3_REL_320_3XX\0350_SWC-SET\CtApMapFusion\02_libs\CtApMapFusion.vxe:80045cec 00000b20 W _ZN9mapfusion14StageTwoFinderINS_15CurbFinderLogicEE19splitSegmentsByPropERNS_15TmpVertexBufferEsRi
E:\zFAS-Jenkins\workspace\zFAS_AIT_Master_AAT\SW\0300_ApplicationLayer\branches\CL3_REL_320_3XX\0350_SWC-SET\CtApMapFusion\02_libs\CtApMapFusion.vxe:80043e90 00000258 W _ZN9mapfusion14StageTwoFinderINS_15CurbFinderLogicEE20splitSegmentsByShapeERNS_15TmpVertexBufferERi
E:\zFAS-Jenkins\workspace\zFAS_AIT_Master_AAT\SW\0300_ApplicationLayer\branches\CL3_REL_320_3XX\0350_SWC-SET\CtApMapFusion\02_libs\CtApMapFusion.vxe:8001fa90 00000040 W _ZN9mapfusion14StageTwoFinderINS_15CurbFinderLogicEED0Ev
E:\zFAS-Jenkins\workspace\zFAS_AIT_Master_AAT\SW\0300_ApplicationLayer\branches\CL3_REL_320_3XX\0350_SWC-SET\CtApMapFusion\02_libs\CtApMapFusion.vxe:8001fa58 00000038 W _ZN9mapfusion14StageTwoFinderINS_15CurbFinderLogicEED1Ev
E:\zFAS-Jenkins\workspace\zFAS_AIT_Master_AAT\SW\0300_ApplicationLayer\branches\CL3_REL_320_3XX\0350_SWC-SET\CtApMapFusion\02_libs\CtApMapFusion.vxe:8027bc70 00000004 T _ZN9mapfusion14Totalreflexion14setAngle8CellsEPhRA8_KhS4_S4_PS2_
E:\zFAS-Jenkins\workspace\zFAS_AIT_Master_AAT\SW\0300_ApplicationLayer\branches\CL3_REL_320_3XX\0350_SWC-SET\CtApMapFusion\02_libs\CtApMapFusion.vxe:8027b590 000001e0 T _ZN9mapfusion14Totalreflexion16setCriticalAngleEff
E:\zFAS-Jenkins\workspace\zFAS_AIT_Master_AAT\SW\0300_ApplicationLayer\branches\CL3_REL_320_3XX\0350_SWC-SET\CtApMapFusion\02_libs\CtApMapFusion.vxe:8027bbcc 000000a4 T _ZN9mapfusion14Totalreflexion18setAngle8CellsNEONEPhRA8_KhS4_S4_PS2_
E:\zFAS-Jenkins\workspace\zFAS_AIT_Master_AAT\SW\0300_ApplicationLayer\branches\CL3_REL_320_3XX\0350_SWC-SET\CtApMapFusion\02_libs\CtApMapFusion.vxe:8027b1d4 000003bc T _ZN9mapfusion14Totalreflexion19getSurfaceAngleLineERK12FloatPoint2DS3_
E:\zFAS-Jenkins\workspace\zFAS_AIT_Master_AAT\SW\0300_ApplicationLayer\branches\CL3_REL_320_3XX\0350_SWC-SET\CtApMapFusion\02_libs\CtApMapFusion.vxe:8027b770 00000064 T _ZN9mapfusion14Totalreflexion19setFreespaceContourEffffRK16Transformation2D
E:\zFAS-Jenkins\workspace\zFAS_AIT_Master_AAT\SW\0300_ApplicationLayer\branches\CL3_REL_320_3XX\0350_SWC-SET\CtApMapFusion\02_libs\CtApMapFusion.vxe:8027ae2c 000003a8 T _ZN9mapfusion14Totalreflexion20getSurfaceAnglePointEfff
E:\zFAS-Jenkins\workspace\zFAS_AIT_Master_AAT\SW\0300_ApplicationLayer\branches\CL3_REL_320_3XX\0350_SWC-SET\CtApMapFusion\02_libs\CtApMapFusion.vxe:8027abe8 00000244 T _ZN9mapfusion14Totalreflexion4initEf
E:\zFAS-Jenkins\workspace\zFAS_AIT_Master_AAT\SW\0300_ApplicationLayer\branches\CL3_REL_320_3XX\0350_SWC-SET\CtApMapFusion\02_libs\CtApMapFusion.vxe:8027bb4c 00000080 T _ZN9mapfusion14Totalreflexion8setAngleEPhbbh
E:\zFAS-Jenkins\workspace\zFAS_AIT_Master_AAT\SW\0300_ApplicationLayer\branches\CL3_REL_320_3XX\0350_SWC-SET\CtApMapFusion\02_libs\CtApMapFusion.vxe:8027aba8 00000040 T _ZN9mapfusion14TotalreflexionC1Ev
E:\zFAS-Jenkins\workspace\zFAS_AIT_Master_AAT\SW\0300_ApplicationLayer\branches\CL3_REL_320_3XX\0350_SWC-SET\CtApMapFusion\02_libs\CtApMapFusion.vxe:8027aba8 00000040 T _ZN9mapfusion14TotalreflexionC2Ev
E:\zFAS-Jenkins\workspace\zFAS_AIT_Master_AAT\SW\0300_ApplicationLayer\branches\CL3_REL_320_3XX\0350_SWC-SET\CtApMapFusion\02_libs\CtApMapFusion.vxe:8027c354 00000020 T _ZN9mapfusion15CurbFinderLogic11isMixedTypeEht
E:\zFAS-Jenkins\workspace\zFAS_AIT_Master_AAT\SW\0300_ApplicationLayer\branches\CL3_REL_320_3XX\0350_SWC-SET\CtApMapFusion\02_libs\CtApMapFusion.vxe:8027c334 00000020 T _ZN9mapfusion15CurbFinderLogic12isAcceptTypeEht
E:\zFAS-Jenkins\workspace\zFAS_AIT_Master_AAT\SW\0300_ApplicationLayer\branches\CL3_REL_320_3XX\0350_SWC-SET\CtApMapFusion\02_libs\CtApMapFusion.vxe:8027c374 0000001c T _ZN9mapfusion15CurbFinderLogic13isDeclineTypeEht
E:\zFAS-Jenkins\workspace\zFAS_AIT_Master_AAT\SW\0300_ApplicationLayer\branches\CL3_REL_320_3XX\0350_SWC-SET\CtApMapFusion\02_libs\CtApMapFusion.vxe:8027c328 0000000c T _ZN9mapfusion15CurbFinderLogic16checkContourTypeEh
E:\zFAS-Jenkins\workspace\zFAS_AIT_Master_AAT\SW\0300_ApplicationLayer\branches\CL3_REL_320_3XX\0350_SWC-SET\CtApMapFusion\02_libs\CtApMapFusion.vxe:8027c418 000001ac T _ZN9mapfusion15CurbFinderLogic4initEv
E:\zFAS-Jenkins\workspace\zFAS_AIT_Master_AAT\SW\0300_ApplicationLayer\branches\CL3_REL_320_3XX\0350_SWC-SET\CtApMapFusion\02_libs\CtApMapFusion.vxe:8027c7b0 00000020 W _ZN9mapfusion15CurbFinderLogicD0Ev
E:\zFAS-Jenkins\workspace\zFAS_AIT_Master_AAT\SW\0300_ApplicationLayer\branches\CL3_REL_320_3XX\0350_SWC-SET\CtApMapFusion\02_libs\CtApMapFusion.vxe:8027c780 00000010 W _ZN9mapfusion15CurbFinderLogicD1Ev
E:\zFAS-Jenkins\workspace\zFAS_AIT_Master_AAT\SW\0300_ApplicationLayer\branches\CL3_REL_320_3XX\0350_SWC-SET\CtApMapFusion\02_libs\CtApMapFusion.vxe:802c8278 00000004 R _ZN9mapfusion15ObstacleFeatureINS_12GlobalConfigILj4ELj6ELj2ELj2EEEE11state_cold_E
E:\zFAS-Jenkins\workspace\zFAS_AIT_Master_AAT\SW\0300_ApplicationLayer\branches\CL3_REL_320_3XX\0350_SWC-SET\CtApMapFusion\02_libs\CtApMapFusion.vxe:802c826d 00000001 R _ZN9mapfusion15ObstacleFeatureINS_12GlobalConfigILj4ELj6ELj2ELj2EEEE12cf_pass_bit_E
E:\zFAS-Jenkins\workspace\zFAS_AIT_Master_AAT\SW\0300_ApplicationLayer\branches\CL3_REL_320_3XX\0350_SWC-SET\CtApMapFusion\02_libs\CtApMapFusion.vxe:802c8274 00000004 R _ZN9mapfusion15ObstacleFeatureINS_12GlobalConfigILj4ELj6ELj2ELj2EEEE12state_dirty_E
E:\zFAS-Jenkins\workspace\zFAS_AIT_Master_AAT\SW\0300_ApplicationLayer\branches\CL3_REL_320_3XX\0350_SWC-SET\CtApMapFusion\02_libs\CtApMapFusion.vxe:802c8270 00000004 R _ZN9mapfusion15ObstacleFeatureINS_12GlobalConfigILj4ELj6ELj2ELj2EEEE12state_valid_E
E:\zFAS-Jenkins\workspace\zFAS_AIT_Master_AAT\SW\0300_ApplicationLayer\branches\CL3_REL_320_3XX\0350_SWC-SET\CtApMapFusion\02_libs\CtApMapFusion.vxe:802c826c 00000001 R _ZN9mapfusion15ObstacleFeatureINS_12GlobalConfigILj4ELj6ELj2ELj2EEEE13cf_fused_bit_E
E:\zFAS-Jenkins\workspace\zFAS_AIT_Master_AAT\SW\0300_ApplicationLayer\branches\CL3_REL_320_3XX\0350_SWC-SET\CtApMapFusion\02_libs\CtApMapFusion.vxe:800513a4 00000020 W _ZN9mapfusion15ObstacleFeatureINS_12GlobalConfigILj4ELj6ELj2ELj2EEEED0Ev
E:\zFAS-Jenkins\workspace\zFAS_AIT_Master_AAT\SW\0300_ApplicationLayer\branches\CL3_REL_320_3XX\0350_SWC-SET\CtApMapFusion\02_libs\CtApMapFusion.vxe:80051294 00000010 W _ZN9mapfusion15ObstacleFeatureINS_12GlobalConfigILj4ELj6ELj2ELj2EEEED1Ev
E:\zFAS-Jenkins\workspace\zFAS_AIT_Master_AAT\SW\0300_ApplicationLayer\branches\CL3_REL_320_3XX\0350_SWC-SET\CtApMapFusion\02_libs\CtApMapFusion.vxe:80266484 00000080 W _ZN9mapfusion15ObstaclePreProc13scaleToMinMaxILj1EEENS_10ResultTypeERAT__fffRh
E:\zFAS-Jenkins\workspace\zFAS_AIT_Master_AAT\SW\0300_ApplicationLayer\branches\CL3_REL_320_3XX\0350_SWC-SET\CtApMapFusion\02_libs\CtApMapFusion.vxe:80266748 000000a4 W _ZN9mapfusion15ObstaclePreProc13scaleToMinMaxILj3EEENS_10ResultTypeERAT__fffRh
E:\zFAS-Jenkins\workspace\zFAS_AIT_Master_AAT\SW\0300_ApplicationLayer\branches\CL3_REL_320_3XX\0350_SWC-SET\CtApMapFusion\02_libs\CtApMapFusion.vxe:80266a44 00000090 W _ZN9mapfusion15ObstaclePreProc13scaleToMinMaxILj5EEENS_10ResultTypeERAT__fffRh
E:\zFAS-Jenkins\workspace\zFAS_AIT_Master_AAT\SW\0300_ApplicationLayer\branches\CL3_REL_320_3XX\0350_SWC-SET\CtApMapFusion\02_libs\CtApMapFusion.vxe:80266504 00000090 W _ZN9mapfusion15ObstaclePreProc19roundConfidenceListILj1EEEvRAT__KfRAT__hRKh
E:\zFAS-Jenkins\workspace\zFAS_AIT_Master_AAT\SW\0300_ApplicationLayer\branches\CL3_REL_320_3XX\0350_SWC-SET\CtApMapFusion\02_libs\CtApMapFusion.vxe:802667ec 000000a4 W _ZN9mapfusion15ObstaclePreProc19roundConfidenceListILj3EEEvRAT__KfRAT__hRKh
E:\zFAS-Jenkins\workspace\zFAS_AIT_Master_AAT\SW\0300_ApplicationLayer\branches\CL3_REL_320_3XX\0350_SWC-SET\CtApMapFusion\02_libs\CtApMapFusion.vxe:80266ad4 000000a4 W _ZN9mapfusion15ObstaclePreProc19roundConfidenceListILj5EEEvRAT__KfRAT__hRKh
E:\zFAS-Jenkins\workspace\zFAS_AIT_Master_AAT\SW\0300_ApplicationLayer\branches\CL3_REL_320_3XX\0350_SWC-SET\CtApMapFusion\02_libs\CtApMapFusion.vxe:80266014 00000310 T _ZN9mapfusion15ObstaclePreProc4initEPKc
E:\zFAS-Jenkins\workspace\zFAS_AIT_Master_AAT\SW\0300_ApplicationLayer\branches\CL3_REL_320_3XX\0350_SWC-SET\CtApMapFusion\02_libs\CtApMapFusion.vxe:80265dcc 00000090 T _ZN9mapfusion15ObstaclePreProcC1Ev
E:\zFAS-Jenkins\workspace\zFAS_AIT_Master_AAT\SW\0300_ApplicationLayer\branches\CL3_REL_320_3XX\0350_SWC-SET\CtApMapFusion\02_libs\CtApMapFusion.vxe:80265dcc 00000090 T _ZN9mapfusion15ObstaclePreProcC2Ev
E:\zFAS-Jenkins\workspace\zFAS_AIT_Master_AAT\SW\0300_ApplicationLayer\branches\CL3_REL_320_3XX\0350_SWC-SET\CtApMapFusion\02_libs\CtApMapFusion.vxe:8005e558 00000174 W _ZN9mapfusion15PriorityHandlerINS_18LSPrioritySelectorEN9fencesapi10IFencesApiI27_Dt_RECORD_LSObstacleFences28_Dt_RECORD_LSObstacleContour27_Dt_RECORD_LSObstacleVertexLj64ELj350ELj3ELj12EjjjEEE4initEPKc
E:\zFAS-Jenkins\workspace\zFAS_AIT_Master_AAT\SW\0300_ApplicationLayer\branches\CL3_REL_320_3XX\0350_SWC-SET\CtApMapFusion\02_libs\CtApMapFusion.vxe:8005fb24 00000174 W _ZN9mapfusion15PriorityHandlerINS_18LSPrioritySelectorEN9fencesapi10IFencesApiI28_Dt_RECORD_LSFreespaceFences29_Dt_RECORD_LSFreespaceContour28_Dt_RECORD_LSFreespaceVertexLj64ELj350ELj1ELj1EjNS2_34ZfasLsFreespaceContourApiAddMemberEjEEE4initEPKc
E:\zFAS-Jenkins\workspace\zFAS_AIT_Master_AAT\SW\0300_ApplicationLayer\branches\CL3_REL_320_3XX\0350_SWC-SET\CtApMapFusion\02_libs\CtApMapFusion.vxe:8005f2a0 00000174 W _ZN9mapfusion15PriorityHandlerINS_18USPrioritySelectorEN9fencesapi10IFencesApiI27_Dt_RECORD_USObstacleFences28_Dt_RECORD_USObstacleContour27_Dt_RECORD_USObstacleVertexLj24ELj48ELj3ELj12ENS2_36UsObstacleFencesApiAdditionalMembersEjtEEE4initEPKc
E:\zFAS-Jenkins\workspace\zFAS_AIT_Master_AAT\SW\0300_ApplicationLayer\branches\CL3_REL_320_3XX\0350_SWC-SET\CtApMapFusion\02_libs\CtApMapFusion.vxe:800601cc 00000174 W _ZN9mapfusion15PriorityHandlerINS_18USPrioritySelectorEN9fencesapi10IFencesApiI28_Dt_RECORD_USFreespaceFences29_Dt_RECORD_USFreespaceContour28_Dt_RECORD_USFreespaceVertexLj48ELj192ELj1ELj1EjjjEEE4initEPKc
E:\zFAS-Jenkins\workspace\zFAS_AIT_Master_AAT\SW\0300_ApplicationLayer\branches\CL3_REL_320_3XX\0350_SWC-SET\CtApMapFusion\02_libs\CtApMapFusion.vxe:8005ef4c 00000174 W _ZN9mapfusion15PriorityHandlerINS_20TVIPPrioritySelectorEN9fencesapi10IFencesApiI29_Dt_RECORD_TVBVObstacleFences30_Dt_RECORD_TVBVObstacleContour29_Dt_RECORD_TVBVObstacleVertexLj64ELj200ELj3ELj12EjjjEEE4initEPKc
E:\zFAS-Jenkins\workspace\zFAS_AIT_Master_AAT\SW\0300_ApplicationLayer\branches\CL3_REL_320_3XX\0350_SWC-SET\CtApMapFusion\02_libs\CtApMapFusion.vxe:8005fe78 00000174 W _ZN9mapfusion15PriorityHandlerINS_20TVIPPrioritySelectorEN9fencesapi10IFencesApiI30_Dt_RECORD_TVBVFreespaceFences31_Dt_RECORD_TVBVFreespaceContour30_Dt_RECORD_TVBVFreespaceVertexLj128ELj440ELj1ELj1EjjjEEE4initEPKc
E:\zFAS-Jenkins\workspace\zFAS_AIT_Master_AAT\SW\0300_ApplicationLayer\branches\CL3_REL_320_3XX\0350_SWC-SET\CtApMapFusion\02_libs\CtApMapFusion.vxe:8005f5f4 00000170 W _ZN9mapfusion15PriorityHandlerINS_22CommonPrioritySelectorEN9fencesapi10IFencesApiI19_Dt_RECORD_MVFences20_Dt_RECORD_MVContour19_Dt_RECORD_MVVertexLj100ELj100ELj3ELj13ENS2_28MvFencesApiAdditionalMembersEjjEEE4initEPKc
E:\zFAS-Jenkins\workspace\zFAS_AIT_Master_AAT\SW\0300_ApplicationLayer\branches\CL3_REL_320_3XX\0350_SWC-SET\CtApMapFusion\02_libs\CtApMapFusion.vxe:8005e8ac 00000170 W _ZN9mapfusion15PriorityHandlerINS_22CommonPrioritySelectorEN9fencesapi10IFencesApiI28_Dt_RECORD_LRRObstacleFences29_Dt_RECORD_LRRObstacleContour28_Dt_RECORD_LRRObstacleVertexLj10ELj20ELj3ELj12EjjjEEE4initEPKc
E:\zFAS-Jenkins\workspace\zFAS_AIT_Master_AAT\SW\0300_ApplicationLayer\branches\CL3_REL_320_3XX\0350_SWC-SET\CtApMapFusion\02_libs\CtApMapFusion.vxe:8005ebfc 00000170 W _ZN9mapfusion15PriorityHandlerINS_22CommonPrioritySelectorEN9fencesapi10IFencesApiI28_Dt_RECORD_MRRObstacleFences29_Dt_RECORD_MRRObstacleContour28_Dt_RECORD_MRRObstacleVertexLj10ELj20ELj3ELj12EjjjEEE4initEPKc
E:\zFAS-Jenkins\workspace\zFAS_AIT_Master_AAT\SW\0300_ApplicationLayer\branches\CL3_REL_320_3XX\0350_SWC-SET\CtApMapFusion\02_libs\CtApMapFusion.vxe:80060520 00000170 W _ZN9mapfusion15PriorityHandlerINS_22CommonPrioritySelectorEN9fencesapi10IFencesApiIN15fencesinterface17FencesLightStructENS4_7ContourENS4_6VertexELj250ELj500ELj5ELj31EjjjEEE4initEPKc
E:\zFAS-Jenkins\workspace\zFAS_AIT_Master_AAT\SW\0300_ApplicationLayer\branches\CL3_REL_320_3XX\0350_SWC-SET\CtApMapFusion\02_libs\CtApMapFusion.vxe:80262784 000000b0 T _ZN9mapfusion15ScheduleManager10getNextJobERNS_3JobERNS_8JobStateEPPNS_15FusionParameterE
E:\zFAS-Jenkins\workspace\zFAS_AIT_Master_AAT\SW\0300_ApplicationLayer\branches\CL3_REL_320_3XX\0350_SWC-SET\CtApMapFusion\02_libs\CtApMapFusion.vxe:80262614 00000010 T _ZN9mapfusion15ScheduleManager10resetCycleEv
E:\zFAS-Jenkins\workspace\zFAS_AIT_Master_AAT\SW\0300_ApplicationLayer\branches\CL3_REL_320_3XX\0350_SWC-SET\CtApMapFusion\02_libs\CtApMapFusion.vxe:80262624 000000bc T _ZN9mapfusion15ScheduleManager10startCycleEjj
E:\zFAS-Jenkins\workspace\zFAS_AIT_Master_AAT\SW\0300_ApplicationLayer\branches\CL3_REL_320_3XX\0350_SWC-SET\CtApMapFusion\02_libs\CtApMapFusion.vxe:80263938 000001b4 T _ZN9mapfusion15ScheduleManager14initPseudeJobsERNS_13ScheduleEntryES2_S2_PKc
E:\zFAS-Jenkins\workspace\zFAS_AIT_Master_AAT\SW\0300_ApplicationLayer\branches\CL3_REL_320_3XX\0350_SWC-SET\CtApMapFusion\02_libs\CtApMapFusion.vxe:802628f4 00001044 T _ZN9mapfusion15ScheduleManager27scheduleManagerGetParameterERNS_10ResultTypeENS0_10ParamsTypeEPKcRNS_15SchedulerParamsERNS_13ScheduleEntryE
E:\zFAS-Jenkins\workspace\zFAS_AIT_Master_AAT\SW\0300_ApplicationLayer\branches\CL3_REL_320_3XX\0350_SWC-SET\CtApMapFusion\02_libs\CtApMapFusion.vxe:80263aec 00000464 T _ZN9mapfusion15ScheduleManager4initERKNS0_10InitParamsE
E:\zFAS-Jenkins\workspace\zFAS_AIT_Master_AAT\SW\0300_ApplicationLayer\branches\CL3_REL_320_3XX\0350_SWC-SET\CtApMapFusion\02_libs\CtApMapFusion.vxe:80262834 00000088 T _ZN9mapfusion15ScheduleManager6endJobERKNS_3JobE
E:\zFAS-Jenkins\workspace\zFAS_AIT_Master_AAT\SW\0300_ApplicationLayer\branches\CL3_REL_320_3XX\0350_SWC-SET\CtApMapFusion\02_libs\CtApMapFusion.vxe:8026257c 00000098 T _ZN9mapfusion15ScheduleManagerC1Ev
E:\zFAS-Jenkins\workspace\zFAS_AIT_Master_AAT\SW\0300_ApplicationLayer\branches\CL3_REL_320_3XX\0350_SWC-SET\CtApMapFusion\02_libs\CtApMapFusion.vxe:8026257c 00000098 T _ZN9mapfusion15ScheduleManagerC2Ev
E:\zFAS-Jenkins\workspace\zFAS_AIT_Master_AAT\SW\0300_ApplicationLayer\branches\CL3_REL_320_3XX\0350_SWC-SET\CtApMapFusion\02_libs\CtApMapFusion.vxe:80262550 0000002c T _ZN9mapfusion15ScheduleManagerD0Ev
E:\zFAS-Jenkins\workspace\zFAS_AIT_Master_AAT\SW\0300_ApplicationLayer\branches\CL3_REL_320_3XX\0350_SWC-SET\CtApMapFusion\02_libs\CtApMapFusion.vxe:80262534 0000001c T _ZN9mapfusion15ScheduleManagerD1Ev
E:\zFAS-Jenkins\workspace\zFAS_AIT_Master_AAT\SW\0300_ApplicationLayer\branches\CL3_REL_320_3XX\0350_SWC-SET\CtApMapFusion\02_libs\CtApMapFusion.vxe:80262534 0000001c T _ZN9mapfusion15ScheduleManagerD2Ev
E:\zFAS-Jenkins\workspace\zFAS_AIT_Master_AAT\SW\0300_ApplicationLayer\branches\CL3_REL_320_3XX\0350_SWC-SET\CtApMapFusion\02_libs\CtApMapFusion.vxe:800273b4 00000310 W _ZN9mapfusion15TmpVertexBufferC1Ev
E:\zFAS-Jenkins\workspace\zFAS_AIT_Master_AAT\SW\0300_ApplicationLayer\branches\CL3_REL_320_3XX\0350_SWC-SET\CtApMapFusion\02_libs\CtApMapFusion.vxe:802653e8 00000114 T _ZN9mapfusion16FreespacePreProc4initEPKc
E:\zFAS-Jenkins\workspace\zFAS_AIT_Master_AAT\SW\0300_ApplicationLayer\branches\CL3_REL_320_3XX\0350_SWC-SET\CtApMapFusion\02_libs\CtApMapFusion.vxe:802651f4 00000114 T _ZN9mapfusion16FreespacePreProcC1Ev
E:\zFAS-Jenkins\workspace\zFAS_AIT_Master_AAT\SW\0300_ApplicationLayer\branches\CL3_REL_320_3XX\0350_SWC-SET\CtApMapFusion\02_libs\CtApMapFusion.vxe:802651f4 00000114 T _ZN9mapfusion16FreespacePreProcC2Ev
E:\zFAS-Jenkins\workspace\zFAS_AIT_Master_AAT\SW\0300_ApplicationLayer\branches\CL3_REL_320_3XX\0350_SWC-SET\CtApMapFusion\02_libs\CtApMapFusion.vxe:80266d40 000000fc W _ZN9mapfusion16PrioSelectorBase9readParamIfEEbRT_PKcS5_
E:\zFAS-Jenkins\workspace\zFAS_AIT_Master_AAT\SW\0300_ApplicationLayer\branches\CL3_REL_320_3XX\0350_SWC-SET\CtApMapFusion\02_libs\CtApMapFusion.vxe:80266e3c 000000fc W _ZN9mapfusion16PrioSelectorBase9readParamIhEEbRT_PKcS5_
E:\zFAS-Jenkins\workspace\zFAS_AIT_Master_AAT\SW\0300_ApplicationLayer\branches\CL3_REL_320_3XX\0350_SWC-SET\CtApMapFusion\02_libs\CtApMapFusion.vxe:802bb910 00000008 T _ZN9mapfusion16RteDiagInterface13getFspClearedERh
E:\zFAS-Jenkins\workspace\zFAS_AIT_Master_AAT\SW\0300_ApplicationLayer\branches\CL3_REL_320_3XX\0350_SWC-SET\CtApMapFusion\02_libs\CtApMapFusion.vxe:802bb918 0000000c T _ZN9mapfusion16RteDiagInterface14getEventStatusEtRh
E:\zFAS-Jenkins\workspace\zFAS_AIT_Master_AAT\SW\0300_ApplicationLayer\branches\CL3_REL_320_3XX\0350_SWC-SET\CtApMapFusion\02_libs\CtApMapFusion.vxe:802bb924 0000000c T _ZN9mapfusion16RteDiagInterface14setEventStatusEth
E:\zFAS-Jenkins\workspace\zFAS_AIT_Master_AAT\SW\0300_ApplicationLayer\branches\CL3_REL_320_3XX\0350_SWC-SET\CtApMapFusion\02_libs\CtApMapFusion.vxe:802bb908 00000008 T _ZN9mapfusion16RteDiagInterface17writeMeasurementsERK29_Dt_RECORD_Messwert_MapFusion
E:\zFAS-Jenkins\workspace\zFAS_AIT_Master_AAT\SW\0300_ApplicationLayer\branches\CL3_REL_320_3XX\0350_SWC-SET\CtApMapFusion\02_libs\CtApMapFusion.vxe:802bb930 00000010 T _ZN9mapfusion16RteDiagInterfaceC1Ev
E:\zFAS-Jenkins\workspace\zFAS_AIT_Master_AAT\SW\0300_ApplicationLayer\branches\CL3_REL_320_3XX\0350_SWC-SET\CtApMapFusion\02_libs\CtApMapFusion.vxe:802bb930 00000010 T _ZN9mapfusion16RteDiagInterfaceC2Ev
E:\zFAS-Jenkins\workspace\zFAS_AIT_Master_AAT\SW\0300_ApplicationLayer\branches\CL3_REL_320_3XX\0350_SWC-SET\CtApMapFusion\02_libs\CtApMapFusion.vxe:802bb950 00000020 W _ZN9mapfusion16RteDiagInterfaceD0Ev
E:\zFAS-Jenkins\workspace\zFAS_AIT_Master_AAT\SW\0300_ApplicationLayer\branches\CL3_REL_320_3XX\0350_SWC-SET\CtApMapFusion\02_libs\CtApMapFusion.vxe:802bb940 00000010 W _ZN9mapfusion16RteDiagInterfaceD1Ev
E:\zFAS-Jenkins\workspace\zFAS_AIT_Master_AAT\SW\0300_ApplicationLayer\branches\CL3_REL_320_3XX\0350_SWC-SET\CtApMapFusion\02_libs\CtApMapFusion.vxe:80025dfc 0000043c W _ZN9mapfusion16StageThreeFilterIN9fencesapi10IFencesApiI28_Dt_RECORD_DMLObstacleFences29_Dt_RECORD_DMLObstacleContour28_Dt_RECORD_DMLObstacleVertexLj50ELj100ELj3ELj12EjjjEEE10endContourEv
E:\zFAS-Jenkins\workspace\zFAS_AIT_Master_AAT\SW\0300_ApplicationLayer\branches\CL3_REL_320_3XX\0350_SWC-SET\CtApMapFusion\02_libs\CtApMapFusion.vxe:80024590 000000ec W _ZN9mapfusion16StageThreeFilterIN9fencesapi10IFencesApiI28_Dt_RECORD_DMLObstacleFences29_Dt_RECORD_DMLObstacleContour28_Dt_RECORD_DMLObstacleVertexLj50ELj100ELj3ELj12EjjjEEE11startBufferEhRKNS_10ResultTypeE
E:\zFAS-Jenkins\workspace\zFAS_AIT_Master_AAT\SW\0300_ApplicationLayer\branches\CL3_REL_320_3XX\0350_SWC-SET\CtApMapFusion\02_libs\CtApMapFusion.vxe:8001bb6c 00000004 W _ZN9mapfusion16StageThreeFilterIN9fencesapi10IFencesApiI28_Dt_RECORD_DMLObstacleFences29_Dt_RECORD_DMLObstacleContour28_Dt_RECORD_DMLObstacleVertexLj50ELj100ELj3ELj12EjjjEEE12setFailureQMEv
E:\zFAS-Jenkins\workspace\zFAS_AIT_Master_AAT\SW\0300_ApplicationLayer\branches\CL3_REL_320_3XX\0350_SWC-SET\CtApMapFusion\02_libs\CtApMapFusion.vxe:8001badc 00000090 W _ZN9mapfusion16StageThreeFilterIN9fencesapi10IFencesApiI28_Dt_RECORD_DMLObstacleFences29_Dt_RECORD_DMLObstacleContour28_Dt_RECORD_DMLObstacleVertexLj50ELj100ELj3ELj12EjjjEEE12startContourEhh
E:\zFAS-Jenkins\workspace\zFAS_AIT_Master_AAT\SW\0300_ApplicationLayer\branches\CL3_REL_320_3XX\0350_SWC-SET\CtApMapFusion\02_libs\CtApMapFusion.vxe:8001bad8 00000004 W _ZN9mapfusion16StageThreeFilterIN9fencesapi10IFencesApiI28_Dt_RECORD_DMLObstacleFences29_Dt_RECORD_DMLObstacleContour28_Dt_RECORD_DMLObstacleVertexLj50ELj100ELj3ELj12EjjjEEE14setPerformanceERKN15fencesinterface20PerformanceQualifierE
E:\zFAS-Jenkins\workspace\zFAS_AIT_Master_AAT\SW\0300_ApplicationLayer\branches\CL3_REL_320_3XX\0350_SWC-SET\CtApMapFusion\02_libs\CtApMapFusion.vxe:80024ab8 000000bc W _ZN9mapfusion16StageThreeFilterIN9fencesapi10IFencesApiI28_Dt_RECORD_DMLObstacleFences29_Dt_RECORD_DMLObstacleContour28_Dt_RECORD_DMLObstacleVertexLj50ELj100ELj3ELj12EjjjEEE18addProcessingErrorENS_10ResultTypeE
E:\zFAS-Jenkins\workspace\zFAS_AIT_Master_AAT\SW\0300_ApplicationLayer\branches\CL3_REL_320_3XX\0350_SWC-SET\CtApMapFusion\02_libs\CtApMapFusion.vxe:8002c3d4 0000051c W _ZN9mapfusion16StageThreeFilterIN9fencesapi10IFencesApiI28_Dt_RECORD_DMLObstacleFences29_Dt_RECORD_DMLObstacleContour28_Dt_RECORD_DMLObstacleVertexLj50ELj100ELj3ELj12EjjjEEE28checkIfVerticesMustBeDroppedEv
E:\zFAS-Jenkins\workspace\zFAS_AIT_Master_AAT\SW\0300_ApplicationLayer\branches\CL3_REL_320_3XX\0350_SWC-SET\CtApMapFusion\02_libs\CtApMapFusion.vxe:8002c8f0 000002a0 W _ZN9mapfusion16StageThreeFilterIN9fencesapi10IFencesApiI28_Dt_RECORD_DMLObstacleFences29_Dt_RECORD_DMLObstacleContour28_Dt_RECORD_DMLObstacleVertexLj50ELj100ELj3ELj12EjjjEEE3endEv
E:\zFAS-Jenkins\workspace\zFAS_AIT_Master_AAT\SW\0300_ApplicationLayer\branches\CL3_REL_320_3XX\0350_SWC-SET\CtApMapFusion\02_libs\CtApMapFusion.vxe:8001bac8 00000008 W _ZN9mapfusion16StageThreeFilterIN9fencesapi10IFencesApiI28_Dt_RECORD_DMLObstacleFences29_Dt_RECORD_DMLObstacleContour28_Dt_RECORD_DMLObstacleVertexLj50ELj100ELj3ELj12EjjjEEE4initEv
E:\zFAS-Jenkins\workspace\zFAS_AIT_Master_AAT\SW\0300_ApplicationLayer\branches\CL3_REL_320_3XX\0350_SWC-SET\CtApMapFusion\02_libs\CtApMapFusion.vxe:8001f490 00000128 W _ZN9mapfusion16StageThreeFilterIN9fencesapi10IFencesApiI28_Dt_RECORD_DMLObstacleFences29_Dt_RECORD_DMLObstacleContour28_Dt_RECORD_DMLObstacleVertexLj50ELj100ELj3ELj12EjjjEEE8startCmdERKNS_4stg317StageThreeCommandERK9TimeStampj
E:\zFAS-Jenkins\workspace\zFAS_AIT_Master_AAT\SW\0300_ApplicationLayer\branches\CL3_REL_320_3XX\0350_SWC-SET\CtApMapFusion\02_libs\CtApMapFusion.vxe:8002bdec 000005e8 W _ZN9mapfusion16StageThreeFilterIN9fencesapi10IFencesApiI28_Dt_RECORD_DMLObstacleFences29_Dt_RECORD_DMLObstacleContour28_Dt_RECORD_DMLObstacleVertexLj50ELj100ELj3ELj12EjjjEEE9addVertexERKNS_4stg39TmpVertexE
E:\zFAS-Jenkins\workspace\zFAS_AIT_Master_AAT\SW\0300_ApplicationLayer\branches\CL3_REL_320_3XX\0350_SWC-SET\CtApMapFusion\02_libs\CtApMapFusion.vxe:8002b3fc 000009f0 W _ZN9mapfusion16StageThreeFilterIN9fencesapi10IFencesApiI28_Dt_RECORD_DMLObstacleFences29_Dt_RECORD_DMLObstacleContour28_Dt_RECORD_DMLObstacleVertexLj50ELj100ELj3ELj12EjjjEEE9addVertexERKNS_4stg39TmpVertexESB_
E:\zFAS-Jenkins\workspace\zFAS_AIT_Master_AAT\SW\0300_ApplicationLayer\branches\CL3_REL_320_3XX\0350_SWC-SET\CtApMapFusion\02_libs\CtApMapFusion.vxe:8001bad0 00000008 W _ZN9mapfusion16StageThreeFilterIN9fencesapi10IFencesApiI28_Dt_RECORD_DMLObstacleFences29_Dt_RECORD_DMLObstacleContour28_Dt_RECORD_DMLObstacleVertexLj50ELj100ELj3ELj12EjjjEEE9initFenceEjRK9TimeStamp
E:\zFAS-Jenkins\workspace\zFAS_AIT_Master_AAT\SW\0300_ApplicationLayer\branches\CL3_REL_320_3XX\0350_SWC-SET\CtApMapFusion\02_libs\CtApMapFusion.vxe:8001ed64 00000020 W _ZN9mapfusion16StageThreeFilterIN9fencesapi10IFencesApiI28_Dt_RECORD_DMLObstacleFences29_Dt_RECORD_DMLObstacleContour28_Dt_RECORD_DMLObstacleVertexLj50ELj100ELj3ELj12EjjjEEED0Ev
E:\zFAS-Jenkins\workspace\zFAS_AIT_Master_AAT\SW\0300_ApplicationLayer\branches\CL3_REL_320_3XX\0350_SWC-SET\CtApMapFusion\02_libs\CtApMapFusion.vxe:8001b560 00000010 W _ZN9mapfusion16StageThreeFilterIN9fencesapi10IFencesApiI28_Dt_RECORD_DMLObstacleFences29_Dt_RECORD_DMLObstacleContour28_Dt_RECORD_DMLObstacleVertexLj50ELj100ELj3ELj12EjjjEEED1Ev
E:\zFAS-Jenkins\workspace\zFAS_AIT_Master_AAT\SW\0300_ApplicationLayer\branches\CL3_REL_320_3XX\0350_SWC-SET\CtApMapFusion\02_libs\CtApMapFusion.vxe:80026238 0000043c W _ZN9mapfusion16StageThreeFilterIN9fencesapi10IFencesApiI29_Dt_RECORD_ParkObstacleFences30_Dt_RECORD_ParkObstacleContour29_Dt_RECORD_ParkObstacleVertexLj250ELj500ELj3ELj12EjjjEEE10endContourEv
E:\zFAS-Jenkins\workspace\zFAS_AIT_Master_AAT\SW\0300_ApplicationLayer\branches\CL3_REL_320_3XX\0350_SWC-SET\CtApMapFusion\02_libs\CtApMapFusion.vxe:80024768 000000ec W _ZN9mapfusion16StageThreeFilterIN9fencesapi10IFencesApiI29_Dt_RECORD_ParkObstacleFences30_Dt_RECORD_ParkObstacleContour29_Dt_RECORD_ParkObstacleVertexLj250ELj500ELj3ELj12EjjjEEE11startBufferEhRKNS_10ResultTypeE
E:\zFAS-Jenkins\workspace\zFAS_AIT_Master_AAT\SW\0300_ApplicationLayer\branches\CL3_REL_320_3XX\0350_SWC-SET\CtApMapFusion\02_libs\CtApMapFusion.vxe:8001c684 00000004 W _ZN9mapfusion16StageThreeFilterIN9fencesapi10IFencesApiI29_Dt_RECORD_ParkObstacleFences30_Dt_RECORD_ParkObstacleContour29_Dt_RECORD_ParkObstacleVertexLj250ELj500ELj3ELj12EjjjEEE12setFailureQMEv
E:\zFAS-Jenkins\workspace\zFAS_AIT_Master_AAT\SW\0300_ApplicationLayer\branches\CL3_REL_320_3XX\0350_SWC-SET\CtApMapFusion\02_libs\CtApMapFusion.vxe:8001c5f4 00000090 W _ZN9mapfusion16StageThreeFilterIN9fencesapi10IFencesApiI29_Dt_RECORD_ParkObstacleFences30_Dt_RECORD_ParkObstacleContour29_Dt_RECORD_ParkObstacleVertexLj250ELj500ELj3ELj12EjjjEEE12startContourEhh
E:\zFAS-Jenkins\workspace\zFAS_AIT_Master_AAT\SW\0300_ApplicationLayer\branches\CL3_REL_320_3XX\0350_SWC-SET\CtApMapFusion\02_libs\CtApMapFusion.vxe:8001c5f0 00000004 W _ZN9mapfusion16StageThreeFilterIN9fencesapi10IFencesApiI29_Dt_RECORD_ParkObstacleFences30_Dt_RECORD_ParkObstacleContour29_Dt_RECORD_ParkObstacleVertexLj250ELj500ELj3ELj12EjjjEEE14setPerformanceERKN15fencesinterface20PerformanceQualifierE
E:\zFAS-Jenkins\workspace\zFAS_AIT_Master_AAT\SW\0300_ApplicationLayer\branches\CL3_REL_320_3XX\0350_SWC-SET\CtApMapFusion\02_libs\CtApMapFusion.vxe:80024940 000000bc W _ZN9mapfusion16StageThreeFilterIN9fencesapi10IFencesApiI29_Dt_RECORD_ParkObstacleFences30_Dt_RECORD_ParkObstacleContour29_Dt_RECORD_ParkObstacleVertexLj250ELj500ELj3ELj12EjjjEEE18addProcessingErrorENS_10ResultTypeE
E:\zFAS-Jenkins\workspace\zFAS_AIT_Master_AAT\SW\0300_ApplicationLayer\branches\CL3_REL_320_3XX\0350_SWC-SET\CtApMapFusion\02_libs\CtApMapFusion.vxe:80032a1c 0000051c W _ZN9mapfusion16StageThreeFilterIN9fencesapi10IFencesApiI29_Dt_RECORD_ParkObstacleFences30_Dt_RECORD_ParkObstacleContour29_Dt_RECORD_ParkObstacleVertexLj250ELj500ELj3ELj12EjjjEEE28checkIfVerticesMustBeDroppedEv
E:\zFAS-Jenkins\workspace\zFAS_AIT_Master_AAT\SW\0300_ApplicationLayer\branches\CL3_REL_320_3XX\0350_SWC-SET\CtApMapFusion\02_libs\CtApMapFusion.vxe:80032f38 000002a0 W _ZN9mapfusion16StageThreeFilterIN9fencesapi10IFencesApiI29_Dt_RECORD_ParkObstacleFences30_Dt_RECORD_ParkObstacleContour29_Dt_RECORD_ParkObstacleVertexLj250ELj500ELj3ELj12EjjjEEE3endEv
E:\zFAS-Jenkins\workspace\zFAS_AIT_Master_AAT\SW\0300_ApplicationLayer\branches\CL3_REL_320_3XX\0350_SWC-SET\CtApMapFusion\02_libs\CtApMapFusion.vxe:8001c5e0 00000008 W _ZN9mapfusion16StageThreeFilterIN9fencesapi10IFencesApiI29_Dt_RECORD_ParkObstacleFences30_Dt_RECORD_ParkObstacleContour29_Dt_RECORD_ParkObstacleVertexLj250ELj500ELj3ELj12EjjjEEE4initEv
E:\zFAS-Jenkins\workspace\zFAS_AIT_Master_AAT\SW\0300_ApplicationLayer\branches\CL3_REL_320_3XX\0350_SWC-SET\CtApMapFusion\02_libs\CtApMapFusion.vxe:8001f6e0 00000128 W _ZN9mapfusion16StageThreeFilterIN9fencesapi10IFencesApiI29_Dt_RECORD_ParkObstacleFences30_Dt_RECORD_ParkObstacleContour29_Dt_RECORD_ParkObstacleVertexLj250ELj500ELj3ELj12EjjjEEE8startCmdERKNS_4stg317StageThreeCommandERK9TimeStampj
E:\zFAS-Jenkins\workspace\zFAS_AIT_Master_AAT\SW\0300_ApplicationLayer\branches\CL3_REL_320_3XX\0350_SWC-SET\CtApMapFusion\02_libs\CtApMapFusion.vxe:80032434 000005e8 W _ZN9mapfusion16StageThreeFilterIN9fencesapi10IFencesApiI29_Dt_RECORD_ParkObstacleFences30_Dt_RECORD_ParkObstacleContour29_Dt_RECORD_ParkObstacleVertexLj250ELj500ELj3ELj12EjjjEEE9addVertexERKNS_4stg39TmpVertexE
E:\zFAS-Jenkins\workspace\zFAS_AIT_Master_AAT\SW\0300_ApplicationLayer\branches\CL3_REL_320_3XX\0350_SWC-SET\CtApMapFusion\02_libs\CtApMapFusion.vxe:80031a44 000009f0 W _ZN9mapfusion16StageThreeFilterIN9fencesapi10IFencesApiI29_Dt_RECORD_ParkObstacleFences30_Dt_RECORD_ParkObstacleContour29_Dt_RECORD_ParkObstacleVertexLj250ELj500ELj3ELj12EjjjEEE9addVertexERKNS_4stg39TmpVertexESB_
E:\zFAS-Jenkins\workspace\zFAS_AIT_Master_AAT\SW\0300_ApplicationLayer\branches\CL3_REL_320_3XX\0350_SWC-SET\CtApMapFusion\02_libs\CtApMapFusion.vxe:8001c5e8 00000008 W _ZN9mapfusion16StageThreeFilterIN9fencesapi10IFencesApiI29_Dt_RECORD_ParkObstacleFences30_Dt_RECORD_ParkObstacleContour29_Dt_RECORD_ParkObstacleVertexLj250ELj500ELj3ELj12EjjjEEE9initFenceEjRK9TimeStamp
E:\zFAS-Jenkins\workspace\zFAS_AIT_Master_AAT\SW\0300_ApplicationLayer\branches\CL3_REL_320_3XX\0350_SWC-SET\CtApMapFusion\02_libs\CtApMapFusion.vxe:8001ec84 00000020 W _ZN9mapfusion16StageThreeFilterIN9fencesapi10IFencesApiI29_Dt_RECORD_ParkObstacleFences30_Dt_RECORD_ParkObstacleContour29_Dt_RECORD_ParkObstacleVertexLj250ELj500ELj3ELj12EjjjEEED0Ev
E:\zFAS-Jenkins\workspace\zFAS_AIT_Master_AAT\SW\0300_ApplicationLayer\branches\CL3_REL_320_3XX\0350_SWC-SET\CtApMapFusion\02_libs\CtApMapFusion.vxe:8001b520 00000010 W _ZN9mapfusion16StageThreeFilterIN9fencesapi10IFencesApiI29_Dt_RECORD_ParkObstacleFences30_Dt_RECORD_ParkObstacleContour29_Dt_RECORD_ParkObstacleVertexLj250ELj500ELj3ELj12EjjjEEED1Ev
E:\zFAS-Jenkins\workspace\zFAS_AIT_Master_AAT\SW\0300_ApplicationLayer\branches\CL3_REL_320_3XX\0350_SWC-SET\CtApMapFusion\02_libs\CtApMapFusion.vxe:80026eec 0000043c W _ZN9mapfusion16StageThreeFilterIN9fencesapi10IFencesApiI33_Dt_RECORD_TVRenderObstacleFences34_Dt_RECORD_TVRenderObstacleContour33_Dt_RECORD_TVRenderObstacleVertexLj250ELj500ELj3ELj12EjjjEEE10endContourEv
E:\zFAS-Jenkins\workspace\zFAS_AIT_Master_AAT\SW\0300_ApplicationLayer\branches\CL3_REL_320_3XX\0350_SWC-SET\CtApMapFusion\02_libs\CtApMapFusion.vxe:800244a4 000000ec W _ZN9mapfusion16StageThreeFilterIN9fencesapi10IFencesApiI33_Dt_RECORD_TVRenderObstacleFences34_Dt_RECORD_TVRenderObstacleContour33_Dt_RECORD_TVRenderObstacleVertexLj250ELj500ELj3ELj12EjjjEEE11startBufferEhRKNS_10ResultTypeE
E:\zFAS-Jenkins\workspace\zFAS_AIT_Master_AAT\SW\0300_ApplicationLayer\branches\CL3_REL_320_3XX\0350_SWC-SET\CtApMapFusion\02_libs\CtApMapFusion.vxe:8001c0f0 00000004 W _ZN9mapfusion16StageThreeFilterIN9fencesapi10IFencesApiI33_Dt_RECORD_TVRenderObstacleFences34_Dt_RECORD_TVRenderObstacleContour33_Dt_RECORD_TVRenderObstacleVertexLj250ELj500ELj3ELj12EjjjEEE12setFailureQMEv
E:\zFAS-Jenkins\workspace\zFAS_AIT_Master_AAT\SW\0300_ApplicationLayer\branches\CL3_REL_320_3XX\0350_SWC-SET\CtApMapFusion\02_libs\CtApMapFusion.vxe:8001c060 00000090 W _ZN9mapfusion16StageThreeFilterIN9fencesapi10IFencesApiI33_Dt_RECORD_TVRenderObstacleFences34_Dt_RECORD_TVRenderObstacleContour33_Dt_RECORD_TVRenderObstacleVertexLj250ELj500ELj3ELj12EjjjEEE12startContourEhh
E:\zFAS-Jenkins\workspace\zFAS_AIT_Master_AAT\SW\0300_ApplicationLayer\branches\CL3_REL_320_3XX\0350_SWC-SET\CtApMapFusion\02_libs\CtApMapFusion.vxe:8001c05c 00000004 W _ZN9mapfusion16StageThreeFilterIN9fencesapi10IFencesApiI33_Dt_RECORD_TVRenderObstacleFences34_Dt_RECORD_TVRenderObstacleContour33_Dt_RECORD_TVRenderObstacleVertexLj250ELj500ELj3ELj12EjjjEEE14setPerformanceERKN15fencesinterface20PerformanceQualifierE
E:\zFAS-Jenkins\workspace\zFAS_AIT_Master_AAT\SW\0300_ApplicationLayer\branches\CL3_REL_320_3XX\0350_SWC-SET\CtApMapFusion\02_libs\CtApMapFusion.vxe:80024b74 000000bc W _ZN9mapfusion16StageThreeFilterIN9fencesapi10IFencesApiI33_Dt_RECORD_TVRenderObstacleFences34_Dt_RECORD_TVRenderObstacleContour33_Dt_RECORD_TVRenderObstacleVertexLj250ELj500ELj3ELj12EjjjEEE18addProcessingErrorENS_10ResultTypeE
E:\zFAS-Jenkins\workspace\zFAS_AIT_Master_AAT\SW\0300_ApplicationLayer\branches\CL3_REL_320_3XX\0350_SWC-SET\CtApMapFusion\02_libs\CtApMapFusion.vxe:8002f6f8 0000051c W _ZN9mapfusion16StageThreeFilterIN9fencesapi10IFencesApiI33_Dt_RECORD_TVRenderObstacleFences34_Dt_RECORD_TVRenderObstacleContour33_Dt_RECORD_TVRenderObstacleVertexLj250ELj500ELj3ELj12EjjjEEE28checkIfVerticesMustBeDroppedEv
E:\zFAS-Jenkins\workspace\zFAS_AIT_Master_AAT\SW\0300_ApplicationLayer\branches\CL3_REL_320_3XX\0350_SWC-SET\CtApMapFusion\02_libs\CtApMapFusion.vxe:8002fc14 000002a0 W _ZN9mapfusion16StageThreeFilterIN9fencesapi10IFencesApiI33_Dt_RECORD_TVRenderObstacleFences34_Dt_RECORD_TVRenderObstacleContour33_Dt_RECORD_TVRenderObstacleVertexLj250ELj500ELj3ELj12EjjjEEE3endEv
E:\zFAS-Jenkins\workspace\zFAS_AIT_Master_AAT\SW\0300_ApplicationLayer\branches\CL3_REL_320_3XX\0350_SWC-SET\CtApMapFusion\02_libs\CtApMapFusion.vxe:8001c04c 00000008 W _ZN9mapfusion16StageThreeFilterIN9fencesapi10IFencesApiI33_Dt_RECORD_TVRenderObstacleFences34_Dt_RECORD_TVRenderObstacleContour33_Dt_RECORD_TVRenderObstacleVertexLj250ELj500ELj3ELj12EjjjEEE4initEv
E:\zFAS-Jenkins\workspace\zFAS_AIT_Master_AAT\SW\0300_ApplicationLayer\branches\CL3_REL_320_3XX\0350_SWC-SET\CtApMapFusion\02_libs\CtApMapFusion.vxe:8001f5b8 00000128 W _ZN9mapfusion16StageThreeFilterIN9fencesapi10IFencesApiI33_Dt_RECORD_TVRenderObstacleFences34_Dt_RECORD_TVRenderObstacleContour33_Dt_RECORD_TVRenderObstacleVertexLj250ELj500ELj3ELj12EjjjEEE8startCmdERKNS_4stg317StageThreeCommandERK9TimeStampj
E:\zFAS-Jenkins\workspace\zFAS_AIT_Master_AAT\SW\0300_ApplicationLayer\branches\CL3_REL_320_3XX\0350_SWC-SET\CtApMapFusion\02_libs\CtApMapFusion.vxe:8002f110 000005e8 W _ZN9mapfusion16StageThreeFilterIN9fencesapi10IFencesApiI33_Dt_RECORD_TVRenderObstacleFences34_Dt_RECORD_TVRenderObstacleContour33_Dt_RECORD_TVRenderObstacleVertexLj250ELj500ELj3ELj12EjjjEEE9addVertexERKNS_4stg39TmpVertexE
E:\zFAS-Jenkins\workspace\zFAS_AIT_Master_AAT\SW\0300_ApplicationLayer\branches\CL3_REL_320_3XX\0350_SWC-SET\CtApMapFusion\02_libs\CtApMapFusion.vxe:8002e720 000009f0 W _ZN9mapfusion16StageThreeFilterIN9fencesapi10IFencesApiI33_Dt_RECORD_TVRenderObstacleFences34_Dt_RECORD_TVRenderObstacleContour33_Dt_RECORD_TVRenderObstacleVertexLj250ELj500ELj3ELj12EjjjEEE9addVertexERKNS_4stg39TmpVertexESB_
E:\zFAS-Jenkins\workspace\zFAS_AIT_Master_AAT\SW\0300_ApplicationLayer\branches\CL3_REL_320_3XX\0350_SWC-SET\CtApMapFusion\02_libs\CtApMapFusion.vxe:8001c054 00000008 W _ZN9mapfusion16StageThreeFilterIN9fencesapi10IFencesApiI33_Dt_RECORD_TVRenderObstacleFences34_Dt_RECORD_TVRenderObstacleContour33_Dt_RECORD_TVRenderObstacleVertexLj250ELj500ELj3ELj12EjjjEEE9initFenceEjRK9TimeStamp
E:\zFAS-Jenkins\workspace\zFAS_AIT_Master_AAT\SW\0300_ApplicationLayer\branches\CL3_REL_320_3XX\0350_SWC-SET\CtApMapFusion\02_libs\CtApMapFusion.vxe:8001ecf4 00000020 W _ZN9mapfusion16StageThreeFilterIN9fencesapi10IFencesApiI33_Dt_RECORD_TVRenderObstacleFences34_Dt_RECORD_TVRenderObstacleContour33_Dt_RECORD_TVRenderObstacleVertexLj250ELj500ELj3ELj12EjjjEEED0Ev
E:\zFAS-Jenkins\workspace\zFAS_AIT_Master_AAT\SW\0300_ApplicationLayer\branches\CL3_REL_320_3XX\0350_SWC-SET\CtApMapFusion\02_libs\CtApMapFusion.vxe:8001b540 00000010 W _ZN9mapfusion16StageThreeFilterIN9fencesapi10IFencesApiI33_Dt_RECORD_TVRenderObstacleFences34_Dt_RECORD_TVRenderObstacleContour33_Dt_RECORD_TVRenderObstacleVertexLj250ELj500ELj3ELj12EjjjEEED1Ev
E:\zFAS-Jenkins\workspace\zFAS_AIT_Master_AAT\SW\0300_ApplicationLayer\branches\CL3_REL_320_3XX\0350_SWC-SET\CtApMapFusion\02_libs\CtApMapFusion.vxe:80026674 0000043c W _ZN9mapfusion16StageThreeFilterINS_14IFencesAdapterIN9fencesapi10IFencesApiIN15fencesinterface17FencesLightStructENS4_7ContourENS4_6VertexELj250ELj500ELj5ELj31EjjjEENS_6OCacheELj2097152ENS_22CommonPrioritySelectorEEEE10endContourEv
E:\zFAS-Jenkins\workspace\zFAS_AIT_Master_AAT\SW\0300_ApplicationLayer\branches\CL3_REL_320_3XX\0350_SWC-SET\CtApMapFusion\02_libs\CtApMapFusion.vxe:80024854 000000ec W _ZN9mapfusion16StageThreeFilterINS_14IFencesAdapterIN9fencesapi10IFencesApiIN15fencesinterface17FencesLightStructENS4_7ContourENS4_6VertexELj250ELj500ELj5ELj31EjjjEENS_6OCacheELj2097152ENS_22CommonPrioritySelectorEEEE11startBufferEhRKNS_10ResultTypeE
E:\zFAS-Jenkins\workspace\zFAS_AIT_Master_AAT\SW\0300_ApplicationLayer\branches\CL3_REL_320_3XX\0350_SWC-SET\CtApMapFusion\02_libs\CtApMapFusion.vxe:8001cf58 00000004 W _ZN9mapfusion16StageThreeFilterINS_14IFencesAdapterIN9fencesapi10IFencesApiIN15fencesinterface17FencesLightStructENS4_7ContourENS4_6VertexELj250ELj500ELj5ELj31EjjjEENS_6OCacheELj2097152ENS_22CommonPrioritySelectorEEEE12setFailureQMEv
E:\zFAS-Jenkins\workspace\zFAS_AIT_Master_AAT\SW\0300_ApplicationLayer\branches\CL3_REL_320_3XX\0350_SWC-SET\CtApMapFusion\02_libs\CtApMapFusion.vxe:8001cec8 00000090 W _ZN9mapfusion16StageThreeFilterINS_14IFencesAdapterIN9fencesapi10IFencesApiIN15fencesinterface17FencesLightStructENS4_7ContourENS4_6VertexELj250ELj500ELj5ELj31EjjjEENS_6OCacheELj2097152ENS_22CommonPrioritySelectorEEEE12startContourEhh
E:\zFAS-Jenkins\workspace\zFAS_AIT_Master_AAT\SW\0300_ApplicationLayer\branches\CL3_REL_320_3XX\0350_SWC-SET\CtApMapFusion\02_libs\CtApMapFusion.vxe:8001cec4 00000004 W _ZN9mapfusion16StageThreeFilterINS_14IFencesAdapterIN9fencesapi10IFencesApiIN15fencesinterface17FencesLightStructENS4_7ContourENS4_6VertexELj250ELj500ELj5ELj31EjjjEENS_6OCacheELj2097152ENS_22CommonPrioritySelectorEEEE14setPerformanceERKNS4_20PerformanceQualifierE
E:\zFAS-Jenkins\workspace\zFAS_AIT_Master_AAT\SW\0300_ApplicationLayer\branches\CL3_REL_320_3XX\0350_SWC-SET\CtApMapFusion\02_libs\CtApMapFusion.vxe:800249fc 000000bc W _ZN9mapfusion16StageThreeFilterINS_14IFencesAdapterIN9fencesapi10IFencesApiIN15fencesinterface17FencesLightStructENS4_7ContourENS4_6VertexELj250ELj500ELj5ELj31EjjjEENS_6OCacheELj2097152ENS_22CommonPrioritySelectorEEEE18addProcessingErrorENS_10ResultTypeE
E:\zFAS-Jenkins\workspace\zFAS_AIT_Master_AAT\SW\0300_ApplicationLayer\branches\CL3_REL_320_3XX\0350_SWC-SET\CtApMapFusion\02_libs\CtApMapFusion.vxe:800361c0 0000051c W _ZN9mapfusion16StageThreeFilterINS_14IFencesAdapterIN9fencesapi10IFencesApiIN15fencesinterface17FencesLightStructENS4_7ContourENS4_6VertexELj250ELj500ELj5ELj31EjjjEENS_6OCacheELj2097152ENS_22CommonPrioritySelectorEEEE28checkIfVerticesMustBeDroppedEv
E:\zFAS-Jenkins\workspace\zFAS_AIT_Master_AAT\SW\0300_ApplicationLayer\branches\CL3_REL_320_3XX\0350_SWC-SET\CtApMapFusion\02_libs\CtApMapFusion.vxe:800366dc 000002a0 W _ZN9mapfusion16StageThreeFilterINS_14IFencesAdapterIN9fencesapi10IFencesApiIN15fencesinterface17FencesLightStructENS4_7ContourENS4_6VertexELj250ELj500ELj5ELj31EjjjEENS_6OCacheELj2097152ENS_22CommonPrioritySelectorEEEE3endEv
E:\zFAS-Jenkins\workspace\zFAS_AIT_Master_AAT\SW\0300_ApplicationLayer\branches\CL3_REL_320_3XX\0350_SWC-SET\CtApMapFusion\02_libs\CtApMapFusion.vxe:8001ceb4 00000008 W _ZN9mapfusion16StageThreeFilterINS_14IFencesAdapterIN9fencesapi10IFencesApiIN15fencesinterface17FencesLightStructENS4_7ContourENS4_6VertexELj250ELj500ELj5ELj31EjjjEENS_6OCacheELj2097152ENS_22CommonPrioritySelectorEEEE4initEv
E:\zFAS-Jenkins\workspace\zFAS_AIT_Master_AAT\SW\0300_ApplicationLayer\branches\CL3_REL_320_3XX\0350_SWC-SET\CtApMapFusion\02_libs\CtApMapFusion.vxe:8001f808 00000128 W _ZN9mapfusion16StageThreeFilterINS_14IFencesAdapterIN9fencesapi10IFencesApiIN15fencesinterface17FencesLightStructENS4_7ContourENS4_6VertexELj250ELj500ELj5ELj31EjjjEENS_6OCacheELj2097152ENS_22CommonPrioritySelectorEEEE8startCmdERKNS_4stg317StageThreeCommandERK9TimeStampj
E:\zFAS-Jenkins\workspace\zFAS_AIT_Master_AAT\SW\0300_ApplicationLayer\branches\CL3_REL_320_3XX\0350_SWC-SET\CtApMapFusion\02_libs\CtApMapFusion.vxe:80035bd8 000005e8 W _ZN9mapfusion16StageThreeFilterINS_14IFencesAdapterIN9fencesapi10IFencesApiIN15fencesinterface17FencesLightStructENS4_7ContourENS4_6VertexELj250ELj500ELj5ELj31EjjjEENS_6OCacheELj2097152ENS_22CommonPrioritySelectorEEEE9addVertexERKNS_4stg39TmpVertexE
E:\zFAS-Jenkins\workspace\zFAS_AIT_Master_AAT\SW\0300_ApplicationLayer\branches\CL3_REL_320_3XX\0350_SWC-SET\CtApMapFusion\02_libs\CtApMapFusion.vxe:800351e8 000009f0 W _ZN9mapfusion16StageThreeFilterINS_14IFencesAdapterIN9fencesapi10IFencesApiIN15fencesinterface17FencesLightStructENS4_7ContourENS4_6VertexELj250ELj500ELj5ELj31EjjjEENS_6OCacheELj2097152ENS_22CommonPrioritySelectorEEEE9addVertexERKNS_4stg39TmpVertexESG_
E:\zFAS-Jenkins\workspace\zFAS_AIT_Master_AAT\SW\0300_ApplicationLayer\branches\CL3_REL_320_3XX\0350_SWC-SET\CtApMapFusion\02_libs\CtApMapFusion.vxe:8001cebc 00000008 W _ZN9mapfusion16StageThreeFilterINS_14IFencesAdapterIN9fencesapi10IFencesApiIN15fencesinterface17FencesLightStructENS4_7ContourENS4_6VertexELj250ELj500ELj5ELj31EjjjEENS_6OCacheELj2097152ENS_22CommonPrioritySelectorEEEE9initFenceEjRK9TimeStamp
E:\zFAS-Jenkins\workspace\zFAS_AIT_Master_AAT\SW\0300_ApplicationLayer\branches\CL3_REL_320_3XX\0350_SWC-SET\CtApMapFusion\02_libs\CtApMapFusion.vxe:8001ee44 00000020 W _ZN9mapfusion16StageThreeFilterINS_14IFencesAdapterIN9fencesapi10IFencesApiIN15fencesinterface17FencesLightStructENS4_7ContourENS4_6VertexELj250ELj500ELj5ELj31EjjjEENS_6OCacheELj2097152ENS_22CommonPrioritySelectorEEEED0Ev
E:\zFAS-Jenkins\workspace\zFAS_AIT_Master_AAT\SW\0300_ApplicationLayer\branches\CL3_REL_320_3XX\0350_SWC-SET\CtApMapFusion\02_libs\CtApMapFusion.vxe:8001b5a0 00000010 W _ZN9mapfusion16StageThreeFilterINS_14IFencesAdapterIN9fencesapi10IFencesApiIN15fencesinterface17FencesLightStructENS4_7ContourENS4_6VertexELj250ELj500ELj5ELj31EjjjEENS_6OCacheELj2097152ENS_22CommonPrioritySelectorEEEED1Ev
E:\zFAS-Jenkins\workspace\zFAS_AIT_Master_AAT\SW\0300_ApplicationLayer\branches\CL3_REL_320_3XX\0350_SWC-SET\CtApMapFusion\02_libs\CtApMapFusion.vxe:80026ab0 0000043c W _ZN9mapfusion16StageThreeFilterINS_14IFencesAdapterIN9fencesapi10IFencesApiIN15fencesinterface17FencesLightStructENS4_7ContourENS4_6VertexELj250ELj500ELj5ELj31EjjjEENS_6OCacheELj2097154ENS_22CommonPrioritySelectorEEEE10endContourEv
E:\zFAS-Jenkins\workspace\zFAS_AIT_Master_AAT\SW\0300_ApplicationLayer\branches\CL3_REL_320_3XX\0350_SWC-SET\CtApMapFusion\02_libs\CtApMapFusion.vxe:8002467c 000000ec W _ZN9mapfusion16StageThreeFilterINS_14IFencesAdapterIN9fencesapi10IFencesApiIN15fencesinterface17FencesLightStructENS4_7ContourENS4_6VertexELj250ELj500ELj5ELj31EjjjEENS_6OCacheELj2097154ENS_22CommonPrioritySelectorEEEE11startBufferEhRKNS_10ResultTypeE
E:\zFAS-Jenkins\workspace\zFAS_AIT_Master_AAT\SW\0300_ApplicationLayer\branches\CL3_REL_320_3XX\0350_SWC-SET\CtApMapFusion\02_libs\CtApMapFusion.vxe:8001d544 00000004 W _ZN9mapfusion16StageThreeFilterINS_14IFencesAdapterIN9fencesapi10IFencesApiIN15fencesinterface17FencesLightStructENS4_7ContourENS4_6VertexELj250ELj500ELj5ELj31EjjjEENS_6OCacheELj2097154ENS_22CommonPrioritySelectorEEEE12setFailureQMEv
E:\zFAS-Jenkins\workspace\zFAS_AIT_Master_AAT\SW\0300_ApplicationLayer\branches\CL3_REL_320_3XX\0350_SWC-SET\CtApMapFusion\02_libs\CtApMapFusion.vxe:8001d4b4 00000090 W _ZN9mapfusion16StageThreeFilterINS_14IFencesAdapterIN9fencesapi10IFencesApiIN15fencesinterface17FencesLightStructENS4_7ContourENS4_6VertexELj250ELj500ELj5ELj31EjjjEENS_6OCacheELj2097154ENS_22CommonPrioritySelectorEEEE12startContourEhh
E:\zFAS-Jenkins\workspace\zFAS_AIT_Master_AAT\SW\0300_ApplicationLayer\branches\CL3_REL_320_3XX\0350_SWC-SET\CtApMapFusion\02_libs\CtApMapFusion.vxe:8001d4b0 00000004 W _ZN9mapfusion16StageThreeFilterINS_14IFencesAdapterIN9fencesapi10IFencesApiIN15fencesinterface17FencesLightStructENS4_7ContourENS4_6VertexELj250ELj500ELj5ELj31EjjjEENS_6OCacheELj2097154ENS_22CommonPrioritySelectorEEEE14setPerformanceERKNS4_20PerformanceQualifierE
E:\zFAS-Jenkins\workspace\zFAS_AIT_Master_AAT\SW\0300_ApplicationLayer\branches\CL3_REL_320_3XX\0350_SWC-SET\CtApMapFusion\02_libs\CtApMapFusion.vxe:80024c30 000000bc W _ZN9mapfusion16StageThreeFilterINS_14IFencesAdapterIN9fencesapi10IFencesApiIN15fencesinterface17FencesLightStructENS4_7ContourENS4_6VertexELj250ELj500ELj5ELj31EjjjEENS_6OCacheELj2097154ENS_22CommonPrioritySelectorEEEE18addProcessingErrorENS_10ResultTypeE
E:\zFAS-Jenkins\workspace\zFAS_AIT_Master_AAT\SW\0300_ApplicationLayer\branches\CL3_REL_320_3XX\0350_SWC-SET\CtApMapFusion\02_libs\CtApMapFusion.vxe:800394e4 0000051c W _ZN9mapfusion16StageThreeFilterINS_14IFencesAdapterIN9fencesapi10IFencesApiIN15fencesinterface17FencesLightStructENS4_7ContourENS4_6VertexELj250ELj500ELj5ELj31EjjjEENS_6OCacheELj2097154ENS_22CommonPrioritySelectorEEEE28checkIfVerticesMustBeDroppedEv
E:\zFAS-Jenkins\workspace\zFAS_AIT_Master_AAT\SW\0300_ApplicationLayer\branches\CL3_REL_320_3XX\0350_SWC-SET\CtApMapFusion\02_libs\CtApMapFusion.vxe:80039a00 000002a0 W _ZN9mapfusion16StageThreeFilterINS_14IFencesAdapterIN9fencesapi10IFencesApiIN15fencesinterface17FencesLightStructENS4_7ContourENS4_6VertexELj250ELj500ELj5ELj31EjjjEENS_6OCacheELj2097154ENS_22CommonPrioritySelectorEEEE3endEv
E:\zFAS-Jenkins\workspace\zFAS_AIT_Master_AAT\SW\0300_ApplicationLayer\branches\CL3_REL_320_3XX\0350_SWC-SET\CtApMapFusion\02_libs\CtApMapFusion.vxe:8001d4a0 00000008 W _ZN9mapfusion16StageThreeFilterINS_14IFencesAdapterIN9fencesapi10IFencesApiIN15fencesinterface17FencesLightStructENS4_7ContourENS4_6VertexELj250ELj500ELj5ELj31EjjjEENS_6OCacheELj2097154ENS_22CommonPrioritySelectorEEEE4initEv
E:\zFAS-Jenkins\workspace\zFAS_AIT_Master_AAT\SW\0300_ApplicationLayer\branches\CL3_REL_320_3XX\0350_SWC-SET\CtApMapFusion\02_libs\CtApMapFusion.vxe:8001f930 00000128 W _ZN9mapfusion16StageThreeFilterINS_14IFencesAdapterIN9fencesapi10IFencesApiIN15fencesinterface17FencesLightStructENS4_7ContourENS4_6VertexELj250ELj500ELj5ELj31EjjjEENS_6OCacheELj2097154ENS_22CommonPrioritySelectorEEEE8startCmdERKNS_4stg317StageThreeCommandERK9TimeStampj
E:\zFAS-Jenkins\workspace\zFAS_AIT_Master_AAT\SW\0300_ApplicationLayer\branches\CL3_REL_320_3XX\0350_SWC-SET\CtApMapFusion\02_libs\CtApMapFusion.vxe:80038efc 000005e8 W _ZN9mapfusion16StageThreeFilterINS_14IFencesAdapterIN9fencesapi10IFencesApiIN15fencesinterface17FencesLightStructENS4_7ContourENS4_6VertexELj250ELj500ELj5ELj31EjjjEENS_6OCacheELj2097154ENS_22CommonPrioritySelectorEEEE9addVertexERKNS_4stg39TmpVertexE
E:\zFAS-Jenkins\workspace\zFAS_AIT_Master_AAT\SW\0300_ApplicationLayer\branches\CL3_REL_320_3XX\0350_SWC-SET\CtApMapFusion\02_libs\CtApMapFusion.vxe:8003850c 000009f0 W _ZN9mapfusion16StageThreeFilterINS_14IFencesAdapterIN9fencesapi10IFencesApiIN15fencesinterface17FencesLightStructENS4_7ContourENS4_6VertexELj250ELj500ELj5ELj31EjjjEENS_6OCacheELj2097154ENS_22CommonPrioritySelectorEEEE9addVertexERKNS_4stg39TmpVertexESG_
E:\zFAS-Jenkins\workspace\zFAS_AIT_Master_AAT\SW\0300_ApplicationLayer\branches\CL3_REL_320_3XX\0350_SWC-SET\CtApMapFusion\02_libs\CtApMapFusion.vxe:8001d4a8 00000008 W _ZN9mapfusion16StageThreeFilterINS_14IFencesAdapterIN9fencesapi10IFencesApiIN15fencesinterface17FencesLightStructENS4_7ContourENS4_6VertexELj250ELj500ELj5ELj31EjjjEENS_6OCacheELj2097154ENS_22CommonPrioritySelectorEEEE9initFenceEjRK9TimeStamp
E:\zFAS-Jenkins\workspace\zFAS_AIT_Master_AAT\SW\0300_ApplicationLayer\branches\CL3_REL_320_3XX\0350_SWC-SET\CtApMapFusion\02_libs\CtApMapFusion.vxe:8001edd4 00000020 W _ZN9mapfusion16StageThreeFilterINS_14IFencesAdapterIN9fencesapi10IFencesApiIN15fencesinterface17FencesLightStructENS4_7ContourENS4_6VertexELj250ELj500ELj5ELj31EjjjEENS_6OCacheELj2097154ENS_22CommonPrioritySelectorEEEED0Ev
E:\zFAS-Jenkins\workspace\zFAS_AIT_Master_AAT\SW\0300_ApplicationLayer\branches\CL3_REL_320_3XX\0350_SWC-SET\CtApMapFusion\02_libs\CtApMapFusion.vxe:8001b580 00000010 W _ZN9mapfusion16StageThreeFilterINS_14IFencesAdapterIN9fencesapi10IFencesApiIN15fencesinterface17FencesLightStructENS4_7ContourENS4_6VertexELj250ELj500ELj5ELj31EjjjEENS_6OCacheELj2097154ENS_22CommonPrioritySelectorEEEED1Ev
E:\zFAS-Jenkins\workspace\zFAS_AIT_Master_AAT\SW\0300_ApplicationLayer\branches\CL3_REL_320_3XX\0350_SWC-SET\CtApMapFusion\02_libs\CtApMapFusion.vxe:8001b9c4 000000cc W _ZN9mapfusion16StageThreeWriterIN9fencesapi10IFencesApiI28_Dt_RECORD_DMLObstacleFences29_Dt_RECORD_DMLObstacleContour28_Dt_RECORD_DMLObstacleVertexLj50ELj100ELj3ELj12EjjjEEE10endContourEv
E:\zFAS-Jenkins\workspace\zFAS_AIT_Master_AAT\SW\0300_ApplicationLayer\branches\CL3_REL_320_3XX\0350_SWC-SET\CtApMapFusion\02_libs\CtApMapFusion.vxe:8001b8f0 00000014 W _ZN9mapfusion16StageThreeWriterIN9fencesapi10IFencesApiI28_Dt_RECORD_DMLObstacleFences29_Dt_RECORD_DMLObstacleContour28_Dt_RECORD_DMLObstacleVertexLj50ELj100ELj3ELj12EjjjEEE11startBufferEhRKNS_10ResultTypeE
E:\zFAS-Jenkins\workspace\zFAS_AIT_Master_AAT\SW\0300_ApplicationLayer\branches\CL3_REL_320_3XX\0350_SWC-SET\CtApMapFusion\02_libs\CtApMapFusion.vxe:8001baac 0000001c W _ZN9mapfusion16StageThreeWriterIN9fencesapi10IFencesApiI28_Dt_RECORD_DMLObstacleFences29_Dt_RECORD_DMLObstacleContour28_Dt_RECORD_DMLObstacleVertexLj50ELj100ELj3ELj12EjjjEEE12setFailureQMEv
E:\zFAS-Jenkins\workspace\zFAS_AIT_Master_AAT\SW\0300_ApplicationLayer\branches\CL3_REL_320_3XX\0350_SWC-SET\CtApMapFusion\02_libs\CtApMapFusion.vxe:8001b904 000000ac W _ZN9mapfusion16StageThreeWriterIN9fencesapi10IFencesApiI28_Dt_RECORD_DMLObstacleFences29_Dt_RECORD_DMLObstacleContour28_Dt_RECORD_DMLObstacleVertexLj50ELj100ELj3ELj12EjjjEEE12startContourEhh
E:\zFAS-Jenkins\workspace\zFAS_AIT_Master_AAT\SW\0300_ApplicationLayer\branches\CL3_REL_320_3XX\0350_SWC-SET\CtApMapFusion\02_libs\CtApMapFusion.vxe:8001b8dc 00000014 W _ZN9mapfusion16StageThreeWriterIN9fencesapi10IFencesApiI28_Dt_RECORD_DMLObstacleFences29_Dt_RECORD_DMLObstacleContour28_Dt_RECORD_DMLObstacleVertexLj50ELj100ELj3ELj12EjjjEEE14setPerformanceERKN15fencesinterface20PerformanceQualifierE
E:\zFAS-Jenkins\workspace\zFAS_AIT_Master_AAT\SW\0300_ApplicationLayer\branches\CL3_REL_320_3XX\0350_SWC-SET\CtApMapFusion\02_libs\CtApMapFusion.vxe:8002415c 000000a8 W _ZN9mapfusion16StageThreeWriterIN9fencesapi10IFencesApiI28_Dt_RECORD_DMLObstacleFences29_Dt_RECORD_DMLObstacleContour28_Dt_RECORD_DMLObstacleVertexLj50ELj100ELj3ELj12EjjjEEE18addProcessingErrorENS_10ResultTypeE
E:\zFAS-Jenkins\workspace\zFAS_AIT_Master_AAT\SW\0300_ApplicationLayer\branches\CL3_REL_320_3XX\0350_SWC-SET\CtApMapFusion\02_libs\CtApMapFusion.vxe:8001ba90 0000001c W _ZN9mapfusion16StageThreeWriterIN9fencesapi10IFencesApiI28_Dt_RECORD_DMLObstacleFences29_Dt_RECORD_DMLObstacleContour28_Dt_RECORD_DMLObstacleVertexLj50ELj100ELj3ELj12EjjjEEE3endEv
E:\zFAS-Jenkins\workspace\zFAS_AIT_Master_AAT\SW\0300_ApplicationLayer\branches\CL3_REL_320_3XX\0350_SWC-SET\CtApMapFusion\02_libs\CtApMapFusion.vxe:8001b87c 00000008 W _ZN9mapfusion16StageThreeWriterIN9fencesapi10IFencesApiI28_Dt_RECORD_DMLObstacleFences29_Dt_RECORD_DMLObstacleContour28_Dt_RECORD_DMLObstacleVertexLj50ELj100ELj3ELj12EjjjEEE4initEv
E:\zFAS-Jenkins\workspace\zFAS_AIT_Master_AAT\SW\0300_ApplicationLayer\branches\CL3_REL_320_3XX\0350_SWC-SET\CtApMapFusion\02_libs\CtApMapFusion.vxe:80022a4c 00000098 W _ZN9mapfusion16StageThreeWriterIN9fencesapi10IFencesApiI28_Dt_RECORD_DMLObstacleFences29_Dt_RECORD_DMLObstacleContour28_Dt_RECORD_DMLObstacleVertexLj50ELj100ELj3ELj12EjjjEEE8startCmdERKNS_4stg317StageThreeCommandERK9TimeStampj
E:\zFAS-Jenkins\workspace\zFAS_AIT_Master_AAT\SW\0300_ApplicationLayer\branches\CL3_REL_320_3XX\0350_SWC-SET\CtApMapFusion\02_libs\CtApMapFusion.vxe:80024cec 000002e4 W _ZN9mapfusion16StageThreeWriterIN9fencesapi10IFencesApiI28_Dt_RECORD_DMLObstacleFences29_Dt_RECORD_DMLObstacleContour28_Dt_RECORD_DMLObstacleVertexLj50ELj100ELj3ELj12EjjjEEE9addVertexERKNS_4stg39TmpVertexE
E:\zFAS-Jenkins\workspace\zFAS_AIT_Master_AAT\SW\0300_ApplicationLayer\branches\CL3_REL_320_3XX\0350_SWC-SET\CtApMapFusion\02_libs\CtApMapFusion.vxe:8001b9b0 00000014 W _ZN9mapfusion16StageThreeWriterIN9fencesapi10IFencesApiI28_Dt_RECORD_DMLObstacleFences29_Dt_RECORD_DMLObstacleContour28_Dt_RECORD_DMLObstacleVertexLj50ELj100ELj3ELj12EjjjEEE9addVertexERKNS_4stg39TmpVertexESB_
E:\zFAS-Jenkins\workspace\zFAS_AIT_Master_AAT\SW\0300_ApplicationLayer\branches\CL3_REL_320_3XX\0350_SWC-SET\CtApMapFusion\02_libs\CtApMapFusion.vxe:8001b884 00000058 W _ZN9mapfusion16StageThreeWriterIN9fencesapi10IFencesApiI28_Dt_RECORD_DMLObstacleFences29_Dt_RECORD_DMLObstacleContour28_Dt_RECORD_DMLObstacleVertexLj50ELj100ELj3ELj12EjjjEEE9initFenceEjRK9TimeStamp
E:\zFAS-Jenkins\workspace\zFAS_AIT_Master_AAT\SW\0300_ApplicationLayer\branches\CL3_REL_320_3XX\0350_SWC-SET\CtApMapFusion\02_libs\CtApMapFusion.vxe:8001edb4 00000020 W _ZN9mapfusion16StageThreeWriterIN9fencesapi10IFencesApiI28_Dt_RECORD_DMLObstacleFences29_Dt_RECORD_DMLObstacleContour28_Dt_RECORD_DMLObstacleVertexLj50ELj100ELj3ELj12EjjjEEED0Ev
E:\zFAS-Jenkins\workspace\zFAS_AIT_Master_AAT\SW\0300_ApplicationLayer\branches\CL3_REL_320_3XX\0350_SWC-SET\CtApMapFusion\02_libs\CtApMapFusion.vxe:8001b570 00000010 W _ZN9mapfusion16StageThreeWriterIN9fencesapi10IFencesApiI28_Dt_RECORD_DMLObstacleFences29_Dt_RECORD_DMLObstacleContour28_Dt_RECORD_DMLObstacleVertexLj50ELj100ELj3ELj12EjjjEEED1Ev
E:\zFAS-Jenkins\workspace\zFAS_AIT_Master_AAT\SW\0300_ApplicationLayer\branches\CL3_REL_320_3XX\0350_SWC-SET\CtApMapFusion\02_libs\CtApMapFusion.vxe:8001c464 000000d0 W _ZN9mapfusion16StageThreeWriterIN9fencesapi10IFencesApiI29_Dt_RECORD_ParkObstacleFences30_Dt_RECORD_ParkObstacleContour29_Dt_RECORD_ParkObstacleVertexLj250ELj500ELj3ELj12EjjjEEE10endContourEv
E:\zFAS-Jenkins\workspace\zFAS_AIT_Master_AAT\SW\0300_ApplicationLayer\branches\CL3_REL_320_3XX\0350_SWC-SET\CtApMapFusion\02_libs\CtApMapFusion.vxe:8001c388 00000014 W _ZN9mapfusion16StageThreeWriterIN9fencesapi10IFencesApiI29_Dt_RECORD_ParkObstacleFences30_Dt_RECORD_ParkObstacleContour29_Dt_RECORD_ParkObstacleVertexLj250ELj500ELj3ELj12EjjjEEE11startBufferEhRKNS_10ResultTypeE
E:\zFAS-Jenkins\workspace\zFAS_AIT_Master_AAT\SW\0300_ApplicationLayer\branches\CL3_REL_320_3XX\0350_SWC-SET\CtApMapFusion\02_libs\CtApMapFusion.vxe:8001c5c0 00000020 W _ZN9mapfusion16StageThreeWriterIN9fencesapi10IFencesApiI29_Dt_RECORD_ParkObstacleFences30_Dt_RECORD_ParkObstacleContour29_Dt_RECORD_ParkObstacleVertexLj250ELj500ELj3ELj12EjjjEEE12setFailureQMEv
E:\zFAS-Jenkins\workspace\zFAS_AIT_Master_AAT\SW\0300_ApplicationLayer\branches\CL3_REL_320_3XX\0350_SWC-SET\CtApMapFusion\02_libs\CtApMapFusion.vxe:8001c39c 000000b4 W _ZN9mapfusion16StageThreeWriterIN9fencesapi10IFencesApiI29_Dt_RECORD_ParkObstacleFences30_Dt_RECORD_ParkObstacleContour29_Dt_RECORD_ParkObstacleVertexLj250ELj500ELj3ELj12EjjjEEE12startContourEhh
E:\zFAS-Jenkins\workspace\zFAS_AIT_Master_AAT\SW\0300_ApplicationLayer\branches\CL3_REL_320_3XX\0350_SWC-SET\CtApMapFusion\02_libs\CtApMapFusion.vxe:8001c370 00000018 W _ZN9mapfusion16StageThreeWriterIN9fencesapi10IFencesApiI29_Dt_RECORD_ParkObstacleFences30_Dt_RECORD_ParkObstacleContour29_Dt_RECORD_ParkObstacleVertexLj250ELj500ELj3ELj12EjjjEEE14setPerformanceERKN15fencesinterface20PerformanceQualifierE
E:\zFAS-Jenkins\workspace\zFAS_AIT_Master_AAT\SW\0300_ApplicationLayer\branches\CL3_REL_320_3XX\0350_SWC-SET\CtApMapFusion\02_libs\CtApMapFusion.vxe:80024204 000000a8 W _ZN9mapfusion16StageThreeWriterIN9fencesapi10IFencesApiI29_Dt_RECORD_ParkObstacleFences30_Dt_RECORD_ParkObstacleContour29_Dt_RECORD_ParkObstacleVertexLj250ELj500ELj3ELj12EjjjEEE18addProcessingErrorENS_10ResultTypeE
E:\zFAS-Jenkins\workspace\zFAS_AIT_Master_AAT\SW\0300_ApplicationLayer\branches\CL3_REL_320_3XX\0350_SWC-SET\CtApMapFusion\02_libs\CtApMapFusion.vxe:8001c534 0000008c W _ZN9mapfusion16StageThreeWriterIN9fencesapi10IFencesApiI29_Dt_RECORD_ParkObstacleFences30_Dt_RECORD_ParkObstacleContour29_Dt_RECORD_ParkObstacleVertexLj250ELj500ELj3ELj12EjjjEEE3endEv
E:\zFAS-Jenkins\workspace\zFAS_AIT_Master_AAT\SW\0300_ApplicationLayer\branches\CL3_REL_320_3XX\0350_SWC-SET\CtApMapFusion\02_libs\CtApMapFusion.vxe:8001c2ec 00000008 W _ZN9mapfusion16StageThreeWriterIN9fencesapi10IFencesApiI29_Dt_RECORD_ParkObstacleFences30_Dt_RECORD_ParkObstacleContour29_Dt_RECORD_ParkObstacleVertexLj250ELj500ELj3ELj12EjjjEEE4initEv
E:\zFAS-Jenkins\workspace\zFAS_AIT_Master_AAT\SW\0300_ApplicationLayer\branches\CL3_REL_320_3XX\0350_SWC-SET\CtApMapFusion\02_libs\CtApMapFusion.vxe:80022c14 000000a4 W _ZN9mapfusion16StageThreeWriterIN9fencesapi10IFencesApiI29_Dt_RECORD_ParkObstacleFences30_Dt_RECORD_ParkObstacleContour29_Dt_RECORD_ParkObstacleVertexLj250ELj500ELj3ELj12EjjjEEE8startCmdERKNS_4stg317StageThreeCommandERK9TimeStampj
E:\zFAS-Jenkins\workspace\zFAS_AIT_Master_AAT\SW\0300_ApplicationLayer\branches\CL3_REL_320_3XX\0350_SWC-SET\CtApMapFusion\02_libs\CtApMapFusion.vxe:80025698 000003ac W _ZN9mapfusion16StageThreeWriterIN9fencesapi10IFencesApiI29_Dt_RECORD_ParkObstacleFences30_Dt_RECORD_ParkObstacleContour29_Dt_RECORD_ParkObstacleVertexLj250ELj500ELj3ELj12EjjjEEE9addVertexERKNS_4stg39TmpVertexE
E:\zFAS-Jenkins\workspace\zFAS_AIT_Master_AAT\SW\0300_ApplicationLayer\branches\CL3_REL_320_3XX\0350_SWC-SET\CtApMapFusion\02_libs\CtApMapFusion.vxe:8001c450 00000014 W _ZN9mapfusion16StageThreeWriterIN9fencesapi10IFencesApiI29_Dt_RECORD_ParkObstacleFences30_Dt_RECORD_ParkObstacleContour29_Dt_RECORD_ParkObstacleVertexLj250ELj500ELj3ELj12EjjjEEE9addVertexERKNS_4stg39TmpVertexESB_
E:\zFAS-Jenkins\workspace\zFAS_AIT_Master_AAT\SW\0300_ApplicationLayer\branches\CL3_REL_320_3XX\0350_SWC-SET\CtApMapFusion\02_libs\CtApMapFusion.vxe:8001c2f4 0000007c W _ZN9mapfusion16StageThreeWriterIN9fencesapi10IFencesApiI29_Dt_RECORD_ParkObstacleFences30_Dt_RECORD_ParkObstacleContour29_Dt_RECORD_ParkObstacleVertexLj250ELj500ELj3ELj12EjjjEEE9initFenceEjRK9TimeStamp
E:\zFAS-Jenkins\workspace\zFAS_AIT_Master_AAT\SW\0300_ApplicationLayer\branches\CL3_REL_320_3XX\0350_SWC-SET\CtApMapFusion\02_libs\CtApMapFusion.vxe:8001ecd4 00000020 W _ZN9mapfusion16StageThreeWriterIN9fencesapi10IFencesApiI29_Dt_RECORD_ParkObstacleFences30_Dt_RECORD_ParkObstacleContour29_Dt_RECORD_ParkObstacleVertexLj250ELj500ELj3ELj12EjjjEEED0Ev
E:\zFAS-Jenkins\workspace\zFAS_AIT_Master_AAT\SW\0300_ApplicationLayer\branches\CL3_REL_320_3XX\0350_SWC-SET\CtApMapFusion\02_libs\CtApMapFusion.vxe:8001b530 00000010 W _ZN9mapfusion16StageThreeWriterIN9fencesapi10IFencesApiI29_Dt_RECORD_ParkObstacleFences30_Dt_RECORD_ParkObstacleContour29_Dt_RECORD_ParkObstacleVertexLj250ELj500ELj3ELj12EjjjEEED1Ev
E:\zFAS-Jenkins\workspace\zFAS_AIT_Master_AAT\SW\0300_ApplicationLayer\branches\CL3_REL_320_3XX\0350_SWC-SET\CtApMapFusion\02_libs\CtApMapFusion.vxe:8001bed0 000000d0 W _ZN9mapfusion16StageThreeWriterIN9fencesapi10IFencesApiI33_Dt_RECORD_TVRenderObstacleFences34_Dt_RECORD_TVRenderObstacleContour33_Dt_RECORD_TVRenderObstacleVertexLj250ELj500ELj3ELj12EjjjEEE10endContourEv
E:\zFAS-Jenkins\workspace\zFAS_AIT_Master_AAT\SW\0300_ApplicationLayer\branches\CL3_REL_320_3XX\0350_SWC-SET\CtApMapFusion\02_libs\CtApMapFusion.vxe:8001bdf4 00000014 W _ZN9mapfusion16StageThreeWriterIN9fencesapi10IFencesApiI33_Dt_RECORD_TVRenderObstacleFences34_Dt_RECORD_TVRenderObstacleContour33_Dt_RECORD_TVRenderObstacleVertexLj250ELj500ELj3ELj12EjjjEEE11startBufferEhRKNS_10ResultTypeE
E:\zFAS-Jenkins\workspace\zFAS_AIT_Master_AAT\SW\0300_ApplicationLayer\branches\CL3_REL_320_3XX\0350_SWC-SET\CtApMapFusion\02_libs\CtApMapFusion.vxe:8001c02c 00000020 W _ZN9mapfusion16StageThreeWriterIN9fencesapi10IFencesApiI33_Dt_RECORD_TVRenderObstacleFences34_Dt_RECORD_TVRenderObstacleContour33_Dt_RECORD_TVRenderObstacleVertexLj250ELj500ELj3ELj12EjjjEEE12setFailureQMEv
E:\zFAS-Jenkins\workspace\zFAS_AIT_Master_AAT\SW\0300_ApplicationLayer\branches\CL3_REL_320_3XX\0350_SWC-SET\CtApMapFusion\02_libs\CtApMapFusion.vxe:8001be08 000000b4 W _ZN9mapfusion16StageThreeWriterIN9fencesapi10IFencesApiI33_Dt_RECORD_TVRenderObstacleFences34_Dt_RECORD_TVRenderObstacleContour33_Dt_RECORD_TVRenderObstacleVertexLj250ELj500ELj3ELj12EjjjEEE12startContourEhh
E:\zFAS-Jenkins\workspace\zFAS_AIT_Master_AAT\SW\0300_ApplicationLayer\branches\CL3_REL_320_3XX\0350_SWC-SET\CtApMapFusion\02_libs\CtApMapFusion.vxe:8001bddc 00000018 W _ZN9mapfusion16StageThreeWriterIN9fencesapi10IFencesApiI33_Dt_RECORD_TVRenderObstacleFences34_Dt_RECORD_TVRenderObstacleContour33_Dt_RECORD_TVRenderObstacleVertexLj250ELj500ELj3ELj12EjjjEEE14setPerformanceERKN15fencesinterface20PerformanceQualifierE
E:\zFAS-Jenkins\workspace\zFAS_AIT_Master_AAT\SW\0300_ApplicationLayer\branches\CL3_REL_320_3XX\0350_SWC-SET\CtApMapFusion\02_libs\CtApMapFusion.vxe:800242ac 000000a8 W _ZN9mapfusion16StageThreeWriterIN9fencesapi10IFencesApiI33_Dt_RECORD_TVRenderObstacleFences34_Dt_RECORD_TVRenderObstacleContour33_Dt_RECORD_TVRenderObstacleVertexLj250ELj500ELj3ELj12EjjjEEE18addProcessingErrorENS_10ResultTypeE
E:\zFAS-Jenkins\workspace\zFAS_AIT_Master_AAT\SW\0300_ApplicationLayer\branches\CL3_REL_320_3XX\0350_SWC-SET\CtApMapFusion\02_libs\CtApMapFusion.vxe:8001bfa0 0000008c W _ZN9mapfusion16StageThreeWriterIN9fencesapi10IFencesApiI33_Dt_RECORD_TVRenderObstacleFences34_Dt_RECORD_TVRenderObstacleContour33_Dt_RECORD_TVRenderObstacleVertexLj250ELj500ELj3ELj12EjjjEEE3endEv
E:\zFAS-Jenkins\workspace\zFAS_AIT_Master_AAT\SW\0300_ApplicationLayer\branches\CL3_REL_320_3XX\0350_SWC-SET\CtApMapFusion\02_libs\CtApMapFusion.vxe:8001bd68 00000008 W _ZN9mapfusion16StageThreeWriterIN9fencesapi10IFencesApiI33_Dt_RECORD_TVRenderObstacleFences34_Dt_RECORD_TVRenderObstacleContour33_Dt_RECORD_TVRenderObstacleVertexLj250ELj500ELj3ELj12EjjjEEE4initEv
E:\zFAS-Jenkins\workspace\zFAS_AIT_Master_AAT\SW\0300_ApplicationLayer\branches\CL3_REL_320_3XX\0350_SWC-SET\CtApMapFusion\02_libs\CtApMapFusion.vxe:80022cb8 000000a4 W _ZN9mapfusion16StageThreeWriterIN9fencesapi10IFencesApiI33_Dt_RECORD_TVRenderObstacleFences34_Dt_RECORD_TVRenderObstacleContour33_Dt_RECORD_TVRenderObstacleVertexLj250ELj500ELj3ELj12EjjjEEE8startCmdERKNS_4stg317StageThreeCommandERK9TimeStampj
E:\zFAS-Jenkins\workspace\zFAS_AIT_Master_AAT\SW\0300_ApplicationLayer\branches\CL3_REL_320_3XX\0350_SWC-SET\CtApMapFusion\02_libs\CtApMapFusion.vxe:80025a44 000003b8 W _ZN9mapfusion16StageThreeWriterIN9fencesapi10IFencesApiI33_Dt_RECORD_TVRenderObstacleFences34_Dt_RECORD_TVRenderObstacleContour33_Dt_RECORD_TVRenderObstacleVertexLj250ELj500ELj3ELj12EjjjEEE9addVertexERKNS_4stg39TmpVertexE
E:\zFAS-Jenkins\workspace\zFAS_AIT_Master_AAT\SW\0300_ApplicationLayer\branches\CL3_REL_320_3XX\0350_SWC-SET\CtApMapFusion\02_libs\CtApMapFusion.vxe:8001bebc 00000014 W _ZN9mapfusion16StageThreeWriterIN9fencesapi10IFencesApiI33_Dt_RECORD_TVRenderObstacleFences34_Dt_RECORD_TVRenderObstacleContour33_Dt_RECORD_TVRenderObstacleVertexLj250ELj500ELj3ELj12EjjjEEE9addVertexERKNS_4stg39TmpVertexESB_
E:\zFAS-Jenkins\workspace\zFAS_AIT_Master_AAT\SW\0300_ApplicationLayer\branches\CL3_REL_320_3XX\0350_SWC-SET\CtApMapFusion\02_libs\CtApMapFusion.vxe:8001bd70 0000006c W _ZN9mapfusion16StageThreeWriterIN9fencesapi10IFencesApiI33_Dt_RECORD_TVRenderObstacleFences34_Dt_RECORD_TVRenderObstacleContour33_Dt_RECORD_TVRenderObstacleVertexLj250ELj500ELj3ELj12EjjjEEE9initFenceEjRK9TimeStamp
E:\zFAS-Jenkins\workspace\zFAS_AIT_Master_AAT\SW\0300_ApplicationLayer\branches\CL3_REL_320_3XX\0350_SWC-SET\CtApMapFusion\02_libs\CtApMapFusion.vxe:8001ed44 00000020 W _ZN9mapfusion16StageThreeWriterIN9fencesapi10IFencesApiI33_Dt_RECORD_TVRenderObstacleFences34_Dt_RECORD_TVRenderObstacleContour33_Dt_RECORD_TVRenderObstacleVertexLj250ELj500ELj3ELj12EjjjEEED0Ev
E:\zFAS-Jenkins\workspace\zFAS_AIT_Master_AAT\SW\0300_ApplicationLayer\branches\CL3_REL_320_3XX\0350_SWC-SET\CtApMapFusion\02_libs\CtApMapFusion.vxe:8001b550 00000010 W _ZN9mapfusion16StageThreeWriterIN9fencesapi10IFencesApiI33_Dt_RECORD_TVRenderObstacleFences34_Dt_RECORD_TVRenderObstacleContour33_Dt_RECORD_TVRenderObstacleVertexLj250ELj500ELj3ELj12EjjjEEED1Ev
E:\zFAS-Jenkins\workspace\zFAS_AIT_Master_AAT\SW\0300_ApplicationLayer\branches\CL3_REL_320_3XX\0350_SWC-SET\CtApMapFusion\02_libs\CtApMapFusion.vxe:8001ccf4 000000f4 W _ZN9mapfusion16StageThreeWriterINS_14IFencesAdapterIN9fencesapi10IFencesApiIN15fencesinterface17FencesLightStructENS4_7ContourENS4_6VertexELj250ELj500ELj5ELj31EjjjEENS_6OCacheELj2097152ENS_22CommonPrioritySelectorEEEE10endContourEv
E:\zFAS-Jenkins\workspace\zFAS_AIT_Master_AAT\SW\0300_ApplicationLayer\branches\CL3_REL_320_3XX\0350_SWC-SET\CtApMapFusion\02_libs\CtApMapFusion.vxe:8001cc10 00000014 W _ZN9mapfusion16StageThreeWriterINS_14IFencesAdapterIN9fencesapi10IFencesApiIN15fencesinterface17FencesLightStructENS4_7ContourENS4_6VertexELj250ELj500ELj5ELj31EjjjEENS_6OCacheELj2097152ENS_22CommonPrioritySelectorEEEE11startBufferEhRKNS_10ResultTypeE
E:\zFAS-Jenkins\workspace\zFAS_AIT_Master_AAT\SW\0300_ApplicationLayer\branches\CL3_REL_320_3XX\0350_SWC-SET\CtApMapFusion\02_libs\CtApMapFusion.vxe:8001ce94 00000020 W _ZN9mapfusion16StageThreeWriterINS_14IFencesAdapterIN9fencesapi10IFencesApiIN15fencesinterface17FencesLightStructENS4_7ContourENS4_6VertexELj250ELj500ELj5ELj31EjjjEENS_6OCacheELj2097152ENS_22CommonPrioritySelectorEEEE12setFailureQMEv
E:\zFAS-Jenkins\workspace\zFAS_AIT_Master_AAT\SW\0300_ApplicationLayer\branches\CL3_REL_320_3XX\0350_SWC-SET\CtApMapFusion\02_libs\CtApMapFusion.vxe:8001cc24 000000bc W _ZN9mapfusion16StageThreeWriterINS_14IFencesAdapterIN9fencesapi10IFencesApiIN15fencesinterface17FencesLightStructENS4_7ContourENS4_6VertexELj250ELj500ELj5ELj31EjjjEENS_6OCacheELj2097152ENS_22CommonPrioritySelectorEEEE12startContourEhh
E:\zFAS-Jenkins\workspace\zFAS_AIT_Master_AAT\SW\0300_ApplicationLayer\branches\CL3_REL_320_3XX\0350_SWC-SET\CtApMapFusion\02_libs\CtApMapFusion.vxe:8001cbf8 00000018 W _ZN9mapfusion16StageThreeWriterINS_14IFencesAdapterIN9fencesapi10IFencesApiIN15fencesinterface17FencesLightStructENS4_7ContourENS4_6VertexELj250ELj500ELj5ELj31EjjjEENS_6OCacheELj2097152ENS_22CommonPrioritySelectorEEEE14setPerformanceERKNS4_20PerformanceQualifierE
E:\zFAS-Jenkins\workspace\zFAS_AIT_Master_AAT\SW\0300_ApplicationLayer\branches\CL3_REL_320_3XX\0350_SWC-SET\CtApMapFusion\02_libs\CtApMapFusion.vxe:80024354 000000a8 W _ZN9mapfusion16StageThreeWriterINS_14IFencesAdapterIN9fencesapi10IFencesApiIN15fencesinterface17FencesLightStructENS4_7ContourENS4_6VertexELj250ELj500ELj5ELj31EjjjEENS_6OCacheELj2097152ENS_22CommonPrioritySelectorEEEE18addProcessingErrorENS_10ResultTypeE
E:\zFAS-Jenkins\workspace\zFAS_AIT_Master_AAT\SW\0300_ApplicationLayer\branches\CL3_REL_320_3XX\0350_SWC-SET\CtApMapFusion\02_libs\CtApMapFusion.vxe:8001cde8 000000ac W _ZN9mapfusion16StageThreeWriterINS_14IFencesAdapterIN9fencesapi10IFencesApiIN15fencesinterface17FencesLightStructENS4_7ContourENS4_6VertexELj250ELj500ELj5ELj31EjjjEENS_6OCacheELj2097152ENS_22CommonPrioritySelectorEEEE3endEv
E:\zFAS-Jenkins\workspace\zFAS_AIT_Master_AAT\SW\0300_ApplicationLayer\branches\CL3_REL_320_3XX\0350_SWC-SET\CtApMapFusion\02_libs\CtApMapFusion.vxe:8001cb68 00000008 W _ZN9mapfusion16StageThreeWriterINS_14IFencesAdapterIN9fencesapi10IFencesApiIN15fencesinterface17FencesLightStructENS4_7ContourENS4_6VertexELj250ELj500ELj5ELj31EjjjEENS_6OCacheELj2097152ENS_22CommonPrioritySelectorEEEE4initEv
E:\zFAS-Jenkins\workspace\zFAS_AIT_Master_AAT\SW\0300_ApplicationLayer\branches\CL3_REL_320_3XX\0350_SWC-SET\CtApMapFusion\02_libs\CtApMapFusion.vxe:80022b7c 00000098 W _ZN9mapfusion16StageThreeWriterINS_14IFencesAdapterIN9fencesapi10IFencesApiIN15fencesinterface17FencesLightStructENS4_7ContourENS4_6VertexELj250ELj500ELj5ELj31EjjjEENS_6OCacheELj2097152ENS_22CommonPrioritySelectorEEEE8startCmdERKNS_4stg317StageThreeCommandERK9TimeStampj
E:\zFAS-Jenkins\workspace\zFAS_AIT_Master_AAT\SW\0300_ApplicationLayer\branches\CL3_REL_320_3XX\0350_SWC-SET\CtApMapFusion\02_libs\CtApMapFusion.vxe:80024fd0 00000364 W _ZN9mapfusion16StageThreeWriterINS_14IFencesAdapterIN9fencesapi10IFencesApiIN15fencesinterface17FencesLightStructENS4_7ContourENS4_6VertexELj250ELj500ELj5ELj31EjjjEENS_6OCacheELj2097152ENS_22CommonPrioritySelectorEEEE9addVertexERKNS_4stg39TmpVertexE
E:\zFAS-Jenkins\workspace\zFAS_AIT_Master_AAT\SW\0300_ApplicationLayer\branches\CL3_REL_320_3XX\0350_SWC-SET\CtApMapFusion\02_libs\CtApMapFusion.vxe:8001cce0 00000014 W _ZN9mapfusion16StageThreeWriterINS_14IFencesAdapterIN9fencesapi10IFencesApiIN15fencesinterface17FencesLightStructENS4_7ContourENS4_6VertexELj250ELj500ELj5ELj31EjjjEENS_6OCacheELj2097152ENS_22CommonPrioritySelectorEEEE9addVertexERKNS_4stg39TmpVertexESG_
E:\zFAS-Jenkins\workspace\zFAS_AIT_Master_AAT\SW\0300_ApplicationLayer\branches\CL3_REL_320_3XX\0350_SWC-SET\CtApMapFusion\02_libs\CtApMapFusion.vxe:8001cb70 00000088 W _ZN9mapfusion16StageThreeWriterINS_14IFencesAdapterIN9fencesapi10IFencesApiIN15fencesinterface17FencesLightStructENS4_7ContourENS4_6VertexELj250ELj500ELj5ELj31EjjjEENS_6OCacheELj2097152ENS_22CommonPrioritySelectorEEEE9initFenceEjRK9TimeStamp
E:\zFAS-Jenkins\workspace\zFAS_AIT_Master_AAT\SW\0300_ApplicationLayer\branches\CL3_REL_320_3XX\0350_SWC-SET\CtApMapFusion\02_libs\CtApMapFusion.vxe:8001ee94 00000020 W _ZN9mapfusion16StageThreeWriterINS_14IFencesAdapterIN9fencesapi10IFencesApiIN15fencesinterface17FencesLightStructENS4_7ContourENS4_6VertexELj250ELj500ELj5ELj31EjjjEENS_6OCacheELj2097152ENS_22CommonPrioritySelectorEEEED0Ev
E:\zFAS-Jenkins\workspace\zFAS_AIT_Master_AAT\SW\0300_ApplicationLayer\branches\CL3_REL_320_3XX\0350_SWC-SET\CtApMapFusion\02_libs\CtApMapFusion.vxe:8001b5b0 00000010 W _ZN9mapfusion16StageThreeWriterINS_14IFencesAdapterIN9fencesapi10IFencesApiIN15fencesinterface17FencesLightStructENS4_7ContourENS4_6VertexELj250ELj500ELj5ELj31EjjjEENS_6OCacheELj2097152ENS_22CommonPrioritySelectorEEEED1Ev
E:\zFAS-Jenkins\workspace\zFAS_AIT_Master_AAT\SW\0300_ApplicationLayer\branches\CL3_REL_320_3XX\0350_SWC-SET\CtApMapFusion\02_libs\CtApMapFusion.vxe:8001d2e0 000000f4 W _ZN9mapfusion16StageThreeWriterINS_14IFencesAdapterIN9fencesapi10IFencesApiIN15fencesinterface17FencesLightStructENS4_7ContourENS4_6VertexELj250ELj500ELj5ELj31EjjjEENS_6OCacheELj2097154ENS_22CommonPrioritySelectorEEEE10endContourEv
E:\zFAS-Jenkins\workspace\zFAS_AIT_Master_AAT\SW\0300_ApplicationLayer\branches\CL3_REL_320_3XX\0350_SWC-SET\CtApMapFusion\02_libs\CtApMapFusion.vxe:8001d1fc 00000014 W _ZN9mapfusion16StageThreeWriterINS_14IFencesAdapterIN9fencesapi10IFencesApiIN15fencesinterface17FencesLightStructENS4_7ContourENS4_6VertexELj250ELj500ELj5ELj31EjjjEENS_6OCacheELj2097154ENS_22CommonPrioritySelectorEEEE11startBufferEhRKNS_10ResultTypeE
E:\zFAS-Jenkins\workspace\zFAS_AIT_Master_AAT\SW\0300_ApplicationLayer\branches\CL3_REL_320_3XX\0350_SWC-SET\CtApMapFusion\02_libs\CtApMapFusion.vxe:8001d480 00000020 W _ZN9mapfusion16StageThreeWriterINS_14IFencesAdapterIN9fencesapi10IFencesApiIN15fencesinterface17FencesLightStructENS4_7ContourENS4_6VertexELj250ELj500ELj5ELj31EjjjEENS_6OCacheELj2097154ENS_22CommonPrioritySelectorEEEE12setFailureQMEv
E:\zFAS-Jenkins\workspace\zFAS_AIT_Master_AAT\SW\0300_ApplicationLayer\branches\CL3_REL_320_3XX\0350_SWC-SET\CtApMapFusion\02_libs\CtApMapFusion.vxe:8001d210 000000bc W _ZN9mapfusion16StageThreeWriterINS_14IFencesAdapterIN9fencesapi10IFencesApiIN15fencesinterface17FencesLightStructENS4_7ContourENS4_6VertexELj250ELj500ELj5ELj31EjjjEENS_6OCacheELj2097154ENS_22CommonPrioritySelectorEEEE12startContourEhh
E:\zFAS-Jenkins\workspace\zFAS_AIT_Master_AAT\SW\0300_ApplicationLayer\branches\CL3_REL_320_3XX\0350_SWC-SET\CtApMapFusion\02_libs\CtApMapFusion.vxe:8001d1e4 00000018 W _ZN9mapfusion16StageThreeWriterINS_14IFencesAdapterIN9fencesapi10IFencesApiIN15fencesinterface17FencesLightStructENS4_7ContourENS4_6VertexELj250ELj500ELj5ELj31EjjjEENS_6OCacheELj2097154ENS_22CommonPrioritySelectorEEEE14setPerformanceERKNS4_20PerformanceQualifierE
E:\zFAS-Jenkins\workspace\zFAS_AIT_Master_AAT\SW\0300_ApplicationLayer\branches\CL3_REL_320_3XX\0350_SWC-SET\CtApMapFusion\02_libs\CtApMapFusion.vxe:800243fc 000000a8 W _ZN9mapfusion16StageThreeWriterINS_14IFencesAdapterIN9fencesapi10IFencesApiIN15fencesinterface17FencesLightStructENS4_7ContourENS4_6VertexELj250ELj500ELj5ELj31EjjjEENS_6OCacheELj2097154ENS_22CommonPrioritySelectorEEEE18addProcessingErrorENS_10ResultTypeE
E:\zFAS-Jenkins\workspace\zFAS_AIT_Master_AAT\SW\0300_ApplicationLayer\branches\CL3_REL_320_3XX\0350_SWC-SET\CtApMapFusion\02_libs\CtApMapFusion.vxe:8001d3d4 000000ac W _ZN9mapfusion16StageThreeWriterINS_14IFencesAdapterIN9fencesapi10IFencesApiIN15fencesinterface17FencesLightStructENS4_7ContourENS4_6VertexELj250ELj500ELj5ELj31EjjjEENS_6OCacheELj2097154ENS_22CommonPrioritySelectorEEEE3endEv
E:\zFAS-Jenkins\workspace\zFAS_AIT_Master_AAT\SW\0300_ApplicationLayer\branches\CL3_REL_320_3XX\0350_SWC-SET\CtApMapFusion\02_libs\CtApMapFusion.vxe:8001d154 00000008 W _ZN9mapfusion16StageThreeWriterINS_14IFencesAdapterIN9fencesapi10IFencesApiIN15fencesinterface17FencesLightStructENS4_7ContourENS4_6VertexELj250ELj500ELj5ELj31EjjjEENS_6OCacheELj2097154ENS_22CommonPrioritySelectorEEEE4initEv
E:\zFAS-Jenkins\workspace\zFAS_AIT_Master_AAT\SW\0300_ApplicationLayer\branches\CL3_REL_320_3XX\0350_SWC-SET\CtApMapFusion\02_libs\CtApMapFusion.vxe:80022ae4 00000098 W _ZN9mapfusion16StageThreeWriterINS_14IFencesAdapterIN9fencesapi10IFencesApiIN15fencesinterface17FencesLightStructENS4_7ContourENS4_6VertexELj250ELj500ELj5ELj31EjjjEENS_6OCacheELj2097154ENS_22CommonPrioritySelectorEEEE8startCmdERKNS_4stg317StageThreeCommandERK9TimeStampj
E:\zFAS-Jenkins\workspace\zFAS_AIT_Master_AAT\SW\0300_ApplicationLayer\branches\CL3_REL_320_3XX\0350_SWC-SET\CtApMapFusion\02_libs\CtApMapFusion.vxe:80025334 00000364 W _ZN9mapfusion16StageThreeWriterINS_14IFencesAdapterIN9fencesapi10IFencesApiIN15fencesinterface17FencesLightStructENS4_7ContourENS4_6VertexELj250ELj500ELj5ELj31EjjjEENS_6OCacheELj2097154ENS_22CommonPrioritySelectorEEEE9addVertexERKNS_4stg39TmpVertexE
E:\zFAS-Jenkins\workspace\zFAS_AIT_Master_AAT\SW\0300_ApplicationLayer\branches\CL3_REL_320_3XX\0350_SWC-SET\CtApMapFusion\02_libs\CtApMapFusion.vxe:8001d2cc 00000014 W _ZN9mapfusion16StageThreeWriterINS_14IFencesAdapterIN9fencesapi10IFencesApiIN15fencesinterface17FencesLightStructENS4_7ContourENS4_6VertexELj250ELj500ELj5ELj31EjjjEENS_6OCacheELj2097154ENS_22CommonPrioritySelectorEEEE9addVertexERKNS_4stg39TmpVertexESG_
E:\zFAS-Jenkins\workspace\zFAS_AIT_Master_AAT\SW\0300_ApplicationLayer\branches\CL3_REL_320_3XX\0350_SWC-SET\CtApMapFusion\02_libs\CtApMapFusion.vxe:8001d15c 00000088 W _ZN9mapfusion16StageThreeWriterINS_14IFencesAdapterIN9fencesapi10IFencesApiIN15fencesinterface17FencesLightStructENS4_7ContourENS4_6VertexELj250ELj500ELj5ELj31EjjjEENS_6OCacheELj2097154ENS_22CommonPrioritySelectorEEEE9initFenceEjRK9TimeStamp
E:\zFAS-Jenkins\workspace\zFAS_AIT_Master_AAT\SW\0300_ApplicationLayer\branches\CL3_REL_320_3XX\0350_SWC-SET\CtApMapFusion\02_libs\CtApMapFusion.vxe:8001ee24 00000020 W _ZN9mapfusion16StageThreeWriterINS_14IFencesAdapterIN9fencesapi10IFencesApiIN15fencesinterface17FencesLightStructENS4_7ContourENS4_6VertexELj250ELj500ELj5ELj31EjjjEENS_6OCacheELj2097154ENS_22CommonPrioritySelectorEEEED0Ev
E:\zFAS-Jenkins\workspace\zFAS_AIT_Master_AAT\SW\0300_ApplicationLayer\branches\CL3_REL_320_3XX\0350_SWC-SET\CtApMapFusion\02_libs\CtApMapFusion.vxe:8001b590 00000010 W _ZN9mapfusion16StageThreeWriterINS_14IFencesAdapterIN9fencesapi10IFencesApiIN15fencesinterface17FencesLightStructENS4_7ContourENS4_6VertexELj250ELj500ELj5ELj31EjjjEENS_6OCacheELj2097154ENS_22CommonPrioritySelectorEEEED1Ev
E:\zFAS-Jenkins\workspace\zFAS_AIT_Master_AAT\SW\0300_ApplicationLayer\branches\CL3_REL_320_3XX\0350_SWC-SET\CtApMapFusion\02_libs\CtApMapFusion.vxe:8004774c 00000600 W _ZN9mapfusion16StageTwoBlockMapINS_8BlockMapINS_12GlobalConfigILj4ELj6ELj2ELj2EEENS_23BlockMapComponentsTypesEEEE10addFgpCLOEERKNS_4Vec2EfRKNS_15ObstacleFeatureIS3_EEjS9_
E:\zFAS-Jenkins\workspace\zFAS_AIT_Master_AAT\SW\0300_ApplicationLayer\branches\CL3_REL_320_3XX\0350_SWC-SET\CtApMapFusion\02_libs\CtApMapFusion.vxe:80047d4c 000001ec W _ZN9mapfusion16StageTwoBlockMapINS_8BlockMapINS_12GlobalConfigILj4ELj6ELj2ELj2EEENS_23BlockMapComponentsTypesEEEE13addVertexCLOEILNS_12RunDirectionE0EEEvRKNS_9BaseBlockIS3_EEjj
E:\zFAS-Jenkins\workspace\zFAS_AIT_Master_AAT\SW\0300_ApplicationLayer\branches\CL3_REL_320_3XX\0350_SWC-SET\CtApMapFusion\02_libs\CtApMapFusion.vxe:80047f38 000001ec W _ZN9mapfusion16StageTwoBlockMapINS_8BlockMapINS_12GlobalConfigILj4ELj6ELj2ELj2EEENS_23BlockMapComponentsTypesEEEE13addVertexCLOEILNS_12RunDirectionE2EEEvRKNS_9BaseBlockIS3_EEjj
E:\zFAS-Jenkins\workspace\zFAS_AIT_Master_AAT\SW\0300_ApplicationLayer\branches\CL3_REL_320_3XX\0350_SWC-SET\CtApMapFusion\02_libs\CtApMapFusion.vxe:80048124 000001ec W _ZN9mapfusion16StageTwoBlockMapINS_8BlockMapINS_12GlobalConfigILj4ELj6ELj2ELj2EEENS_23BlockMapComponentsTypesEEEE13addVertexCLOEILNS_12RunDirectionE4EEEvRKNS_9BaseBlockIS3_EEjj
E:\zFAS-Jenkins\workspace\zFAS_AIT_Master_AAT\SW\0300_ApplicationLayer\branches\CL3_REL_320_3XX\0350_SWC-SET\CtApMapFusion\02_libs\CtApMapFusion.vxe:80048310 000001ec W _ZN9mapfusion16StageTwoBlockMapINS_8BlockMapINS_12GlobalConfigILj4ELj6ELj2ELj2EEENS_23BlockMapComponentsTypesEEEE13addVertexCLOEILNS_12RunDirectionE6EEEvRKNS_9BaseBlockIS3_EEjj
E:\zFAS-Jenkins\workspace\zFAS_AIT_Master_AAT\SW\0300_ApplicationLayer\branches\CL3_REL_320_3XX\0350_SWC-SET\CtApMapFusion\02_libs\CtApMapFusion.vxe:8003f9ac 00000164 W _ZN9mapfusion16StageTwoBlockMapINS_8BlockMapINS_12GlobalConfigILj4ELj6ELj2ELj2EEENS_23BlockMapComponentsTypesEEEE14extendLineCLOEEii
E:\zFAS-Jenkins\workspace\zFAS_AIT_Master_AAT\SW\0300_ApplicationLayer\branches\CL3_REL_320_3XX\0350_SWC-SET\CtApMapFusion\02_libs\CtApMapFusion.vxe:80048e18 00000d0c W _ZN9mapfusion16StageTwoBlockMapINS_8BlockMapINS_12GlobalConfigILj4ELj6ELj2ELj2EEENS_23BlockMapComponentsTypesEEEE15executePassCLOEEhh
E:\zFAS-Jenkins\workspace\zFAS_AIT_Master_AAT\SW\0300_ApplicationLayer\branches\CL3_REL_320_3XX\0350_SWC-SET\CtApMapFusion\02_libs\CtApMapFusion.vxe:80043c48 00000248 W _ZN9mapfusion16StageTwoBlockMapINS_8BlockMapINS_12GlobalConfigILj4ELj6ELj2ELj2EEENS_23BlockMapComponentsTypesEEEE16flushClusterCLOEEv
E:\zFAS-Jenkins\workspace\zFAS_AIT_Master_AAT\SW\0300_ApplicationLayer\branches\CL3_REL_320_3XX\0350_SWC-SET\CtApMapFusion\02_libs\CtApMapFusion.vxe:80049b24 00000250 W _ZN9mapfusion16StageTwoBlockMapINS_8BlockMapINS_12GlobalConfigILj4ELj6ELj2ELj2EEENS_23BlockMapComponentsTypesEEEE17execObstaclesCLOEERK16Transformation2Dfj
E:\zFAS-Jenkins\workspace\zFAS_AIT_Master_AAT\SW\0300_ApplicationLayer\branches\CL3_REL_320_3XX\0350_SWC-SET\CtApMapFusion\02_libs\CtApMapFusion.vxe:8003b77c 00000734 W _ZN9mapfusion16StageTwoBlockMapINS_8BlockMapINS_12GlobalConfigILj4ELj6ELj2ELj2EEENS_23BlockMapComponentsTypesEEEE17simplifyLinesCLOEEv
E:\zFAS-Jenkins\workspace\zFAS_AIT_Master_AAT\SW\0300_ApplicationLayer\branches\CL3_REL_320_3XX\0350_SWC-SET\CtApMapFusion\02_libs\CtApMapFusion.vxe:800444e4 00000520 W _ZN9mapfusion16StageTwoBlockMapINS_8BlockMapINS_12GlobalConfigILj4ELj6ELj2ELj2EEENS_23BlockMapComponentsTypesEEEE17splitLinesAttCLOEEv
E:\zFAS-Jenkins\workspace\zFAS_AIT_Master_AAT\SW\0300_ApplicationLayer\branches\CL3_REL_320_3XX\0350_SWC-SET\CtApMapFusion\02_libs\CtApMapFusion.vxe:8003acf8 000006e4 W _ZN9mapfusion16StageTwoBlockMapINS_8BlockMapINS_12GlobalConfigILj4ELj6ELj2ELj2EEENS_23BlockMapComponentsTypesEEEE17splitLinesDirCLOEEv
E:\zFAS-Jenkins\workspace\zFAS_AIT_Master_AAT\SW\0300_ApplicationLayer\branches\CL3_REL_320_3XX\0350_SWC-SET\CtApMapFusion\02_libs\CtApMapFusion.vxe:8003a780 00000578 W _ZN9mapfusion16StageTwoBlockMapINS_8BlockMapINS_12GlobalConfigILj4ELj6ELj2ELj2EEENS_23BlockMapComponentsTypesEEEE17splitLinesLenCLOEEv
E:\zFAS-Jenkins\workspace\zFAS_AIT_Master_AAT\SW\0300_ApplicationLayer\branches\CL3_REL_320_3XX\0350_SWC-SET\CtApMapFusion\02_libs\CtApMapFusion.vxe:800484fc 00000200 W _ZN9mapfusion16StageTwoBlockMapINS_8BlockMapINS_12GlobalConfigILj4ELj6ELj2ELj2EEENS_23BlockMapComponentsTypesEEEE19pushClusterCellCLOEEjjj
E:\zFAS-Jenkins\workspace\zFAS_AIT_Master_AAT\SW\0300_ApplicationLayer\branches\CL3_REL_320_3XX\0350_SWC-SET\CtApMapFusion\02_libs\CtApMapFusion.vxe:8003b66c 00000110 W _ZN9mapfusion16StageTwoBlockMapINS_8BlockMapINS_12GlobalConfigILj4ELj6ELj2ELj2EEENS_23BlockMapComponentsTypesEEEE25computeLinePrioritiesCLOEEv
E:\zFAS-Jenkins\workspace\zFAS_AIT_Master_AAT\SW\0300_ApplicationLayer\branches\CL3_REL_320_3XX\0350_SWC-SET\CtApMapFusion\02_libs\CtApMapFusion.vxe:8003b3dc 00000290 W _ZN9mapfusion16StageTwoBlockMapINS_8BlockMapINS_12GlobalConfigILj4ELj6ELj2ELj2EEENS_23BlockMapComponentsTypesEEEE25makeSegmentAttributesCLOEEv
E:\zFAS-Jenkins\workspace\zFAS_AIT_Master_AAT\SW\0300_ApplicationLayer\branches\CL3_REL_320_3XX\0350_SWC-SET\CtApMapFusion\02_libs\CtApMapFusion.vxe:80039ca0 00000ae0 W _ZN9mapfusion16StageTwoBlockMapINS_8BlockMapINS_12GlobalConfigILj4ELj6ELj2ELj2EEENS_23BlockMapComponentsTypesEEEE26removeBacksideVerticesCLOEEv
E:\zFAS-Jenkins\workspace\zFAS_AIT_Master_AAT\SW\0300_ApplicationLayer\branches\CL3_REL_320_3XX\0350_SWC-SET\CtApMapFusion\02_libs\CtApMapFusion.vxe:800486fc 0000071c W _ZN9mapfusion16StageTwoBlockMapINS_8BlockMapINS_12GlobalConfigILj4ELj6ELj2ELj2EEENS_23BlockMapComponentsTypesEEEE27encircleObstacleClusterCLOEEjj
E:\zFAS-Jenkins\workspace\zFAS_AIT_Master_AAT\SW\0300_ApplicationLayer\branches\CL3_REL_320_3XX\0350_SWC-SET\CtApMapFusion\02_libs\CtApMapFusion.vxe:8003f8fc 000000b0 W _ZN9mapfusion16StageTwoBlockMapINS_8BlockMapINS_12GlobalConfigILj4ELj6ELj2ELj2EEENS_23BlockMapComponentsTypesEEEE28generateMapFeaturePointsCLOEEj
E:\zFAS-Jenkins\workspace\zFAS_AIT_Master_AAT\SW\0300_ApplicationLayer\branches\CL3_REL_320_3XX\0350_SWC-SET\CtApMapFusion\02_libs\CtApMapFusion.vxe:8003fe50 00000388 W _ZN9mapfusion16StageTwoBlockMapINS_8BlockMapINS_12GlobalConfigILj4ELj6ELj2ELj2EEENS_23BlockMapComponentsTypesEEEE29clusterSegmentDirectionsCloeCEv
E:\zFAS-Jenkins\workspace\zFAS_AIT_Master_AAT\SW\0300_ApplicationLayer\branches\CL3_REL_320_3XX\0350_SWC-SET\CtApMapFusion\02_libs\CtApMapFusion.vxe:8003fb10 00000340 W _ZN9mapfusion16StageTwoBlockMapINS_8BlockMapINS_12GlobalConfigILj4ELj6ELj2ELj2EEENS_23BlockMapComponentsTypesEEEE32computeSegmentDirectionsCloeNeonEv
E:\zFAS-Jenkins\workspace\zFAS_AIT_Master_AAT\SW\0300_ApplicationLayer\branches\CL3_REL_320_3XX\0350_SWC-SET\CtApMapFusion\02_libs\CtApMapFusion.vxe:800475a0 000001ac W _ZN9mapfusion16StageTwoBlockMapINS_8BlockMapINS_12GlobalConfigILj4ELj6ELj2ELj2EEENS_23BlockMapComponentsTypesEEEE37branchExtractionDataToCarbFindersCLOEEv
E:\zFAS-Jenkins\workspace\zFAS_AIT_Master_AAT\SW\0300_ApplicationLayer\branches\CL3_REL_320_3XX\0350_SWC-SET\CtApMapFusion\02_libs\CtApMapFusion.vxe:80056440 0000233c W _ZN9mapfusion16StageTwoBlockMapINS_8BlockMapINS_12GlobalConfigILj4ELj6ELj2ELj2EEENS_23BlockMapComponentsTypesEEEE4initEPKc
E:\zFAS-Jenkins\workspace\zFAS_AIT_Master_AAT\SW\0300_ApplicationLayer\branches\CL3_REL_320_3XX\0350_SWC-SET\CtApMapFusion\02_libs\CtApMapFusion.vxe:80028098 0000037c W _ZN9mapfusion16StageTwoBlockMapINS_8BlockMapINS_12GlobalConfigILj4ELj6ELj2ELj2EEENS_23BlockMapComponentsTypesEEEEC1ERS5_RNS_14StageTwoFinderINS_15CurbFinderLogicEEERNS8_INS_14CarFinderLogicEEE
E:\zFAS-Jenkins\workspace\zFAS_AIT_Master_AAT\SW\0300_ApplicationLayer\branches\CL3_REL_320_3XX\0350_SWC-SET\CtApMapFusion\02_libs\CtApMapFusion.vxe:8001eae4 00000020 W _ZN9mapfusion16StageTwoBlockMapINS_8BlockMapINS_12GlobalConfigILj4ELj6ELj2ELj2EEENS_23BlockMapComponentsTypesEEEED0Ev
E:\zFAS-Jenkins\workspace\zFAS_AIT_Master_AAT\SW\0300_ApplicationLayer\branches\CL3_REL_320_3XX\0350_SWC-SET\CtApMapFusion\02_libs\CtApMapFusion.vxe:8001b438 00000010 W _ZN9mapfusion16StageTwoBlockMapINS_8BlockMapINS_12GlobalConfigILj4ELj6ELj2ELj2EEENS_23BlockMapComponentsTypesEEEED1Ev
E:\zFAS-Jenkins\workspace\zFAS_AIT_Master_AAT\SW\0300_ApplicationLayer\branches\CL3_REL_320_3XX\0350_SWC-SET\CtApMapFusion\02_libs\CtApMapFusion.vxe:8027d420 00000104 T _ZN9mapfusion17VertexTransformer17transformVerticesERKNS_15TmpVertexBufferERK16Transformation2D
E:\zFAS-Jenkins\workspace\zFAS_AIT_Master_AAT\SW\0300_ApplicationLayer\branches\CL3_REL_320_3XX\0350_SWC-SET\CtApMapFusion\02_libs\CtApMapFusion.vxe:8027d120 00000080 T _ZN9mapfusion17VertexTransformer27batchApplyCalcDistancesNeonERA8000_K12FloatPoint2DRA8000_fj
E:\zFAS-Jenkins\workspace\zFAS_AIT_Master_AAT\SW\0300_ApplicationLayer\branches\CL3_REL_320_3XX\0350_SWC-SET\CtApMapFusion\02_libs\CtApMapFusion.vxe:8027d1a0 00000280 T _ZN9mapfusion17VertexTransformer29batchApplyCalcConfidencesNeonERA8000_KhRA8000_KtS6_S6_RA8000_hS8_S8_j
E:\zFAS-Jenkins\workspace\zFAS_AIT_Master_AAT\SW\0300_ApplicationLayer\branches\CL3_REL_320_3XX\0350_SWC-SET\CtApMapFusion\02_libs\CtApMapFusion.vxe:8027cf58 000000f8 T _ZN9mapfusion17VertexTransformer36batchApplyTransformation2Point2DNeonERA8000_K12FloatPoint2DRA8000_S1_jRK16Transformation2D
E:\zFAS-Jenkins\workspace\zFAS_AIT_Master_AAT\SW\0300_ApplicationLayer\branches\CL3_REL_320_3XX\0350_SWC-SET\CtApMapFusion\02_libs\CtApMapFusion.vxe:8027d050 000000d0 T _ZN9mapfusion17VertexTransformer39batchApplyTransformationUncertaintyNeonERA8000_KfRA8000_hjf
E:\zFAS-Jenkins\workspace\zFAS_AIT_Master_AAT\SW\0300_ApplicationLayer\branches\CL3_REL_320_3XX\0350_SWC-SET\CtApMapFusion\02_libs\CtApMapFusion.vxe:80266ca4 00000060 T _ZN9mapfusion18LSPrioritySelector4initEPKc
E:\zFAS-Jenkins\workspace\zFAS_AIT_Master_AAT\SW\0300_ApplicationLayer\branches\CL3_REL_320_3XX\0350_SWC-SET\CtApMapFusion\02_libs\CtApMapFusion.vxe:80266c58 00000010 T _ZN9mapfusion18LSPrioritySelectorC1Ev
E:\zFAS-Jenkins\workspace\zFAS_AIT_Master_AAT\SW\0300_ApplicationLayer\branches\CL3_REL_320_3XX\0350_SWC-SET\CtApMapFusion\02_libs\CtApMapFusion.vxe:80266c58 00000010 T _ZN9mapfusion18LSPrioritySelectorC2Ev
E:\zFAS-Jenkins\workspace\zFAS_AIT_Master_AAT\SW\0300_ApplicationLayer\branches\CL3_REL_320_3XX\0350_SWC-SET\CtApMapFusion\02_libs\CtApMapFusion.vxe:80271f48 0000040c T _ZN9mapfusion18MovementByVelocity12insertNewOdoERKNS_9MfOdoDataE
E:\zFAS-Jenkins\workspace\zFAS_AIT_Master_AAT\SW\0300_ApplicationLayer\branches\CL3_REL_320_3XX\0350_SWC-SET\CtApMapFusion\02_libs\CtApMapFusion.vxe:802723f4 00000048 T _ZN9mapfusion18MovementByVelocity12resetPrevOdoEv
E:\zFAS-Jenkins\workspace\zFAS_AIT_Master_AAT\SW\0300_ApplicationLayer\branches\CL3_REL_320_3XX\0350_SWC-SET\CtApMapFusion\02_libs\CtApMapFusion.vxe:80271e9c 0000003c T _ZN9mapfusion18MovementByVelocity16finishCalculatorEv
E:\zFAS-Jenkins\workspace\zFAS_AIT_Master_AAT\SW\0300_ApplicationLayer\branches\CL3_REL_320_3XX\0350_SWC-SET\CtApMapFusion\02_libs\CtApMapFusion.vxe:8027243c 00000008 T _ZN9mapfusion18MovementByVelocity18setVelocityEpsilonEf
E:\zFAS-Jenkins\workspace\zFAS_AIT_Master_AAT\SW\0300_ApplicationLayer\branches\CL3_REL_320_3XX\0350_SWC-SET\CtApMapFusion\02_libs\CtApMapFusion.vxe:80271e6c 00000010 T _ZN9mapfusion18MovementByVelocity20updateStartTimestampERK9TimeStamp
E:\zFAS-Jenkins\workspace\zFAS_AIT_Master_AAT\SW\0300_ApplicationLayer\branches\CL3_REL_320_3XX\0350_SWC-SET\CtApMapFusion\02_libs\CtApMapFusion.vxe:80272444 00000008 T _ZN9mapfusion18MovementByVelocity26setMinTimeForStandingStillEj
E:\zFAS-Jenkins\workspace\zFAS_AIT_Master_AAT\SW\0300_ApplicationLayer\branches\CL3_REL_320_3XX\0350_SWC-SET\CtApMapFusion\02_libs\CtApMapFusion.vxe:8027246c 00000010 T _ZN9mapfusion18MovementByVelocity27setDistanceDrivenAfterStartEf
E:\zFAS-Jenkins\workspace\zFAS_AIT_Master_AAT\SW\0300_ApplicationLayer\branches\CL3_REL_320_3XX\0350_SWC-SET\CtApMapFusion\02_libs\CtApMapFusion.vxe:80272464 00000008 T _ZN9mapfusion18MovementByVelocity32setMinDistancetoDrivenAfterStartEf
E:\zFAS-Jenkins\workspace\zFAS_AIT_Master_AAT\SW\0300_ApplicationLayer\branches\CL3_REL_320_3XX\0350_SWC-SET\CtApMapFusion\02_libs\CtApMapFusion.vxe:8027247c 0000005c T _ZN9mapfusion18MovementByVelocity36checkIfStandingStillMinTimeIsReachedERK9TimeStamp
E:\zFAS-Jenkins\workspace\zFAS_AIT_Master_AAT\SW\0300_ApplicationLayer\branches\CL3_REL_320_3XX\0350_SWC-SET\CtApMapFusion\02_libs\CtApMapFusion.vxe:8027244c 00000008 T _ZN9mapfusion18MovementByVelocity36setMinTimeForStandingStillAfterStartEj
E:\zFAS-Jenkins\workspace\zFAS_AIT_Master_AAT\SW\0300_ApplicationLayer\branches\CL3_REL_320_3XX\0350_SWC-SET\CtApMapFusion\02_libs\CtApMapFusion.vxe:8027245c 00000008 T _ZN9mapfusion18MovementByVelocity37setMinEuclideanDistanceForMovementSqrEf
E:\zFAS-Jenkins\workspace\zFAS_AIT_Master_AAT\SW\0300_ApplicationLayer\branches\CL3_REL_320_3XX\0350_SWC-SET\CtApMapFusion\02_libs\CtApMapFusion.vxe:80272454 00000008 T _ZN9mapfusion18MovementByVelocity42setMaxEuclideanDistanceForStandingStillSqrEf
E:\zFAS-Jenkins\workspace\zFAS_AIT_Master_AAT\SW\0300_ApplicationLayer\branches\CL3_REL_320_3XX\0350_SWC-SET\CtApMapFusion\02_libs\CtApMapFusion.vxe:80271ed8 00000070 T _ZN9mapfusion18MovementByVelocity5resetEv
E:\zFAS-Jenkins\workspace\zFAS_AIT_Master_AAT\SW\0300_ApplicationLayer\branches\CL3_REL_320_3XX\0350_SWC-SET\CtApMapFusion\02_libs\CtApMapFusion.vxe:80272354 000000a0 T _ZN9mapfusion18MovementByVelocityC1ERKN14audifusionbase10RingBufferINS_9MfOdoDataEEE
E:\zFAS-Jenkins\workspace\zFAS_AIT_Master_AAT\SW\0300_ApplicationLayer\branches\CL3_REL_320_3XX\0350_SWC-SET\CtApMapFusion\02_libs\CtApMapFusion.vxe:80272354 000000a0 T _ZN9mapfusion18MovementByVelocityC2ERKN14audifusionbase10RingBufferINS_9MfOdoDataEEE
E:\zFAS-Jenkins\workspace\zFAS_AIT_Master_AAT\SW\0300_ApplicationLayer\branches\CL3_REL_320_3XX\0350_SWC-SET\CtApMapFusion\02_libs\CtApMapFusion.vxe:80271e7c 00000020 T _ZN9mapfusion18MovementByVelocityD0Ev
E:\zFAS-Jenkins\workspace\zFAS_AIT_Master_AAT\SW\0300_ApplicationLayer\branches\CL3_REL_320_3XX\0350_SWC-SET\CtApMapFusion\02_libs\CtApMapFusion.vxe:80271e54 00000010 T _ZN9mapfusion18MovementByVelocityD1Ev
E:\zFAS-Jenkins\workspace\zFAS_AIT_Master_AAT\SW\0300_ApplicationLayer\branches\CL3_REL_320_3XX\0350_SWC-SET\CtApMapFusion\02_libs\CtApMapFusion.vxe:80271e54 00000010 T _ZN9mapfusion18MovementByVelocityD2Ev
E:\zFAS-Jenkins\workspace\zFAS_AIT_Master_AAT\SW\0300_ApplicationLayer\branches\CL3_REL_320_3XX\0350_SWC-SET\CtApMapFusion\02_libs\CtApMapFusion.vxe:8027cc10 0000010c T _ZN9mapfusion18QualityClassMapperC1Ev
E:\zFAS-Jenkins\workspace\zFAS_AIT_Master_AAT\SW\0300_ApplicationLayer\branches\CL3_REL_320_3XX\0350_SWC-SET\CtApMapFusion\02_libs\CtApMapFusion.vxe:8027cc10 0000010c T _ZN9mapfusion18QualityClassMapperC2Ev
E:\zFAS-Jenkins\workspace\zFAS_AIT_Master_AAT\SW\0300_ApplicationLayer\branches\CL3_REL_320_3XX\0350_SWC-SET\CtApMapFusion\02_libs\CtApMapFusion.vxe:802bb844 0000000c T _ZN9mapfusion18TestHooksInterface20instancePointerInnerEv
E:\zFAS-Jenkins\workspace\zFAS_AIT_Master_AAT\SW\0300_ApplicationLayer\branches\CL3_REL_320_3XX\0350_SWC-SET\CtApMapFusion\02_libs\CtApMapFusion.vxe:80266d04 0000003c T _ZN9mapfusion18USPrioritySelector4initEPKc
E:\zFAS-Jenkins\workspace\zFAS_AIT_Master_AAT\SW\0300_ApplicationLayer\branches\CL3_REL_320_3XX\0350_SWC-SET\CtApMapFusion\02_libs\CtApMapFusion.vxe:80266c4c 0000000c T _ZN9mapfusion18USPrioritySelectorC1Ev
E:\zFAS-Jenkins\workspace\zFAS_AIT_Master_AAT\SW\0300_ApplicationLayer\branches\CL3_REL_320_3XX\0350_SWC-SET\CtApMapFusion\02_libs\CtApMapFusion.vxe:80266c4c 0000000c T _ZN9mapfusion18USPrioritySelectorC2Ev
E:\zFAS-Jenkins\workspace\zFAS_AIT_Master_AAT\SW\0300_ApplicationLayer\branches\CL3_REL_320_3XX\0350_SWC-SET\CtApMapFusion\02_libs\CtApMapFusion.vxe:80078f30 00000134 W _ZN9mapfusion19FeatureTriangulator13processOutputINS_14IFencesAdapterIN9fencesapi10IFencesApiI19_Dt_RECORD_MVFences20_Dt_RECORD_MVContour19_Dt_RECORD_MVVertexLj100ELj100ELj3ELj13ENS3_28MvFencesApiAdditionalMembersEjjEENS_6FCacheELj3072ENS_22CommonPrioritySelectorEEEEEvRKNS_17FencesAdapterNameERT_
E:\zFAS-Jenkins\workspace\zFAS_AIT_Master_AAT\SW\0300_ApplicationLayer\branches\CL3_REL_320_3XX\0350_SWC-SET\CtApMapFusion\02_libs\CtApMapFusion.vxe:8006f39c 00000134 W _ZN9mapfusion19FeatureTriangulator13processOutputINS_14IFencesAdapterIN9fencesapi10IFencesApiI19_Dt_RECORD_MVFences20_Dt_RECORD_MVContour19_Dt_RECORD_MVVertexLj100ELj100ELj3ELj13ENS3_28MvFencesApiAdditionalMembersEjjEENS_6OCacheELj2097290ENS_22CommonPrioritySelectorEEEEEvRKNS_17FencesAdapterNameERT_
E:\zFAS-Jenkins\workspace\zFAS_AIT_Master_AAT\SW\0300_ApplicationLayer\branches\CL3_REL_320_3XX\0350_SWC-SET\CtApMapFusion\02_libs\CtApMapFusion.vxe:80068a88 00000134 W _ZN9mapfusion19FeatureTriangulator13processOutputINS_14IFencesAdapterIN9fencesapi10IFencesApiI27_Dt_RECORD_LSObstacleFences28_Dt_RECORD_LSObstacleContour27_Dt_RECORD_LSObstacleVertexLj64ELj350ELj3ELj12EjjjEENS_6OCacheELj2322459ENS_18LSPrioritySelectorEEEEEvRKNS_17FencesAdapterNameERT_
E:\zFAS-Jenkins\workspace\zFAS_AIT_Master_AAT\SW\0300_ApplicationLayer\branches\CL3_REL_320_3XX\0350_SWC-SET\CtApMapFusion\02_libs\CtApMapFusion.vxe:800737d0 00000134 W _ZN9mapfusion19FeatureTriangulator13processOutputINS_14IFencesAdapterIN9fencesapi10IFencesApiI27_Dt_RECORD_USObstacleFences28_Dt_RECORD_USObstacleContour27_Dt_RECORD_USObstacleVertexLj24ELj48ELj3ELj12ENS3_36UsObstacleFencesApiAdditionalMembersEjtEENS_6OCacheELj200799355ENS_18USPrioritySelectorEEEEEvRKNS_17FencesAdapterNameERT_
E:\zFAS-Jenkins\workspace\zFAS_AIT_Master_AAT\SW\0300_ApplicationLayer\branches\CL3_REL_320_3XX\0350_SWC-SET\CtApMapFusion\02_libs\CtApMapFusion.vxe:8006ac80 00000134 W _ZN9mapfusion19FeatureTriangulator13processOutputINS_14IFencesAdapterIN9fencesapi10IFencesApiI28_Dt_RECORD_LRRObstacleFences29_Dt_RECORD_LRRObstacleContour28_Dt_RECORD_LRRObstacleVertexLj10ELj20ELj3ELj12EjjjEENS_6OCacheELj2097290ENS_22CommonPrioritySelectorEEEEEvRKNS_17FencesAdapterNameERT_
E:\zFAS-Jenkins\workspace\zFAS_AIT_Master_AAT\SW\0300_ApplicationLayer\branches\CL3_REL_320_3XX\0350_SWC-SET\CtApMapFusion\02_libs\CtApMapFusion.vxe:80076a0c 00000134 W _ZN9mapfusion19FeatureTriangulator13processOutputINS_14IFencesAdapterIN9fencesapi10IFencesApiI28_Dt_RECORD_LSFreespaceFences29_Dt_RECORD_LSFreespaceContour28_Dt_RECORD_LSFreespaceVertexLj64ELj350ELj1ELj1EjNS3_34ZfasLsFreespaceContourApiAddMemberEjEENS_6FCacheELj2322459ENS_18LSPrioritySelectorEEEEEvRKNS_17FencesAdapterNameERT_
E:\zFAS-Jenkins\workspace\zFAS_AIT_Master_AAT\SW\0300_ApplicationLayer\branches\CL3_REL_320_3XX\0350_SWC-SET\CtApMapFusion\02_libs\CtApMapFusion.vxe:8006ce78 00000134 W _ZN9mapfusion19FeatureTriangulator13processOutputINS_14IFencesAdapterIN9fencesapi10IFencesApiI28_Dt_RECORD_MRRObstacleFences29_Dt_RECORD_MRRObstacleContour28_Dt_RECORD_MRRObstacleVertexLj10ELj20ELj3ELj12EjjjEENS_6OCacheELj2097290ENS_22CommonPrioritySelectorEEEEEvRKNS_17FencesAdapterNameERT_
E:\zFAS-Jenkins\workspace\zFAS_AIT_Master_AAT\SW\0300_ApplicationLayer\branches\CL3_REL_320_3XX\0350_SWC-SET\CtApMapFusion\02_libs\CtApMapFusion.vxe:8007c4cc 00000134 W _ZN9mapfusion19FeatureTriangulator13processOutputINS_14IFencesAdapterIN9fencesapi10IFencesApiI28_Dt_RECORD_USFreespaceFences29_Dt_RECORD_USFreespaceContour28_Dt_RECORD_USFreespaceVertexLj48ELj192ELj1ELj1EjjjEENS_6FCacheELj200799355ENS_18USPrioritySelectorEEEEEvRKNS_17FencesAdapterNameERT_
E:\zFAS-Jenkins\workspace\zFAS_AIT_Master_AAT\SW\0300_ApplicationLayer\branches\CL3_REL_320_3XX\0350_SWC-SET\CtApMapFusion\02_libs\CtApMapFusion.vxe:800715dc 00000134 W _ZN9mapfusion19FeatureTriangulator13processOutputINS_14IFencesAdapterIN9fencesapi10IFencesApiI29_Dt_RECORD_TVBVObstacleFences30_Dt_RECORD_TVBVObstacleContour29_Dt_RECORD_TVBVObstacleVertexLj64ELj200ELj3ELj12EjjjEENS_6OCacheELj2191391ENS_20TVIPPrioritySelectorEEEEEvRKNS_17FencesAdapterNameERT_
E:\zFAS-Jenkins\workspace\zFAS_AIT_Master_AAT\SW\0300_ApplicationLayer\branches\CL3_REL_320_3XX\0350_SWC-SET\CtApMapFusion\02_libs\CtApMapFusion.vxe:8007aa04 00000134 W _ZN9mapfusion19FeatureTriangulator13processOutputINS_14IFencesAdapterIN9fencesapi10IFencesApiI30_Dt_RECORD_TVBVFreespaceFences31_Dt_RECORD_TVBVFreespaceContour30_Dt_RECORD_TVBVFreespaceVertexLj128ELj440ELj1ELj1EjjjEENS_6FCacheELj2191391ENS_20TVIPPrioritySelectorEEEEEvRKNS_17FencesAdapterNameERT_
E:\zFAS-Jenkins\workspace\zFAS_AIT_Master_AAT\SW\0300_ApplicationLayer\branches\CL3_REL_320_3XX\0350_SWC-SET\CtApMapFusion\02_libs\CtApMapFusion.vxe:8007e97c 00000134 W _ZN9mapfusion19FeatureTriangulator13processOutputINS_14IFencesAdapterIN9fencesapi10IFencesApiIN15fencesinterface17FencesLightStructENS5_7ContourENS5_6VertexELj250ELj500ELj5ELj31EjjjEENS_6FCacheELj4608ENS_22CommonPrioritySelectorEEEEEvRKNS_17FencesAdapterNameERT_
E:\zFAS-Jenkins\workspace\zFAS_AIT_Master_AAT\SW\0300_ApplicationLayer\branches\CL3_REL_320_3XX\0350_SWC-SET\CtApMapFusion\02_libs\CtApMapFusion.vxe:80271514 000000e8 T _ZN9mapfusion19FeatureTriangulator21finalizeTriangulationERN14audifusionbase13TVectorStaticINS0_12IntersectionELj64EEERNS1_16StaticRingBufferIPNS_13TriangFeatureELj64EEERKS7_
E:\zFAS-Jenkins\workspace\zFAS_AIT_Master_AAT\SW\0300_ApplicationLayer\branches\CL3_REL_320_3XX\0350_SWC-SET\CtApMapFusion\02_libs\CtApMapFusion.vxe:80271120 00000090 T _ZN9mapfusion19FeatureTriangulator22findBestAssocCandidateERKNS_13TriangFeatureERN14audifusionbase16StaticRingBufferIPS1_Lj64EEE
E:\zFAS-Jenkins\workspace\zFAS_AIT_Master_AAT\SW\0300_ApplicationLayer\branches\CL3_REL_320_3XX\0350_SWC-SET\CtApMapFusion\02_libs\CtApMapFusion.vxe:802711b0 0000006c T _ZN9mapfusion19FeatureTriangulator23processSharpMeasurementERKNS_13TriangFeature11MeasurementEbRN14audifusionbase16StaticRingBufferIPS1_Lj64EEE
E:\zFAS-Jenkins\workspace\zFAS_AIT_Master_AAT\SW\0300_ApplicationLayer\branches\CL3_REL_320_3XX\0350_SWC-SET\CtApMapFusion\02_libs\CtApMapFusion.vxe:8027108c 00000094 T _ZN9mapfusion19FeatureTriangulator24addToRemeasurementBufferERKNS_13TriangFeatureERN14audifusionbase16StaticRingBufferIPS1_Lj64EEE
E:\zFAS-Jenkins\workspace\zFAS_AIT_Master_AAT\SW\0300_ApplicationLayer\branches\CL3_REL_320_3XX\0350_SWC-SET\CtApMapFusion\02_libs\CtApMapFusion.vxe:80271004 00000088 T _ZN9mapfusion19FeatureTriangulator24addToTriangulationBufferERKNS_13TriangFeatureERN14audifusionbase16StaticRingBufferIPS1_Lj64EEE
E:\zFAS-Jenkins\workspace\zFAS_AIT_Master_AAT\SW\0300_ApplicationLayer\branches\CL3_REL_320_3XX\0350_SWC-SET\CtApMapFusion\02_libs\CtApMapFusion.vxe:802715fc 0000013c T _ZN9mapfusion19FeatureTriangulator25processUnsharpMeasurementERKNS_13TriangFeature11MeasurementEbRN14audifusionbase16StaticRingBufferIPS1_Lj64EEES9_
E:\zFAS-Jenkins\workspace\zFAS_AIT_Master_AAT\SW\0300_ApplicationLayer\branches\CL3_REL_320_3XX\0350_SWC-SET\CtApMapFusion\02_libs\CtApMapFusion.vxe:8026e910 00002250 T _ZN9mapfusion19FeatureTriangulator4initEv
E:\zFAS-Jenkins\workspace\zFAS_AIT_Master_AAT\SW\0300_ApplicationLayer\branches\CL3_REL_320_3XX\0350_SWC-SET\CtApMapFusion\02_libs\CtApMapFusion.vxe:80270b60 000004a4 T _ZN9mapfusion19FeatureTriangulator5shiftERKNS_13OdoControllerE
E:\zFAS-Jenkins\workspace\zFAS_AIT_Master_AAT\SW\0300_ApplicationLayer\branches\CL3_REL_320_3XX\0350_SWC-SET\CtApMapFusion\02_libs\CtApMapFusion.vxe:8026e878 00000098 T _ZN9mapfusion19FeatureTriangulatorC1Ev
E:\zFAS-Jenkins\workspace\zFAS_AIT_Master_AAT\SW\0300_ApplicationLayer\branches\CL3_REL_320_3XX\0350_SWC-SET\CtApMapFusion\02_libs\CtApMapFusion.vxe:8026e878 00000098 T _ZN9mapfusion19FeatureTriangulatorC2Ev
E:\zFAS-Jenkins\workspace\zFAS_AIT_Master_AAT\SW\0300_ApplicationLayer\branches\CL3_REL_320_3XX\0350_SWC-SET\CtApMapFusion\02_libs\CtApMapFusion.vxe:8027259c 00000020 W _ZN9mapfusion19IMovementCalculatorD0Ev
E:\zFAS-Jenkins\workspace\zFAS_AIT_Master_AAT\SW\0300_ApplicationLayer\branches\CL3_REL_320_3XX\0350_SWC-SET\CtApMapFusion\02_libs\CtApMapFusion.vxe:8027258c 00000010 W _ZN9mapfusion19IMovementCalculatorD1Ev
E:\zFAS-Jenkins\workspace\zFAS_AIT_Master_AAT\SW\0300_ApplicationLayer\branches\CL3_REL_320_3XX\0350_SWC-SET\CtApMapFusion\02_libs\CtApMapFusion.vxe:802bb850 000000b8 T _ZN9mapfusion19injectTestHookErrorENS_18TestHooksInterface5ErrorERNS_10ResultTypeE
E:\zFAS-Jenkins\workspace\zFAS_AIT_Master_AAT\SW\0300_ApplicationLayer\branches\CL3_REL_320_3XX\0350_SWC-SET\CtApMapFusion\02_libs\CtApMapFusion.vxe:8004b118 00000f10 W _ZN9mapfusion19MapFusionComponentsINS_24MapFusionComponentsTypesINS_12GlobalConfigILj4ELj6ELj2ELj2EEEN12errorhandler16InputHandlerZFASENS4_17OutputHandlerZFASEEEEC1ERNS_13SensorAdapterIS5_EERS6_
E:\zFAS-Jenkins\workspace\zFAS_AIT_Master_AAT\SW\0300_ApplicationLayer\branches\CL3_REL_320_3XX\0350_SWC-SET\CtApMapFusion\02_libs\CtApMapFusion.vxe:8004c028 00000324 W _ZN9mapfusion19MapFusionComponentsINS_24MapFusionComponentsTypesINS_12GlobalConfigILj4ELj6ELj2ELj2EEEN12errorhandler16InputHandlerZFASENS4_17OutputHandlerZFASEEEED1Ev
E:\zFAS-Jenkins\workspace\zFAS_AIT_Master_AAT\SW\0300_ApplicationLayer\branches\CL3_REL_320_3XX\0350_SWC-SET\CtApMapFusion\02_libs\CtApMapFusion.vxe:80054240 00000b08 W _ZN9mapfusion20FencesContourHandler4initEv
E:\zFAS-Jenkins\workspace\zFAS_AIT_Master_AAT\SW\0300_ApplicationLayer\branches\CL3_REL_320_3XX\0350_SWC-SET\CtApMapFusion\02_libs\CtApMapFusion.vxe:80266c68 0000003c T _ZN9mapfusion20TVIPPrioritySelector4initEPKc
E:\zFAS-Jenkins\workspace\zFAS_AIT_Master_AAT\SW\0300_ApplicationLayer\branches\CL3_REL_320_3XX\0350_SWC-SET\CtApMapFusion\02_libs\CtApMapFusion.vxe:80266c40 0000000c T _ZN9mapfusion20TVIPPrioritySelectorC1Ev
E:\zFAS-Jenkins\workspace\zFAS_AIT_Master_AAT\SW\0300_ApplicationLayer\branches\CL3_REL_320_3XX\0350_SWC-SET\CtApMapFusion\02_libs\CtApMapFusion.vxe:80266c40 0000000c T _ZN9mapfusion20TVIPPrioritySelectorC2Ev
E:\zFAS-Jenkins\workspace\zFAS_AIT_Master_AAT\SW\0300_ApplicationLayer\branches\CL3_REL_320_3XX\0350_SWC-SET\CtApMapFusion\02_libs\CtApMapFusion.vxe:802768d4 00000028 T _ZN9mapfusion21SensorLimitsEstimator10startCycleERKNS_9MfOdoDataE
E:\zFAS-Jenkins\workspace\zFAS_AIT_Master_AAT\SW\0300_ApplicationLayer\branches\CL3_REL_320_3XX\0350_SWC-SET\CtApMapFusion\02_libs\CtApMapFusion.vxe:80275f58 000000a0 T _ZN9mapfusion21SensorLimitsEstimator13initClipEdgesEv
E:\zFAS-Jenkins\workspace\zFAS_AIT_Master_AAT\SW\0300_ApplicationLayer\branches\CL3_REL_320_3XX\0350_SWC-SET\CtApMapFusion\02_libs\CtApMapFusion.vxe:80276e64 00000408 T _ZN9mapfusion21SensorLimitsEstimator13sortSensorPosEv
E:\zFAS-Jenkins\workspace\zFAS_AIT_Master_AAT\SW\0300_ApplicationLayer\branches\CL3_REL_320_3XX\0350_SWC-SET\CtApMapFusion\02_libs\CtApMapFusion.vxe:8007807c 00000a8c W _ZN9mapfusion21SensorLimitsEstimator15estimateByFenceINS_14IFencesAdapterIN9fencesapi10IFencesApiI19_Dt_RECORD_MVFences20_Dt_RECORD_MVContour19_Dt_RECORD_MVVertexLj100ELj100ELj3ELj13ENS3_28MvFencesApiAdditionalMembersEjjEENS_6FCacheELj3072ENS_22CommonPrioritySelectorEEEEENS_10ResultTypeERNS_9ClipEdgesERT_NS_17FencesAdapterNameE
E:\zFAS-Jenkins\workspace\zFAS_AIT_Master_AAT\SW\0300_ApplicationLayer\branches\CL3_REL_320_3XX\0350_SWC-SET\CtApMapFusion\02_libs\CtApMapFusion.vxe:8006e4e8 00000a8c W _ZN9mapfusion21SensorLimitsEstimator15estimateByFenceINS_14IFencesAdapterIN9fencesapi10IFencesApiI19_Dt_RECORD_MVFences20_Dt_RECORD_MVContour19_Dt_RECORD_MVVertexLj100ELj100ELj3ELj13ENS3_28MvFencesApiAdditionalMembersEjjEENS_6OCacheELj2097290ENS_22CommonPrioritySelectorEEEEENS_10ResultTypeERNS_9ClipEdgesERT_NS_17FencesAdapterNameE
E:\zFAS-Jenkins\workspace\zFAS_AIT_Master_AAT\SW\0300_ApplicationLayer\branches\CL3_REL_320_3XX\0350_SWC-SET\CtApMapFusion\02_libs\CtApMapFusion.vxe:80067e00 000008f8 W _ZN9mapfusion21SensorLimitsEstimator15estimateByFenceINS_14IFencesAdapterIN9fencesapi10IFencesApiI27_Dt_RECORD_LSObstacleFences28_Dt_RECORD_LSObstacleContour27_Dt_RECORD_LSObstacleVertexLj64ELj350ELj3ELj12EjjjEENS_6OCacheELj2322459ENS_18LSPrioritySelectorEEEEENS_10ResultTypeERNS_9ClipEdgesERT_NS_17FencesAdapterNameE
E:\zFAS-Jenkins\workspace\zFAS_AIT_Master_AAT\SW\0300_ApplicationLayer\branches\CL3_REL_320_3XX\0350_SWC-SET\CtApMapFusion\02_libs\CtApMapFusion.vxe:80072b5c 000008f0 W _ZN9mapfusion21SensorLimitsEstimator15estimateByFenceINS_14IFencesAdapterIN9fencesapi10IFencesApiI27_Dt_RECORD_USObstacleFences28_Dt_RECORD_USObstacleContour27_Dt_RECORD_USObstacleVertexLj24ELj48ELj3ELj12ENS3_36UsObstacleFencesApiAdditionalMembersEjtEENS_6OCacheELj200799355ENS_18USPrioritySelectorEEEEENS_10ResultTypeERNS_9ClipEdgesERT_NS_17FencesAdapterNameE
E:\zFAS-Jenkins\workspace\zFAS_AIT_Master_AAT\SW\0300_ApplicationLayer\branches\CL3_REL_320_3XX\0350_SWC-SET\CtApMapFusion\02_libs\CtApMapFusion.vxe:8006a00c 000008f0 W _ZN9mapfusion21SensorLimitsEstimator15estimateByFenceINS_14IFencesAdapterIN9fencesapi10IFencesApiI28_Dt_RECORD_LRRObstacleFences29_Dt_RECORD_LRRObstacleContour28_Dt_RECORD_LRRObstacleVertexLj10ELj20ELj3ELj12EjjjEENS_6OCacheELj2097290ENS_22CommonPrioritySelectorEEEEENS_10ResultTypeERNS_9ClipEdgesERT_NS_17FencesAdapterNameE
E:\zFAS-Jenkins\workspace\zFAS_AIT_Master_AAT\SW\0300_ApplicationLayer\branches\CL3_REL_320_3XX\0350_SWC-SET\CtApMapFusion\02_libs\CtApMapFusion.vxe:800755b8 00001160 W _ZN9mapfusion21SensorLimitsEstimator15estimateByFenceINS_14IFencesAdapterIN9fencesapi10IFencesApiI28_Dt_RECORD_LSFreespaceFences29_Dt_RECORD_LSFreespaceContour28_Dt_RECORD_LSFreespaceVertexLj64ELj350ELj1ELj1EjNS3_34ZfasLsFreespaceContourApiAddMemberEjEENS_6FCacheELj2322459ENS_18LSPrioritySelectorEEEEENS_10ResultTypeERNS_9ClipEdgesERT_NS_17FencesAdapterNameE
E:\zFAS-Jenkins\workspace\zFAS_AIT_Master_AAT\SW\0300_ApplicationLayer\branches\CL3_REL_320_3XX\0350_SWC-SET\CtApMapFusion\02_libs\CtApMapFusion.vxe:8006c204 000008f0 W _ZN9mapfusion21SensorLimitsEstimator15estimateByFenceINS_14IFencesAdapterIN9fencesapi10IFencesApiI28_Dt_RECORD_MRRObstacleFences29_Dt_RECORD_MRRObstacleContour28_Dt_RECORD_MRRObstacleVertexLj10ELj20ELj3ELj12EjjjEENS_6OCacheELj2097290ENS_22CommonPrioritySelectorEEEEENS_10ResultTypeERNS_9ClipEdgesERT_NS_17FencesAdapterNameE
E:\zFAS-Jenkins\workspace\zFAS_AIT_Master_AAT\SW\0300_ApplicationLayer\branches\CL3_REL_320_3XX\0350_SWC-SET\CtApMapFusion\02_libs\CtApMapFusion.vxe:8007b0f0 000010e0 W _ZN9mapfusion21SensorLimitsEstimator15estimateByFenceINS_14IFencesAdapterIN9fencesapi10IFencesApiI28_Dt_RECORD_USFreespaceFences29_Dt_RECORD_USFreespaceContour28_Dt_RECORD_USFreespaceVertexLj48ELj192ELj1ELj1EjjjEENS_6FCacheELj200799355ENS_18USPrioritySelectorEEEEENS_10ResultTypeERNS_9ClipEdgesERT_NS_17FencesAdapterNameE
E:\zFAS-Jenkins\workspace\zFAS_AIT_Master_AAT\SW\0300_ApplicationLayer\branches\CL3_REL_320_3XX\0350_SWC-SET\CtApMapFusion\02_libs\CtApMapFusion.vxe:80070954 000008f4 W _ZN9mapfusion21SensorLimitsEstimator15estimateByFenceINS_14IFencesAdapterIN9fencesapi10IFencesApiI29_Dt_RECORD_TVBVObstacleFences30_Dt_RECORD_TVBVObstacleContour29_Dt_RECORD_TVBVObstacleVertexLj64ELj200ELj3ELj12EjjjEENS_6OCacheELj2191391ENS_20TVIPPrioritySelectorEEEEENS_10ResultTypeERNS_9ClipEdgesERT_NS_17FencesAdapterNameE
E:\zFAS-Jenkins\workspace\zFAS_AIT_Master_AAT\SW\0300_ApplicationLayer\branches\CL3_REL_320_3XX\0350_SWC-SET\CtApMapFusion\02_libs\CtApMapFusion.vxe:8007962c 000010d4 W _ZN9mapfusion21SensorLimitsEstimator15estimateByFenceINS_14IFencesAdapterIN9fencesapi10IFencesApiI30_Dt_RECORD_TVBVFreespaceFences31_Dt_RECORD_TVBVFreespaceContour30_Dt_RECORD_TVBVFreespaceVertexLj128ELj440ELj1ELj1EjjjEENS_6FCacheELj2191391ENS_20TVIPPrioritySelectorEEEEENS_10ResultTypeERNS_9ClipEdgesERT_NS_17FencesAdapterNameE
E:\zFAS-Jenkins\workspace\zFAS_AIT_Master_AAT\SW\0300_ApplicationLayer\branches\CL3_REL_320_3XX\0350_SWC-SET\CtApMapFusion\02_libs\CtApMapFusion.vxe:8007dab8 000009b8 W _ZN9mapfusion21SensorLimitsEstimator15estimateByFenceINS_14IFencesAdapterIN9fencesapi10IFencesApiIN15fencesinterface17FencesLightStructENS5_7ContourENS5_6VertexELj250ELj500ELj5ELj31EjjjEENS_6FCacheELj4608ENS_22CommonPrioritySelectorEEEEENS_10ResultTypeERNS_9ClipEdgesERT_NS_17FencesAdapterNameE
E:\zFAS-Jenkins\workspace\zFAS_AIT_Master_AAT\SW\0300_ApplicationLayer\branches\CL3_REL_320_3XX\0350_SWC-SET\CtApMapFusion\02_libs\CtApMapFusion.vxe:8005b2b0 000009b8 W _ZN9mapfusion21SensorLimitsEstimator15estimateByFenceINS_14IFencesAdapterIN9fencesapi10IFencesApiIN15fencesinterface17FencesLightStructENS5_7ContourENS5_6VertexELj250ELj500ELj5ELj31EjjjEENS_6OCacheELj2097152ENS_22CommonPrioritySelectorEEEEENS_10ResultTypeERNS_9ClipEdgesERT_NS_17FencesAdapterNameE
E:\zFAS-Jenkins\workspace\zFAS_AIT_Master_AAT\SW\0300_ApplicationLayer\branches\CL3_REL_320_3XX\0350_SWC-SET\CtApMapFusion\02_libs\CtApMapFusion.vxe:8027726c 00000038 T _ZN9mapfusion21SensorLimitsEstimator15estimateOutlineEv
E:\zFAS-Jenkins\workspace\zFAS_AIT_Master_AAT\SW\0300_ApplicationLayer\branches\CL3_REL_320_3XX\0350_SWC-SET\CtApMapFusion\02_libs\CtApMapFusion.vxe:802768b4 00000020 T _ZN9mapfusion21SensorLimitsEstimator16clearSensorPosesEv
E:\zFAS-Jenkins\workspace\zFAS_AIT_Master_AAT\SW\0300_ApplicationLayer\branches\CL3_REL_320_3XX\0350_SWC-SET\CtApMapFusion\02_libs\CtApMapFusion.vxe:802772c4 0000016c T _ZN9mapfusion21SensorLimitsEstimator17addSensorPositionEfffNS_17FencesAdapterNameE
E:\zFAS-Jenkins\workspace\zFAS_AIT_Master_AAT\SW\0300_ApplicationLayer\branches\CL3_REL_320_3XX\0350_SWC-SET\CtApMapFusion\02_libs\CtApMapFusion.vxe:802772a4 00000020 T _ZN9mapfusion21SensorLimitsEstimator19getEstimatetOutlineERNS0_22OutlineEstimationStateE
E:\zFAS-Jenkins\workspace\zFAS_AIT_Master_AAT\SW\0300_ApplicationLayer\branches\CL3_REL_320_3XX\0350_SWC-SET\CtApMapFusion\02_libs\CtApMapFusion.vxe:802768fc 00000568 T _ZN9mapfusion21SensorLimitsEstimator19processNewSensorPosERb
E:\zFAS-Jenkins\workspace\zFAS_AIT_Master_AAT\SW\0300_ApplicationLayer\branches\CL3_REL_320_3XX\0350_SWC-SET\CtApMapFusion\02_libs\CtApMapFusion.vxe:80276034 000000f8 T _ZN9mapfusion21SensorLimitsEstimator22initVelocityThresholdsEv
E:\zFAS-Jenkins\workspace\zFAS_AIT_Master_AAT\SW\0300_ApplicationLayer\branches\CL3_REL_320_3XX\0350_SWC-SET\CtApMapFusion\02_libs\CtApMapFusion.vxe:80275f20 00000038 T _ZN9mapfusion21SensorLimitsEstimator27checkAndSetOutlineAtanParamERA256_Kci
E:\zFAS-Jenkins\workspace\zFAS_AIT_Master_AAT\SW\0300_ApplicationLayer\branches\CL3_REL_320_3XX\0350_SWC-SET\CtApMapFusion\02_libs\CtApMapFusion.vxe:80076b40 000002f0 W _ZN9mapfusion21SensorLimitsEstimator31estimateClipEdgesStepEstimationINS_14IFencesAdapterIN9fencesapi10IFencesApiI19_Dt_RECORD_MVFences20_Dt_RECORD_MVContour19_Dt_RECORD_MVVertexLj100ELj100ELj3ELj13ENS3_28MvFencesApiAdditionalMembersEjjEENS_6FCacheELj3072ENS_22CommonPrioritySelectorEEENS_14AddPointUsFuncEEEvRNS_9ClipEdgesERKT_RKT0_
E:\zFAS-Jenkins\workspace\zFAS_AIT_Master_AAT\SW\0300_ApplicationLayer\branches\CL3_REL_320_3XX\0350_SWC-SET\CtApMapFusion\02_libs\CtApMapFusion.vxe:8006cfac 000002f0 W _ZN9mapfusion21SensorLimitsEstimator31estimateClipEdgesStepEstimationINS_14IFencesAdapterIN9fencesapi10IFencesApiI19_Dt_RECORD_MVFences20_Dt_RECORD_MVContour19_Dt_RECORD_MVVertexLj100ELj100ELj3ELj13ENS3_28MvFencesApiAdditionalMembersEjjEENS_6OCacheELj2097290ENS_22CommonPrioritySelectorEEENS_14AddPointUsFuncEEEvRNS_9ClipEdgesERKT_RKT0_
E:\zFAS-Jenkins\workspace\zFAS_AIT_Master_AAT\SW\0300_ApplicationLayer\branches\CL3_REL_320_3XX\0350_SWC-SET\CtApMapFusion\02_libs\CtApMapFusion.vxe:80066954 00000278 W _ZN9mapfusion21SensorLimitsEstimator31estimateClipEdgesStepEstimationINS_14IFencesAdapterIN9fencesapi10IFencesApiI27_Dt_RECORD_LSObstacleFences28_Dt_RECORD_LSObstacleContour27_Dt_RECORD_LSObstacleVertexLj64ELj350ELj3ELj12EjjjEENS_6OCacheELj2322459ENS_18LSPrioritySelectorEEENS_14AddPointUsFuncEEEvRNS_9ClipEdgesERKT_RKT0_
E:\zFAS-Jenkins\workspace\zFAS_AIT_Master_AAT\SW\0300_ApplicationLayer\branches\CL3_REL_320_3XX\0350_SWC-SET\CtApMapFusion\02_libs\CtApMapFusion.vxe:80071710 0000026c W _ZN9mapfusion21SensorLimitsEstimator31estimateClipEdgesStepEstimationINS_14IFencesAdapterIN9fencesapi10IFencesApiI27_Dt_RECORD_USObstacleFences28_Dt_RECORD_USObstacleContour27_Dt_RECORD_USObstacleVertexLj24ELj48ELj3ELj12ENS3_36UsObstacleFencesApiAdditionalMembersEjtEENS_6OCacheELj200799355ENS_18USPrioritySelectorEEENS_14AddPointUsFuncEEEvRNS_9ClipEdgesERKT_RKT0_
E:\zFAS-Jenkins\workspace\zFAS_AIT_Master_AAT\SW\0300_ApplicationLayer\branches\CL3_REL_320_3XX\0350_SWC-SET\CtApMapFusion\02_libs\CtApMapFusion.vxe:80068bbc 0000026c W _ZN9mapfusion21SensorLimitsEstimator31estimateClipEdgesStepEstimationINS_14IFencesAdapterIN9fencesapi10IFencesApiI28_Dt_RECORD_LRRObstacleFences29_Dt_RECORD_LRRObstacleContour28_Dt_RECORD_LRRObstacleVertexLj10ELj20ELj3ELj12EjjjEENS_6OCacheELj2097290ENS_22CommonPrioritySelectorEEENS_14AddPointUsFuncEEEvRNS_9ClipEdgesERKT_RKT0_
E:\zFAS-Jenkins\workspace\zFAS_AIT_Master_AAT\SW\0300_ApplicationLayer\branches\CL3_REL_320_3XX\0350_SWC-SET\CtApMapFusion\02_libs\CtApMapFusion.vxe:80074fe4 00000270 W _ZN9mapfusion21SensorLimitsEstimator31estimateClipEdgesStepEstimationINS_14IFencesAdapterIN9fencesapi10IFencesApiI28_Dt_RECORD_LSFreespaceFences29_Dt_RECORD_LSFreespaceContour28_Dt_RECORD_LSFreespaceVertexLj64ELj350ELj1ELj1EjNS3_34ZfasLsFreespaceContourApiAddMemberEjEENS_6FCacheELj2322459ENS_18LSPrioritySelectorEEENS_14AddPointUsFuncEEEvRNS_9ClipEdgesERKT_RKT0_
E:\zFAS-Jenkins\workspace\zFAS_AIT_Master_AAT\SW\0300_ApplicationLayer\branches\CL3_REL_320_3XX\0350_SWC-SET\CtApMapFusion\02_libs\CtApMapFusion.vxe:8006adb4 0000026c W _ZN9mapfusion21SensorLimitsEstimator31estimateClipEdgesStepEstimationINS_14IFencesAdapterIN9fencesapi10IFencesApiI28_Dt_RECORD_MRRObstacleFences29_Dt_RECORD_MRRObstacleContour28_Dt_RECORD_MRRObstacleVertexLj10ELj20ELj3ELj12EjjjEENS_6OCacheELj2097290ENS_22CommonPrioritySelectorEEENS_14AddPointUsFuncEEEvRNS_9ClipEdgesERKT_RKT0_
E:\zFAS-Jenkins\workspace\zFAS_AIT_Master_AAT\SW\0300_ApplicationLayer\branches\CL3_REL_320_3XX\0350_SWC-SET\CtApMapFusion\02_libs\CtApMapFusion.vxe:8007ab38 00000264 W _ZN9mapfusion21SensorLimitsEstimator31estimateClipEdgesStepEstimationINS_14IFencesAdapterIN9fencesapi10IFencesApiI28_Dt_RECORD_USFreespaceFences29_Dt_RECORD_USFreespaceContour28_Dt_RECORD_USFreespaceVertexLj48ELj192ELj1ELj1EjjjEENS_6FCacheELj200799355ENS_18USPrioritySelectorEEENS_14AddPointUsFuncEEEvRNS_9ClipEdgesERKT_RKT0_
E:\zFAS-Jenkins\workspace\zFAS_AIT_Master_AAT\SW\0300_ApplicationLayer\branches\CL3_REL_320_3XX\0350_SWC-SET\CtApMapFusion\02_libs\CtApMapFusion.vxe:8006f4d0 00000270 W _ZN9mapfusion21SensorLimitsEstimator31estimateClipEdgesStepEstimationINS_14IFencesAdapterIN9fencesapi10IFencesApiI29_Dt_RECORD_TVBVObstacleFences30_Dt_RECORD_TVBVObstacleContour29_Dt_RECORD_TVBVObstacleVertexLj64ELj200ELj3ELj12EjjjEENS_6OCacheELj2191391ENS_20TVIPPrioritySelectorEEENS_14AddPointUsFuncEEEvRNS_9ClipEdgesERKT_RKT0_
E:\zFAS-Jenkins\workspace\zFAS_AIT_Master_AAT\SW\0300_ApplicationLayer\branches\CL3_REL_320_3XX\0350_SWC-SET\CtApMapFusion\02_libs\CtApMapFusion.vxe:80079064 0000026c W _ZN9mapfusion21SensorLimitsEstimator31estimateClipEdgesStepEstimationINS_14IFencesAdapterIN9fencesapi10IFencesApiI30_Dt_RECORD_TVBVFreespaceFences31_Dt_RECORD_TVBVFreespaceContour30_Dt_RECORD_TVBVFreespaceVertexLj128ELj440ELj1ELj1EjjjEENS_6FCacheELj2191391ENS_20TVIPPrioritySelectorEEENS_14AddPointUsFuncEEEvRNS_9ClipEdgesERKT_RKT0_
E:\zFAS-Jenkins\workspace\zFAS_AIT_Master_AAT\SW\0300_ApplicationLayer\branches\CL3_REL_320_3XX\0350_SWC-SET\CtApMapFusion\02_libs\CtApMapFusion.vxe:8007c600 0000028c W _ZN9mapfusion21SensorLimitsEstimator31estimateClipEdgesStepEstimationINS_14IFencesAdapterIN9fencesapi10IFencesApiIN15fencesinterface17FencesLightStructENS5_7ContourENS5_6VertexELj250ELj500ELj5ELj31EjjjEENS_6FCacheELj4608ENS_22CommonPrioritySelectorEEENS_14AddPointUsFuncEEEvRNS_9ClipEdgesERKT_RKT0_
E:\zFAS-Jenkins\workspace\zFAS_AIT_Master_AAT\SW\0300_ApplicationLayer\branches\CL3_REL_320_3XX\0350_SWC-SET\CtApMapFusion\02_libs\CtApMapFusion.vxe:80059df8 0000028c W _ZN9mapfusion21SensorLimitsEstimator31estimateClipEdgesStepEstimationINS_14IFencesAdapterIN9fencesapi10IFencesApiIN15fencesinterface17FencesLightStructENS5_7ContourENS5_6VertexELj250ELj500ELj5ELj31EjjjEENS_6OCacheELj2097152ENS_22CommonPrioritySelectorEEENS_14AddPointUsFuncEEEvRNS_9ClipEdgesERKT_RKT0_
E:\zFAS-Jenkins\workspace\zFAS_AIT_Master_AAT\SW\0300_ApplicationLayer\branches\CL3_REL_320_3XX\0350_SWC-SET\CtApMapFusion\02_libs\CtApMapFusion.vxe:8027612c 00000788 T _ZN9mapfusion21SensorLimitsEstimator4initEv
E:\zFAS-Jenkins\workspace\zFAS_AIT_Master_AAT\SW\0300_ApplicationLayer\branches\CL3_REL_320_3XX\0350_SWC-SET\CtApMapFusion\02_libs\CtApMapFusion.vxe:80275ff8 0000003c T _ZN9mapfusion21SensorLimitsEstimator5resetEv
E:\zFAS-Jenkins\workspace\zFAS_AIT_Master_AAT\SW\0300_ApplicationLayer\branches\CL3_REL_320_3XX\0350_SWC-SET\CtApMapFusion\02_libs\CtApMapFusion.vxe:802774b0 0000001c W _ZN9mapfusion21SensorLimitsEstimator9OutLinePt6sortFnERKS1_S3_
E:\zFAS-Jenkins\workspace\zFAS_AIT_Master_AAT\SW\0300_ApplicationLayer\branches\CL3_REL_320_3XX\0350_SWC-SET\CtApMapFusion\02_libs\CtApMapFusion.vxe:80275d20 00000200 T _ZN9mapfusion21SensorLimitsEstimatorC1Ev
E:\zFAS-Jenkins\workspace\zFAS_AIT_Master_AAT\SW\0300_ApplicationLayer\branches\CL3_REL_320_3XX\0350_SWC-SET\CtApMapFusion\02_libs\CtApMapFusion.vxe:80275d20 00000200 T _ZN9mapfusion21SensorLimitsEstimatorC2Ev
E:\zFAS-Jenkins\workspace\zFAS_AIT_Master_AAT\SW\0300_ApplicationLayer\branches\CL3_REL_320_3XX\0350_SWC-SET\CtApMapFusion\02_libs\CtApMapFusion.vxe:80266c3c 00000004 T _ZN9mapfusion22CommonPrioritySelector4initEPKc
E:\zFAS-Jenkins\workspace\zFAS_AIT_Master_AAT\SW\0300_ApplicationLayer\branches\CL3_REL_320_3XX\0350_SWC-SET\CtApMapFusion\02_libs\CtApMapFusion.vxe:80266c38 00000004 T _ZN9mapfusion22CommonPrioritySelectorC1Ev
E:\zFAS-Jenkins\workspace\zFAS_AIT_Master_AAT\SW\0300_ApplicationLayer\branches\CL3_REL_320_3XX\0350_SWC-SET\CtApMapFusion\02_libs\CtApMapFusion.vxe:80266c38 00000004 T _ZN9mapfusion22CommonPrioritySelectorC2Ev
E:\zFAS-Jenkins\workspace\zFAS_AIT_Master_AAT\SW\0300_ApplicationLayer\branches\CL3_REL_320_3XX\0350_SWC-SET\CtApMapFusion\02_libs\CtApMapFusion.vxe:802641a4 00000054 T _ZN9mapfusion23getScheduleEntryDefaultEv
E:\zFAS-Jenkins\workspace\zFAS_AIT_Master_AAT\SW\0300_ApplicationLayer\branches\CL3_REL_320_3XX\0350_SWC-SET\CtApMapFusion\02_libs\CtApMapFusion.vxe:802774cc 00000254 W _ZN9mapfusion23SensorLimitsEstimatorUs13readInFactorsERNS_10ResultTypeERA5_fPKcS6_
E:\zFAS-Jenkins\workspace\zFAS_AIT_Master_AAT\SW\0300_ApplicationLayer\branches\CL3_REL_320_3XX\0350_SWC-SET\CtApMapFusion\02_libs\CtApMapFusion.vxe:80277720 00002708 W _ZN9mapfusion23SensorLimitsEstimatorUs4initEv
E:\zFAS-Jenkins\workspace\zFAS_AIT_Master_AAT\SW\0300_ApplicationLayer\branches\CL3_REL_320_3XX\0350_SWC-SET\CtApMapFusion\02_libs\CtApMapFusion.vxe:8004eb98 00000020 W _ZN9mapfusion24AbstractRteDiagInterfaceD0Ev
E:\zFAS-Jenkins\workspace\zFAS_AIT_Master_AAT\SW\0300_ApplicationLayer\branches\CL3_REL_320_3XX\0350_SWC-SET\CtApMapFusion\02_libs\CtApMapFusion.vxe:8004eb48 00000010 W _ZN9mapfusion24AbstractRteDiagInterfaceD1Ev
E:\zFAS-Jenkins\workspace\zFAS_AIT_Master_AAT\SW\0300_ApplicationLayer\branches\CL3_REL_320_3XX\0350_SWC-SET\CtApMapFusion\02_libs\CtApMapFusion.vxe:8026b9f0 000000d8 T _ZN9mapfusion24BlockMapUpdateDSMT3Fixed22update1CellPropositionERA15_KPhhhh
E:\zFAS-Jenkins\workspace\zFAS_AIT_Master_AAT\SW\0300_ApplicationLayer\branches\CL3_REL_320_3XX\0350_SWC-SET\CtApMapFusion\02_libs\CtApMapFusion.vxe:8026bac8 00000100 T _ZN9mapfusion24BlockMapUpdateDSMT3Fixed27update8CellsPropositionNEONERA15_KPhRA8_KhS7_S7_S7_
E:\zFAS-Jenkins\workspace\zFAS_AIT_Master_AAT\SW\0300_ApplicationLayer\branches\CL3_REL_320_3XX\0350_SWC-SET\CtApMapFusion\02_libs\CtApMapFusion.vxe:8026b710 000002e0 T _ZN9mapfusion24BlockMapUpdateDSMT3Fixed4initEv
E:\zFAS-Jenkins\workspace\zFAS_AIT_Master_AAT\SW\0300_ApplicationLayer\branches\CL3_REL_320_3XX\0350_SWC-SET\CtApMapFusion\02_libs\CtApMapFusion.vxe:8026b698 00000078 T _ZN9mapfusion24BlockMapUpdateDSMT3FixedC1Ev
E:\zFAS-Jenkins\workspace\zFAS_AIT_Master_AAT\SW\0300_ApplicationLayer\branches\CL3_REL_320_3XX\0350_SWC-SET\CtApMapFusion\02_libs\CtApMapFusion.vxe:8026b698 00000078 T _ZN9mapfusion24BlockMapUpdateDSMT3FixedC2Ev
E:\zFAS-Jenkins\workspace\zFAS_AIT_Master_AAT\SW\0300_ApplicationLayer\branches\CL3_REL_320_3XX\0350_SWC-SET\CtApMapFusion\02_libs\CtApMapFusion.vxe:8026b24c 00000058 T _ZN9mapfusion24checkAngleFreespace1CellERKNS_16CheckAngleParamsEjj
E:\zFAS-Jenkins\workspace\zFAS_AIT_Master_AAT\SW\0300_ApplicationLayer\branches\CL3_REL_320_3XX\0350_SWC-SET\CtApMapFusion\02_libs\CtApMapFusion.vxe:8004dab8 00000048 T _ZN9mapfusion24MfErrorHandlerInfoHolder10resetCycleEv
E:\zFAS-Jenkins\workspace\zFAS_AIT_Master_AAT\SW\0300_ApplicationLayer\branches\CL3_REL_320_3XX\0350_SWC-SET\CtApMapFusion\02_libs\CtApMapFusion.vxe:8004d4e8 00000010 T _ZN9mapfusion24MfErrorHandlerInfoHolder12CurrentInfoTC1Ev
E:\zFAS-Jenkins\workspace\zFAS_AIT_Master_AAT\SW\0300_ApplicationLayer\branches\CL3_REL_320_3XX\0350_SWC-SET\CtApMapFusion\02_libs\CtApMapFusion.vxe:8004d4e8 00000010 T _ZN9mapfusion24MfErrorHandlerInfoHolder12CurrentInfoTC2Ev
E:\zFAS-Jenkins\workspace\zFAS_AIT_Master_AAT\SW\0300_ApplicationLayer\branches\CL3_REL_320_3XX\0350_SWC-SET\CtApMapFusion\02_libs\CtApMapFusion.vxe:8004d8bc 00000008 T _ZN9mapfusion24MfErrorHandlerInfoHolder12setVertexIdxEj
E:\zFAS-Jenkins\workspace\zFAS_AIT_Master_AAT\SW\0300_ApplicationLayer\branches\CL3_REL_320_3XX\0350_SWC-SET\CtApMapFusion\02_libs\CtApMapFusion.vxe:802c42dc 0000003c R _ZN9mapfusion24MfErrorHandlerInfoHolder13ConstantInfoT27allowed_mf_eh_contour_type_E
E:\zFAS-Jenkins\workspace\zFAS_AIT_Master_AAT\SW\0300_ApplicationLayer\branches\CL3_REL_320_3XX\0350_SWC-SET\CtApMapFusion\02_libs\CtApMapFusion.vxe:8004d8cc 00000008 T _ZN9mapfusion24MfErrorHandlerInfoHolder13setContourIdxEj
E:\zFAS-Jenkins\workspace\zFAS_AIT_Master_AAT\SW\0300_ApplicationLayer\branches\CL3_REL_320_3XX\0350_SWC-SET\CtApMapFusion\02_libs\CtApMapFusion.vxe:8004d608 00000058 T _ZN9mapfusion24MfErrorHandlerInfoHolder15clearAttributesEv
E:\zFAS-Jenkins\workspace\zFAS_AIT_Master_AAT\SW\0300_ApplicationLayer\branches\CL3_REL_320_3XX\0350_SWC-SET\CtApMapFusion\02_libs\CtApMapFusion.vxe:8004d7c4 00000054 T _ZN9mapfusion24MfErrorHandlerInfoHolder16setStoredOdoInfoENS0_18StoredOdoInfoIndexERKNS_9MfOdoDataE
E:\zFAS-Jenkins\workspace\zFAS_AIT_Master_AAT\SW\0300_ApplicationLayer\branches\CL3_REL_320_3XX\0350_SWC-SET\CtApMapFusion\02_libs\CtApMapFusion.vxe:8004d660 00000030 T _ZN9mapfusion24MfErrorHandlerInfoHolder17cleanConstantInfoEv
E:\zFAS-Jenkins\workspace\zFAS_AIT_Master_AAT\SW\0300_ApplicationLayer\branches\CL3_REL_320_3XX\0350_SWC-SET\CtApMapFusion\02_libs\CtApMapFusion.vxe:8004d8dc 00000034 T _ZN9mapfusion24MfErrorHandlerInfoHolder17copyStoredOdoInfoENS0_18StoredOdoInfoIndexES1_
E:\zFAS-Jenkins\workspace\zFAS_AIT_Master_AAT\SW\0300_ApplicationLayer\branches\CL3_REL_320_3XX\0350_SWC-SET\CtApMapFusion\02_libs\CtApMapFusion.vxe:8004d818 0000000c T _ZN9mapfusion24MfErrorHandlerInfoHolder17setParamGroupNameENS_17FencesAdapterNameE
E:\zFAS-Jenkins\workspace\zFAS_AIT_Master_AAT\SW\0300_ApplicationLayer\branches\CL3_REL_320_3XX\0350_SWC-SET\CtApMapFusion\02_libs\CtApMapFusion.vxe:8004dcec 00000024 T _ZN9mapfusion24MfErrorHandlerInfoHolder19evaluateInputChecksERhS1_
E:\zFAS-Jenkins\workspace\zFAS_AIT_Master_AAT\SW\0300_ApplicationLayer\branches\CL3_REL_320_3XX\0350_SWC-SET\CtApMapFusion\02_libs\CtApMapFusion.vxe:8004e424 00000018 T _ZN9mapfusion24MfErrorHandlerInfoHolder19importCheckerParamsEv
E:\zFAS-Jenkins\workspace\zFAS_AIT_Master_AAT\SW\0300_ApplicationLayer\branches\CL3_REL_320_3XX\0350_SWC-SET\CtApMapFusion\02_libs\CtApMapFusion.vxe:8004e2bc 00000168 T _ZN9mapfusion24MfErrorHandlerInfoHolder19importPlausibParamsEv
E:\zFAS-Jenkins\workspace\zFAS_AIT_Master_AAT\SW\0300_ApplicationLayer\branches\CL3_REL_320_3XX\0350_SWC-SET\CtApMapFusion\02_libs\CtApMapFusion.vxe:8004dd10 00000034 T _ZN9mapfusion24MfErrorHandlerInfoHolder20evaluateOutputChecksEv
E:\zFAS-Jenkins\workspace\zFAS_AIT_Master_AAT\SW\0300_ApplicationLayer\branches\CL3_REL_320_3XX\0350_SWC-SET\CtApMapFusion\02_libs\CtApMapFusion.vxe:8004e104 000000d8 T _ZN9mapfusion24MfErrorHandlerInfoHolder20importInt32ParameterEhPKcRi
E:\zFAS-Jenkins\workspace\zFAS_AIT_Master_AAT\SW\0300_ApplicationLayer\branches\CL3_REL_320_3XX\0350_SWC-SET\CtApMapFusion\02_libs\CtApMapFusion.vxe:8004d7b4 00000008 T _ZN9mapfusion24MfErrorHandlerInfoHolder21setSqrDiagonalMapSizeEf
E:\zFAS-Jenkins\workspace\zFAS_AIT_Master_AAT\SW\0300_ApplicationLayer\branches\CL3_REL_320_3XX\0350_SWC-SET\CtApMapFusion\02_libs\CtApMapFusion.vxe:8004dd44 00000034 T _ZN9mapfusion24MfErrorHandlerInfoHolder22evaluateInternalChecksEv
E:\zFAS-Jenkins\workspace\zFAS_AIT_Master_AAT\SW\0300_ApplicationLayer\branches\CL3_REL_320_3XX\0350_SWC-SET\CtApMapFusion\02_libs\CtApMapFusion.vxe:8004e1dc 000000e0 T _ZN9mapfusion24MfErrorHandlerInfoHolder22importFloat32ParameterEhPKcRf
E:\zFAS-Jenkins\workspace\zFAS_AIT_Master_AAT\SW\0300_ApplicationLayer\branches\CL3_REL_320_3XX\0350_SWC-SET\CtApMapFusion\02_libs\CtApMapFusion.vxe:8004dbf0 000000fc T _ZN9mapfusion24MfErrorHandlerInfoHolder24evaluateNotifiableErrorsEjjRhS1_
E:\zFAS-Jenkins\workspace\zFAS_AIT_Master_AAT\SW\0300_ApplicationLayer\branches\CL3_REL_320_3XX\0350_SWC-SET\CtApMapFusion\02_libs\CtApMapFusion.vxe:8004dd78 0000005c T _ZN9mapfusion24MfErrorHandlerInfoHolder26configureSensorsByScheduleERKN14audifusionbase13TVectorStaticIPNS_13ScheduleEntryELj39EEE
E:\zFAS-Jenkins\workspace\zFAS_AIT_Master_AAT\SW\0300_ApplicationLayer\branches\CL3_REL_320_3XX\0350_SWC-SET\CtApMapFusion\02_libs\CtApMapFusion.vxe:8004dbc4 0000002c T _ZN9mapfusion24MfErrorHandlerInfoHolder27setIfNotifiableErrorOccuredENS_11PacketStateENS_17FencesAdapterNameEh
E:\zFAS-Jenkins\workspace\zFAS_AIT_Master_AAT\SW\0300_ApplicationLayer\branches\CL3_REL_320_3XX\0350_SWC-SET\CtApMapFusion\02_libs\CtApMapFusion.vxe:8004d690 00000124 T _ZN9mapfusion24MfErrorHandlerInfoHolder4initEv
E:\zFAS-Jenkins\workspace\zFAS_AIT_Master_AAT\SW\0300_ApplicationLayer\branches\CL3_REL_320_3XX\0350_SWC-SET\CtApMapFusion\02_libs\CtApMapFusion.vxe:8004db00 000000c4 T _ZN9mapfusion24MfErrorHandlerInfoHolder5resetEv
E:\zFAS-Jenkins\workspace\zFAS_AIT_Master_AAT\SW\0300_ApplicationLayer\branches\CL3_REL_320_3XX\0350_SWC-SET\CtApMapFusion\02_libs\CtApMapFusion.vxe:8004d4f8 00000110 T _ZN9mapfusion24MfErrorHandlerInfoHolderC1Ev
E:\zFAS-Jenkins\workspace\zFAS_AIT_Master_AAT\SW\0300_ApplicationLayer\branches\CL3_REL_320_3XX\0350_SWC-SET\CtApMapFusion\02_libs\CtApMapFusion.vxe:8004d4f8 00000110 T _ZN9mapfusion24MfErrorHandlerInfoHolderC2Ev
E:\zFAS-Jenkins\workspace\zFAS_AIT_Master_AAT\SW\0300_ApplicationLayer\branches\CL3_REL_320_3XX\0350_SWC-SET\CtApMapFusion\02_libs\CtApMapFusion.vxe:82d76d44 00000200 B _ZN9mapfusion24normal_cdf_lut_singleton3lutE
E:\zFAS-Jenkins\workspace\zFAS_AIT_Master_AAT\SW\0300_ApplicationLayer\branches\CL3_REL_320_3XX\0350_SWC-SET\CtApMapFusion\02_libs\CtApMapFusion.vxe:8026b390 0000002c T _ZN9mapfusion25checkAngleFreespace8CellsERKNS_16CheckAngleParamsEjjjRA8_h
E:\zFAS-Jenkins\workspace\zFAS_AIT_Master_AAT\SW\0300_ApplicationLayer\branches\CL3_REL_320_3XX\0350_SWC-SET\CtApMapFusion\02_libs\CtApMapFusion.vxe:8026b3bc 00000164 T _ZN9mapfusion25convertAngleGrad2RadFixedEf
E:\zFAS-Jenkins\workspace\zFAS_AIT_Master_AAT\SW\0300_ApplicationLayer\branches\CL3_REL_320_3XX\0350_SWC-SET\CtApMapFusion\02_libs\CtApMapFusion.vxe:8027c1e8 0000002c T _ZN9mapfusion25StageOneWeightedDSMTFixed19evalWeightedBBANEONERK18__simd128_uint16_thR16__simd64_uint8_tRS1_
E:\zFAS-Jenkins\workspace\zFAS_AIT_Master_AAT\SW\0300_ApplicationLayer\branches\CL3_REL_320_3XX\0350_SWC-SET\CtApMapFusion\02_libs\CtApMapFusion.vxe:80053978 000008c8 W _ZN9mapfusion25StageOneWeightedDSMTFixed4initEPKc
E:\zFAS-Jenkins\workspace\zFAS_AIT_Master_AAT\SW\0300_ApplicationLayer\branches\CL3_REL_320_3XX\0350_SWC-SET\CtApMapFusion\02_libs\CtApMapFusion.vxe:8027cee4 0000003c T _ZN9mapfusion26StageThreeConfidenceMerger11handlingCarERKNS_4stg39TmpVertexERKNS1_13RuntimeParamsERhS8_S8_
E:\zFAS-Jenkins\workspace\zFAS_AIT_Master_AAT\SW\0300_ApplicationLayer\branches\CL3_REL_320_3XX\0350_SWC-SET\CtApMapFusion\02_libs\CtApMapFusion.vxe:8027ce6c 00000078 T _ZN9mapfusion26StageThreeConfidenceMerger12handlingCurbERKNS_4stg39TmpVertexERKNS1_13RuntimeParamsERhS8_S8_S8_Rb
E:\zFAS-Jenkins\workspace\zFAS_AIT_Master_AAT\SW\0300_ApplicationLayer\branches\CL3_REL_320_3XX\0350_SWC-SET\CtApMapFusion\02_libs\CtApMapFusion.vxe:8027cf20 00000038 T _ZN9mapfusion26StageThreeConfidenceMerger12mergeToFirstERhS1_S1_
E:\zFAS-Jenkins\workspace\zFAS_AIT_Master_AAT\SW\0300_ApplicationLayer\branches\CL3_REL_320_3XX\0350_SWC-SET\CtApMapFusion\02_libs\CtApMapFusion.vxe:8027cd3c 00000130 T _ZN9mapfusion26StageThreeConfidenceMerger23handleConfidenceMergingERKNS_4stg39TmpVertexERKNS1_13RuntimeParamsERhS8_S8_S8_S8_Rb
E:\zFAS-Jenkins\workspace\zFAS_AIT_Master_AAT\SW\0300_ApplicationLayer\branches\CL3_REL_320_3XX\0350_SWC-SET\CtApMapFusion\02_libs\CtApMapFusion.vxe:802bb970 00000104 T _ZN9mapfusion26timeServerGetRemainingTimeERi
E:\zFAS-Jenkins\workspace\zFAS_AIT_Master_AAT\SW\0300_ApplicationLayer\branches\CL3_REL_320_3XX\0350_SWC-SET\CtApMapFusion\02_libs\CtApMapFusion.vxe:8026b2a4 000000ec T _ZN9mapfusion29checkAngleFreespace8CellsNEONERKNS_16CheckAngleParamsEjjjRA8_h
E:\zFAS-Jenkins\workspace\zFAS_AIT_Master_AAT\SW\0300_ApplicationLayer\branches\CL3_REL_320_3XX\0350_SWC-SET\CtApMapFusion\02_libs\CtApMapFusion.vxe:82d76cb4 00000008 B _ZN9mapfusion31lut_obstacle_typemask_to_wctypeE
E:\zFAS-Jenkins\workspace\zFAS_AIT_Master_AAT\SW\0300_ApplicationLayer\branches\CL3_REL_320_3XX\0350_SWC-SET\CtApMapFusion\02_libs\CtApMapFusion.vxe:8026b528 0000016c T _ZN9mapfusion32convertAngleFloatToUnsignedInt16Ef
E:\zFAS-Jenkins\workspace\zFAS_AIT_Master_AAT\SW\0300_ApplicationLayer\branches\CL3_REL_320_3XX\0350_SWC-SET\CtApMapFusion\02_libs\CtApMapFusion.vxe:80266b78 00000060 W _ZN9mapfusion3fns21tryToReadReaderParamsIfLj5ELj4EEENS_10ResultTypeERAT0__AT1__T_PKcS8_S8_
E:\zFAS-Jenkins\workspace\zFAS_AIT_Master_AAT\SW\0300_ApplicationLayer\branches\CL3_REL_320_3XX\0350_SWC-SET\CtApMapFusion\02_libs\CtApMapFusion.vxe:80265d6c 00000060 W _ZN9mapfusion3fns21tryToReadReaderParamsIhLj4ELj4EEENS_10ResultTypeERAT0__AT1__T_PKcS8_S8_
E:\zFAS-Jenkins\workspace\zFAS_AIT_Master_AAT\SW\0300_ApplicationLayer\branches\CL3_REL_320_3XX\0350_SWC-SET\CtApMapFusion\02_libs\CtApMapFusion.vxe:80266bd8 00000060 W _ZN9mapfusion3fns21tryToReadReaderParamsIhLj5ELj4EEENS_10ResultTypeERAT0__AT1__T_PKcS8_S8_
E:\zFAS-Jenkins\workspace\zFAS_AIT_Master_AAT\SW\0300_ApplicationLayer\branches\CL3_REL_320_3XX\0350_SWC-SET\CtApMapFusion\02_libs\CtApMapFusion.vxe:802657b4 000002e0 W _ZN9mapfusion3fns23tryToReadReaderParamVecIfLj4EEENS_10ResultTypeERAT0__T_PKcS7_S7_j
E:\zFAS-Jenkins\workspace\zFAS_AIT_Master_AAT\SW\0300_ApplicationLayer\branches\CL3_REL_320_3XX\0350_SWC-SET\CtApMapFusion\02_libs\CtApMapFusion.vxe:80265a94 000002d8 W _ZN9mapfusion3fns23tryToReadReaderParamVecIhLj4EEENS_10ResultTypeERAT0__T_PKcS7_S7_j
E:\zFAS-Jenkins\workspace\zFAS_AIT_Master_AAT\SW\0300_ApplicationLayer\branches\CL3_REL_320_3XX\0350_SWC-SET\CtApMapFusion\02_libs\CtApMapFusion.vxe:802654fc 000002b8 W _ZN9mapfusion3fns23tryToReadReaderParamVecIhLj6EEENS_10ResultTypeERAT0__T_PKcS7_S7_j
E:\zFAS-Jenkins\workspace\zFAS_AIT_Master_AAT\SW\0300_ApplicationLayer\branches\CL3_REL_320_3XX\0350_SWC-SET\CtApMapFusion\02_libs\CtApMapFusion.vxe:80254de8 00000148 W _ZN9mapfusion5BlockILNS_11UpdateLogicE0ELj0ENS_12GlobalConfigILj4ELj6ELj2ELj2EEENS_9BaseBlockEE11rescaleDownILb1EEEvRNS4_IS3_EEjj
E:\zFAS-Jenkins\workspace\zFAS_AIT_Master_AAT\SW\0300_ApplicationLayer\branches\CL3_REL_320_3XX\0350_SWC-SET\CtApMapFusion\02_libs\CtApMapFusion.vxe:802550b8 00000114 W _ZN9mapfusion5BlockILNS_11UpdateLogicE0ELj0ENS_12GlobalConfigILj4ELj6ELj2ELj2EEENS_9BaseBlockEE12rescaleEqualILb1EEEvRNS4_IS3_EEj
E:\zFAS-Jenkins\workspace\zFAS_AIT_Master_AAT\SW\0300_ApplicationLayer\branches\CL3_REL_320_3XX\0350_SWC-SET\CtApMapFusion\02_libs\CtApMapFusion.vxe:80052e68 0000076c W _ZN9mapfusion5BlockILNS_11UpdateLogicE0ELj0ENS_12GlobalConfigILj4ELj6ELj2ELj2EEENS_9BaseBlockEE15extractStageOneEtththjhRjS6_
E:\zFAS-Jenkins\workspace\zFAS_AIT_Master_AAT\SW\0300_ApplicationLayer\branches\CL3_REL_320_3XX\0350_SWC-SET\CtApMapFusion\02_libs\CtApMapFusion.vxe:80255d34 00000384 W _ZN9mapfusion5BlockILNS_11UpdateLogicE0ELj0ENS_12GlobalConfigILj4ELj6ELj2ELj2EEENS_9BaseBlockEE19setDefaultLayerDataEv
E:\zFAS-Jenkins\workspace\zFAS_AIT_Master_AAT\SW\0300_ApplicationLayer\branches\CL3_REL_320_3XX\0350_SWC-SET\CtApMapFusion\02_libs\CtApMapFusion.vxe:80051748 000000dc W _ZN9mapfusion5BlockILNS_11UpdateLogicE0ELj0ENS_12GlobalConfigILj4ELj6ELj2ELj2EEENS_9BaseBlockEE20stageOneBuildPyramidEv
E:\zFAS-Jenkins\workspace\zFAS_AIT_Master_AAT\SW\0300_ApplicationLayer\branches\CL3_REL_320_3XX\0350_SWC-SET\CtApMapFusion\02_libs\CtApMapFusion.vxe:802551cc 0000005c W _ZN9mapfusion5BlockILNS_11UpdateLogicE0ELj0ENS_12GlobalConfigILj4ELj6ELj2ELj2EEENS_9BaseBlockEE7rescaleERNS4_IS3_EE
E:\zFAS-Jenkins\workspace\zFAS_AIT_Master_AAT\SW\0300_ApplicationLayer\branches\CL3_REL_320_3XX\0350_SWC-SET\CtApMapFusion\02_libs\CtApMapFusion.vxe:80254f30 00000188 W _ZN9mapfusion5BlockILNS_11UpdateLogicE0ELj0ENS_12GlobalConfigILj4ELj6ELj2ELj2EEENS_9BaseBlockEE9rescaleUpILb1EEEvRNS4_IS3_EEjj
E:\zFAS-Jenkins\workspace\zFAS_AIT_Master_AAT\SW\0300_ApplicationLayer\branches\CL3_REL_320_3XX\0350_SWC-SET\CtApMapFusion\02_libs\CtApMapFusion.vxe:80051484 00000030 W _ZN9mapfusion5BlockILNS_11UpdateLogicE0ELj0ENS_12GlobalConfigILj4ELj6ELj2ELj2EEENS_9BaseBlockEED0Ev
E:\zFAS-Jenkins\workspace\zFAS_AIT_Master_AAT\SW\0300_ApplicationLayer\branches\CL3_REL_320_3XX\0350_SWC-SET\CtApMapFusion\02_libs\CtApMapFusion.vxe:80051358 00000020 W _ZN9mapfusion5BlockILNS_11UpdateLogicE0ELj0ENS_12GlobalConfigILj4ELj6ELj2ELj2EEENS_9BaseBlockEED1Ev
E:\zFAS-Jenkins\workspace\zFAS_AIT_Master_AAT\SW\0300_ApplicationLayer\branches\CL3_REL_320_3XX\0350_SWC-SET\CtApMapFusion\02_libs\CtApMapFusion.vxe:802549a8 00000148 W _ZN9mapfusion5BlockILNS_11UpdateLogicE0ELj1ENS_12GlobalConfigILj4ELj6ELj2ELj2EEENS_9BaseBlockEE11rescaleDownILb1EEEvRNS4_IS3_EEjj
E:\zFAS-Jenkins\workspace\zFAS_AIT_Master_AAT\SW\0300_ApplicationLayer\branches\CL3_REL_320_3XX\0350_SWC-SET\CtApMapFusion\02_libs\CtApMapFusion.vxe:80254c78 00000114 W _ZN9mapfusion5BlockILNS_11UpdateLogicE0ELj1ENS_12GlobalConfigILj4ELj6ELj2ELj2EEENS_9BaseBlockEE12rescaleEqualILb1EEEvRNS4_IS3_EEj
E:\zFAS-Jenkins\workspace\zFAS_AIT_Master_AAT\SW\0300_ApplicationLayer\branches\CL3_REL_320_3XX\0350_SWC-SET\CtApMapFusion\02_libs\CtApMapFusion.vxe:800526fc 0000076c W _ZN9mapfusion5BlockILNS_11UpdateLogicE0ELj1ENS_12GlobalConfigILj4ELj6ELj2ELj2EEENS_9BaseBlockEE15extractStageOneEtththjhRjS6_
E:\zFAS-Jenkins\workspace\zFAS_AIT_Master_AAT\SW\0300_ApplicationLayer\branches\CL3_REL_320_3XX\0350_SWC-SET\CtApMapFusion\02_libs\CtApMapFusion.vxe:802559e4 00000350 W _ZN9mapfusion5BlockILNS_11UpdateLogicE0ELj1ENS_12GlobalConfigILj4ELj6ELj2ELj2EEENS_9BaseBlockEE19setDefaultLayerDataEv
E:\zFAS-Jenkins\workspace\zFAS_AIT_Master_AAT\SW\0300_ApplicationLayer\branches\CL3_REL_320_3XX\0350_SWC-SET\CtApMapFusion\02_libs\CtApMapFusion.vxe:8005166c 000000dc W _ZN9mapfusion5BlockILNS_11UpdateLogicE0ELj1ENS_12GlobalConfigILj4ELj6ELj2ELj2EEENS_9BaseBlockEE20stageOneBuildPyramidEv
E:\zFAS-Jenkins\workspace\zFAS_AIT_Master_AAT\SW\0300_ApplicationLayer\branches\CL3_REL_320_3XX\0350_SWC-SET\CtApMapFusion\02_libs\CtApMapFusion.vxe:80254d8c 0000005c W _ZN9mapfusion5BlockILNS_11UpdateLogicE0ELj1ENS_12GlobalConfigILj4ELj6ELj2ELj2EEENS_9BaseBlockEE7rescaleERNS4_IS3_EE
E:\zFAS-Jenkins\workspace\zFAS_AIT_Master_AAT\SW\0300_ApplicationLayer\branches\CL3_REL_320_3XX\0350_SWC-SET\CtApMapFusion\02_libs\CtApMapFusion.vxe:80254af0 00000188 W _ZN9mapfusion5BlockILNS_11UpdateLogicE0ELj1ENS_12GlobalConfigILj4ELj6ELj2ELj2EEENS_9BaseBlockEE9rescaleUpILb1EEEvRNS4_IS3_EEjj
E:\zFAS-Jenkins\workspace\zFAS_AIT_Master_AAT\SW\0300_ApplicationLayer\branches\CL3_REL_320_3XX\0350_SWC-SET\CtApMapFusion\02_libs\CtApMapFusion.vxe:80051454 00000030 W _ZN9mapfusion5BlockILNS_11UpdateLogicE0ELj1ENS_12GlobalConfigILj4ELj6ELj2ELj2EEENS_9BaseBlockEED0Ev
E:\zFAS-Jenkins\workspace\zFAS_AIT_Master_AAT\SW\0300_ApplicationLayer\branches\CL3_REL_320_3XX\0350_SWC-SET\CtApMapFusion\02_libs\CtApMapFusion.vxe:8005132c 00000020 W _ZN9mapfusion5BlockILNS_11UpdateLogicE0ELj1ENS_12GlobalConfigILj4ELj6ELj2ELj2EEENS_9BaseBlockEED1Ev
E:\zFAS-Jenkins\workspace\zFAS_AIT_Master_AAT\SW\0300_ApplicationLayer\branches\CL3_REL_320_3XX\0350_SWC-SET\CtApMapFusion\02_libs\CtApMapFusion.vxe:80254568 00000148 W _ZN9mapfusion5BlockILNS_11UpdateLogicE0ELj2ENS_12GlobalConfigILj4ELj6ELj2ELj2EEENS_9BaseBlockEE11rescaleDownILb1EEEvRNS4_IS3_EEjj
E:\zFAS-Jenkins\workspace\zFAS_AIT_Master_AAT\SW\0300_ApplicationLayer\branches\CL3_REL_320_3XX\0350_SWC-SET\CtApMapFusion\02_libs\CtApMapFusion.vxe:80254838 00000114 W _ZN9mapfusion5BlockILNS_11UpdateLogicE0ELj2ENS_12GlobalConfigILj4ELj6ELj2ELj2EEENS_9BaseBlockEE12rescaleEqualILb1EEEvRNS4_IS3_EEj
E:\zFAS-Jenkins\workspace\zFAS_AIT_Master_AAT\SW\0300_ApplicationLayer\branches\CL3_REL_320_3XX\0350_SWC-SET\CtApMapFusion\02_libs\CtApMapFusion.vxe:80051f90 0000076c W _ZN9mapfusion5BlockILNS_11UpdateLogicE0ELj2ENS_12GlobalConfigILj4ELj6ELj2ELj2EEENS_9BaseBlockEE15extractStageOneEtththjhRjS6_
E:\zFAS-Jenkins\workspace\zFAS_AIT_Master_AAT\SW\0300_ApplicationLayer\branches\CL3_REL_320_3XX\0350_SWC-SET\CtApMapFusion\02_libs\CtApMapFusion.vxe:80255694 00000350 W _ZN9mapfusion5BlockILNS_11UpdateLogicE0ELj2ENS_12GlobalConfigILj4ELj6ELj2ELj2EEENS_9BaseBlockEE19setDefaultLayerDataEv
E:\zFAS-Jenkins\workspace\zFAS_AIT_Master_AAT\SW\0300_ApplicationLayer\branches\CL3_REL_320_3XX\0350_SWC-SET\CtApMapFusion\02_libs\CtApMapFusion.vxe:80051590 000000dc W _ZN9mapfusion5BlockILNS_11UpdateLogicE0ELj2ENS_12GlobalConfigILj4ELj6ELj2ELj2EEENS_9BaseBlockEE20stageOneBuildPyramidEv
E:\zFAS-Jenkins\workspace\zFAS_AIT_Master_AAT\SW\0300_ApplicationLayer\branches\CL3_REL_320_3XX\0350_SWC-SET\CtApMapFusion\02_libs\CtApMapFusion.vxe:8025494c 0000005c W _ZN9mapfusion5BlockILNS_11UpdateLogicE0ELj2ENS_12GlobalConfigILj4ELj6ELj2ELj2EEENS_9BaseBlockEE7rescaleERNS4_IS3_EE
E:\zFAS-Jenkins\workspace\zFAS_AIT_Master_AAT\SW\0300_ApplicationLayer\branches\CL3_REL_320_3XX\0350_SWC-SET\CtApMapFusion\02_libs\CtApMapFusion.vxe:802546b0 00000188 W _ZN9mapfusion5BlockILNS_11UpdateLogicE0ELj2ENS_12GlobalConfigILj4ELj6ELj2ELj2EEENS_9BaseBlockEE9rescaleUpILb1EEEvRNS4_IS3_EEjj
E:\zFAS-Jenkins\workspace\zFAS_AIT_Master_AAT\SW\0300_ApplicationLayer\branches\CL3_REL_320_3XX\0350_SWC-SET\CtApMapFusion\02_libs\CtApMapFusion.vxe:80051424 00000030 W _ZN9mapfusion5BlockILNS_11UpdateLogicE0ELj2ENS_12GlobalConfigILj4ELj6ELj2ELj2EEENS_9BaseBlockEED0Ev
E:\zFAS-Jenkins\workspace\zFAS_AIT_Master_AAT\SW\0300_ApplicationLayer\branches\CL3_REL_320_3XX\0350_SWC-SET\CtApMapFusion\02_libs\CtApMapFusion.vxe:80051300 00000020 W _ZN9mapfusion5BlockILNS_11UpdateLogicE0ELj2ENS_12GlobalConfigILj4ELj6ELj2ELj2EEENS_9BaseBlockEED1Ev
E:\zFAS-Jenkins\workspace\zFAS_AIT_Master_AAT\SW\0300_ApplicationLayer\branches\CL3_REL_320_3XX\0350_SWC-SET\CtApMapFusion\02_libs\CtApMapFusion.vxe:80254128 00000148 W _ZN9mapfusion5BlockILNS_11UpdateLogicE0ELj3ENS_12GlobalConfigILj4ELj6ELj2ELj2EEENS_9BaseBlockEE11rescaleDownILb1EEEvRNS4_IS3_EEjj
E:\zFAS-Jenkins\workspace\zFAS_AIT_Master_AAT\SW\0300_ApplicationLayer\branches\CL3_REL_320_3XX\0350_SWC-SET\CtApMapFusion\02_libs\CtApMapFusion.vxe:802543f8 00000114 W _ZN9mapfusion5BlockILNS_11UpdateLogicE0ELj3ENS_12GlobalConfigILj4ELj6ELj2ELj2EEENS_9BaseBlockEE12rescaleEqualILb1EEEvRNS4_IS3_EEj
E:\zFAS-Jenkins\workspace\zFAS_AIT_Master_AAT\SW\0300_ApplicationLayer\branches\CL3_REL_320_3XX\0350_SWC-SET\CtApMapFusion\02_libs\CtApMapFusion.vxe:80051824 0000076c W _ZN9mapfusion5BlockILNS_11UpdateLogicE0ELj3ENS_12GlobalConfigILj4ELj6ELj2ELj2EEENS_9BaseBlockEE15extractStageOneEtththjhRjS6_
E:\zFAS-Jenkins\workspace\zFAS_AIT_Master_AAT\SW\0300_ApplicationLayer\branches\CL3_REL_320_3XX\0350_SWC-SET\CtApMapFusion\02_libs\CtApMapFusion.vxe:80255360 00000334 W _ZN9mapfusion5BlockILNS_11UpdateLogicE0ELj3ENS_12GlobalConfigILj4ELj6ELj2ELj2EEENS_9BaseBlockEE19setDefaultLayerDataEv
E:\zFAS-Jenkins\workspace\zFAS_AIT_Master_AAT\SW\0300_ApplicationLayer\branches\CL3_REL_320_3XX\0350_SWC-SET\CtApMapFusion\02_libs\CtApMapFusion.vxe:800514b4 000000dc W _ZN9mapfusion5BlockILNS_11UpdateLogicE0ELj3ENS_12GlobalConfigILj4ELj6ELj2ELj2EEENS_9BaseBlockEE20stageOneBuildPyramidEv
E:\zFAS-Jenkins\workspace\zFAS_AIT_Master_AAT\SW\0300_ApplicationLayer\branches\CL3_REL_320_3XX\0350_SWC-SET\CtApMapFusion\02_libs\CtApMapFusion.vxe:8025450c 0000005c W _ZN9mapfusion5BlockILNS_11UpdateLogicE0ELj3ENS_12GlobalConfigILj4ELj6ELj2ELj2EEENS_9BaseBlockEE7rescaleERNS4_IS3_EE
E:\zFAS-Jenkins\workspace\zFAS_AIT_Master_AAT\SW\0300_ApplicationLayer\branches\CL3_REL_320_3XX\0350_SWC-SET\CtApMapFusion\02_libs\CtApMapFusion.vxe:80254270 00000188 W _ZN9mapfusion5BlockILNS_11UpdateLogicE0ELj3ENS_12GlobalConfigILj4ELj6ELj2ELj2EEENS_9BaseBlockEE9rescaleUpILb1EEEvRNS4_IS3_EEjj
E:\zFAS-Jenkins\workspace\zFAS_AIT_Master_AAT\SW\0300_ApplicationLayer\branches\CL3_REL_320_3XX\0350_SWC-SET\CtApMapFusion\02_libs\CtApMapFusion.vxe:800513f4 00000030 W _ZN9mapfusion5BlockILNS_11UpdateLogicE0ELj3ENS_12GlobalConfigILj4ELj6ELj2ELj2EEENS_9BaseBlockEED0Ev
E:\zFAS-Jenkins\workspace\zFAS_AIT_Master_AAT\SW\0300_ApplicationLayer\branches\CL3_REL_320_3XX\0350_SWC-SET\CtApMapFusion\02_libs\CtApMapFusion.vxe:800512d4 00000020 W _ZN9mapfusion5BlockILNS_11UpdateLogicE0ELj3ENS_12GlobalConfigILj4ELj6ELj2ELj2EEENS_9BaseBlockEED1Ev
E:\zFAS-Jenkins\workspace\zFAS_AIT_Master_AAT\SW\0300_ApplicationLayer\branches\CL3_REL_320_3XX\0350_SWC-SET\CtApMapFusion\02_libs\CtApMapFusion.vxe:8001f12c 00000058 W _ZN9mapfusion6FCacheIN9fencesapi10IFencesApiI19_Dt_RECORD_MVFences20_Dt_RECORD_MVContour19_Dt_RECORD_MVVertexLj100ELj100ELj3ELj13ENS1_28MvFencesApiAdditionalMembersEjjE6CountsEE5resetEv
E:\zFAS-Jenkins\workspace\zFAS_AIT_Master_AAT\SW\0300_ApplicationLayer\branches\CL3_REL_320_3XX\0350_SWC-SET\CtApMapFusion\02_libs\CtApMapFusion.vxe:8001c8a4 00000034 W _ZN9mapfusion6FCacheIN9fencesapi10IFencesApiI19_Dt_RECORD_MVFences20_Dt_RECORD_MVContour19_Dt_RECORD_MVVertexLj100ELj100ELj3ELj13ENS1_28MvFencesApiAdditionalMembersEjjE6CountsEE8getFDataEv
E:\zFAS-Jenkins\workspace\zFAS_AIT_Master_AAT\SW\0300_ApplicationLayer\branches\CL3_REL_320_3XX\0350_SWC-SET\CtApMapFusion\02_libs\CtApMapFusion.vxe:8001c88c 00000018 W _ZN9mapfusion6FCacheIN9fencesapi10IFencesApiI19_Dt_RECORD_MVFences20_Dt_RECORD_MVContour19_Dt_RECORD_MVVertexLj100ELj100ELj3ELj13ENS1_28MvFencesApiAdditionalMembersEjjE6CountsEE8getODataEv
E:\zFAS-Jenkins\workspace\zFAS_AIT_Master_AAT\SW\0300_ApplicationLayer\branches\CL3_REL_320_3XX\0350_SWC-SET\CtApMapFusion\02_libs\CtApMapFusion.vxe:8001eb44 00000020 W _ZN9mapfusion6FCacheIN9fencesapi10IFencesApiI19_Dt_RECORD_MVFences20_Dt_RECORD_MVContour19_Dt_RECORD_MVVertexLj100ELj100ELj3ELj13ENS1_28MvFencesApiAdditionalMembersEjjE6CountsEED0Ev
E:\zFAS-Jenkins\workspace\zFAS_AIT_Master_AAT\SW\0300_ApplicationLayer\branches\CL3_REL_320_3XX\0350_SWC-SET\CtApMapFusion\02_libs\CtApMapFusion.vxe:8001b388 00000010 W _ZN9mapfusion6FCacheIN9fencesapi10IFencesApiI19_Dt_RECORD_MVFences20_Dt_RECORD_MVContour19_Dt_RECORD_MVVertexLj100ELj100ELj3ELj13ENS1_28MvFencesApiAdditionalMembersEjjE6CountsEED1Ev
E:\zFAS-Jenkins\workspace\zFAS_AIT_Master_AAT\SW\0300_ApplicationLayer\branches\CL3_REL_320_3XX\0350_SWC-SET\CtApMapFusion\02_libs\CtApMapFusion.vxe:8001f230 00000054 W _ZN9mapfusion6FCacheIN9fencesapi10IFencesApiI28_Dt_RECORD_LSFreespaceFences29_Dt_RECORD_LSFreespaceContour28_Dt_RECORD_LSFreespaceVertexLj64ELj350ELj1ELj1EjNS1_34ZfasLsFreespaceContourApiAddMemberEjE6CountsEE5resetEv
E:\zFAS-Jenkins\workspace\zFAS_AIT_Master_AAT\SW\0300_ApplicationLayer\branches\CL3_REL_320_3XX\0350_SWC-SET\CtApMapFusion\02_libs\CtApMapFusion.vxe:8001c7c8 0000002c W _ZN9mapfusion6FCacheIN9fencesapi10IFencesApiI28_Dt_RECORD_LSFreespaceFences29_Dt_RECORD_LSFreespaceContour28_Dt_RECORD_LSFreespaceVertexLj64ELj350ELj1ELj1EjNS1_34ZfasLsFreespaceContourApiAddMemberEjE6CountsEE8getFDataEv
E:\zFAS-Jenkins\workspace\zFAS_AIT_Master_AAT\SW\0300_ApplicationLayer\branches\CL3_REL_320_3XX\0350_SWC-SET\CtApMapFusion\02_libs\CtApMapFusion.vxe:8001c7b0 00000018 W _ZN9mapfusion6FCacheIN9fencesapi10IFencesApiI28_Dt_RECORD_LSFreespaceFences29_Dt_RECORD_LSFreespaceContour28_Dt_RECORD_LSFreespaceVertexLj64ELj350ELj1ELj1EjNS1_34ZfasLsFreespaceContourApiAddMemberEjE6CountsEE8getODataEv
E:\zFAS-Jenkins\workspace\zFAS_AIT_Master_AAT\SW\0300_ApplicationLayer\branches\CL3_REL_320_3XX\0350_SWC-SET\CtApMapFusion\02_libs\CtApMapFusion.vxe:8001eba4 00000020 W _ZN9mapfusion6FCacheIN9fencesapi10IFencesApiI28_Dt_RECORD_LSFreespaceFences29_Dt_RECORD_LSFreespaceContour28_Dt_RECORD_LSFreespaceVertexLj64ELj350ELj1ELj1EjNS1_34ZfasLsFreespaceContourApiAddMemberEjE6CountsEED0Ev
E:\zFAS-Jenkins\workspace\zFAS_AIT_Master_AAT\SW\0300_ApplicationLayer\branches\CL3_REL_320_3XX\0350_SWC-SET\CtApMapFusion\02_libs\CtApMapFusion.vxe:8001b3b8 00000010 W _ZN9mapfusion6FCacheIN9fencesapi10IFencesApiI28_Dt_RECORD_LSFreespaceFences29_Dt_RECORD_LSFreespaceContour28_Dt_RECORD_LSFreespaceVertexLj64ELj350ELj1ELj1EjNS1_34ZfasLsFreespaceContourApiAddMemberEjE6CountsEED1Ev
E:\zFAS-Jenkins\workspace\zFAS_AIT_Master_AAT\SW\0300_ApplicationLayer\branches\CL3_REL_320_3XX\0350_SWC-SET\CtApMapFusion\02_libs\CtApMapFusion.vxe:8001f384 00000054 W _ZN9mapfusion6FCacheIN9fencesapi10IFencesApiI28_Dt_RECORD_USFreespaceFences29_Dt_RECORD_USFreespaceContour28_Dt_RECORD_USFreespaceVertexLj48ELj192ELj1ELj1EjjjE6CountsEE5resetEv
E:\zFAS-Jenkins\workspace\zFAS_AIT_Master_AAT\SW\0300_ApplicationLayer\branches\CL3_REL_320_3XX\0350_SWC-SET\CtApMapFusion\02_libs\CtApMapFusion.vxe:8001c6a0 0000002c W _ZN9mapfusion6FCacheIN9fencesapi10IFencesApiI28_Dt_RECORD_USFreespaceFences29_Dt_RECORD_USFreespaceContour28_Dt_RECORD_USFreespaceVertexLj48ELj192ELj1ELj1EjjjE6CountsEE8getFDataEv
E:\zFAS-Jenkins\workspace\zFAS_AIT_Master_AAT\SW\0300_ApplicationLayer\branches\CL3_REL_320_3XX\0350_SWC-SET\CtApMapFusion\02_libs\CtApMapFusion.vxe:8001c688 00000018 W _ZN9mapfusion6FCacheIN9fencesapi10IFencesApiI28_Dt_RECORD_USFreespaceFences29_Dt_RECORD_USFreespaceContour28_Dt_RECORD_USFreespaceVertexLj48ELj192ELj1ELj1EjjjE6CountsEE8getODataEv
E:\zFAS-Jenkins\workspace\zFAS_AIT_Master_AAT\SW\0300_ApplicationLayer\branches\CL3_REL_320_3XX\0350_SWC-SET\CtApMapFusion\02_libs\CtApMapFusion.vxe:8001ec24 00000020 W _ZN9mapfusion6FCacheIN9fencesapi10IFencesApiI28_Dt_RECORD_USFreespaceFences29_Dt_RECORD_USFreespaceContour28_Dt_RECORD_USFreespaceVertexLj48ELj192ELj1ELj1EjjjE6CountsEED0Ev
E:\zFAS-Jenkins\workspace\zFAS_AIT_Master_AAT\SW\0300_ApplicationLayer\branches\CL3_REL_320_3XX\0350_SWC-SET\CtApMapFusion\02_libs\CtApMapFusion.vxe:8001b3f8 00000010 W _ZN9mapfusion6FCacheIN9fencesapi10IFencesApiI28_Dt_RECORD_USFreespaceFences29_Dt_RECORD_USFreespaceContour28_Dt_RECORD_USFreespaceVertexLj48ELj192ELj1ELj1EjjjE6CountsEED1Ev
E:\zFAS-Jenkins\workspace\zFAS_AIT_Master_AAT\SW\0300_ApplicationLayer\branches\CL3_REL_320_3XX\0350_SWC-SET\CtApMapFusion\02_libs\CtApMapFusion.vxe:8001f2d8 00000058 W _ZN9mapfusion6FCacheIN9fencesapi10IFencesApiI30_Dt_RECORD_TVBVFreespaceFences31_Dt_RECORD_TVBVFreespaceContour30_Dt_RECORD_TVBVFreespaceVertexLj128ELj440ELj1ELj1EjjjE6CountsEE5resetEv
E:\zFAS-Jenkins\workspace\zFAS_AIT_Master_AAT\SW\0300_ApplicationLayer\branches\CL3_REL_320_3XX\0350_SWC-SET\CtApMapFusion\02_libs\CtApMapFusion.vxe:8001c730 00000034 W _ZN9mapfusion6FCacheIN9fencesapi10IFencesApiI30_Dt_RECORD_TVBVFreespaceFences31_Dt_RECORD_TVBVFreespaceContour30_Dt_RECORD_TVBVFreespaceVertexLj128ELj440ELj1ELj1EjjjE6CountsEE8getFDataEv
E:\zFAS-Jenkins\workspace\zFAS_AIT_Master_AAT\SW\0300_ApplicationLayer\branches\CL3_REL_320_3XX\0350_SWC-SET\CtApMapFusion\02_libs\CtApMapFusion.vxe:8001c718 00000018 W _ZN9mapfusion6FCacheIN9fencesapi10IFencesApiI30_Dt_RECORD_TVBVFreespaceFences31_Dt_RECORD_TVBVFreespaceContour30_Dt_RECORD_TVBVFreespaceVertexLj128ELj440ELj1ELj1EjjjE6CountsEE8getODataEv
E:\zFAS-Jenkins\workspace\zFAS_AIT_Master_AAT\SW\0300_ApplicationLayer\branches\CL3_REL_320_3XX\0350_SWC-SET\CtApMapFusion\02_libs\CtApMapFusion.vxe:8001ebe4 00000020 W _ZN9mapfusion6FCacheIN9fencesapi10IFencesApiI30_Dt_RECORD_TVBVFreespaceFences31_Dt_RECORD_TVBVFreespaceContour30_Dt_RECORD_TVBVFreespaceVertexLj128ELj440ELj1ELj1EjjjE6CountsEED0Ev
E:\zFAS-Jenkins\workspace\zFAS_AIT_Master_AAT\SW\0300_ApplicationLayer\branches\CL3_REL_320_3XX\0350_SWC-SET\CtApMapFusion\02_libs\CtApMapFusion.vxe:8001b3d8 00000010 W _ZN9mapfusion6FCacheIN9fencesapi10IFencesApiI30_Dt_RECORD_TVBVFreespaceFences31_Dt_RECORD_TVBVFreespaceContour30_Dt_RECORD_TVBVFreespaceVertexLj128ELj440ELj1ELj1EjjjE6CountsEED1Ev
E:\zFAS-Jenkins\workspace\zFAS_AIT_Master_AAT\SW\0300_ApplicationLayer\branches\CL3_REL_320_3XX\0350_SWC-SET\CtApMapFusion\02_libs\CtApMapFusion.vxe:8001f3d8 00000058 W _ZN9mapfusion6FCacheIN9fencesapi10IFencesApiIN15fencesinterface17FencesLightStructENS3_7ContourENS3_6VertexELj250ELj500ELj5ELj31EjjjE6CountsEE5resetEv
E:\zFAS-Jenkins\workspace\zFAS_AIT_Master_AAT\SW\0300_ApplicationLayer\branches\CL3_REL_320_3XX\0350_SWC-SET\CtApMapFusion\02_libs\CtApMapFusion.vxe:8001d560 00000034 W _ZN9mapfusion6FCacheIN9fencesapi10IFencesApiIN15fencesinterface17FencesLightStructENS3_7ContourENS3_6VertexELj250ELj500ELj5ELj31EjjjE6CountsEE8getFDataEv
E:\zFAS-Jenkins\workspace\zFAS_AIT_Master_AAT\SW\0300_ApplicationLayer\branches\CL3_REL_320_3XX\0350_SWC-SET\CtApMapFusion\02_libs\CtApMapFusion.vxe:8001d548 00000018 W _ZN9mapfusion6FCacheIN9fencesapi10IFencesApiIN15fencesinterface17FencesLightStructENS3_7ContourENS3_6VertexELj250ELj500ELj5ELj31EjjjE6CountsEE8getODataEv
E:\zFAS-Jenkins\workspace\zFAS_AIT_Master_AAT\SW\0300_ApplicationLayer\branches\CL3_REL_320_3XX\0350_SWC-SET\CtApMapFusion\02_libs\CtApMapFusion.vxe:8001ec44 00000020 W _ZN9mapfusion6FCacheIN9fencesapi10IFencesApiIN15fencesinterface17FencesLightStructENS3_7ContourENS3_6VertexELj250ELj500ELj5ELj31EjjjE6CountsEED0Ev
E:\zFAS-Jenkins\workspace\zFAS_AIT_Master_AAT\SW\0300_ApplicationLayer\branches\CL3_REL_320_3XX\0350_SWC-SET\CtApMapFusion\02_libs\CtApMapFusion.vxe:8001b408 00000010 W _ZN9mapfusion6FCacheIN9fencesapi10IFencesApiIN15fencesinterface17FencesLightStructENS3_7ContourENS3_6VertexELj250ELj500ELj5ELj31EjjjE6CountsEED1Ev
E:\zFAS-Jenkins\workspace\zFAS_AIT_Master_AAT\SW\0300_ApplicationLayer\branches\CL3_REL_320_3XX\0350_SWC-SET\CtApMapFusion\02_libs\CtApMapFusion.vxe:8001f0d4 00000058 W _ZN9mapfusion6OCacheIN9fencesapi10IFencesApiI19_Dt_RECORD_MVFences20_Dt_RECORD_MVContour19_Dt_RECORD_MVVertexLj100ELj100ELj3ELj13ENS1_28MvFencesApiAdditionalMembersEjjE6CountsEE5resetEv
E:\zFAS-Jenkins\workspace\zFAS_AIT_Master_AAT\SW\0300_ApplicationLayer\branches\CL3_REL_320_3XX\0350_SWC-SET\CtApMapFusion\02_libs\CtApMapFusion.vxe:8001c90c 00000018 W _ZN9mapfusion6OCacheIN9fencesapi10IFencesApiI19_Dt_RECORD_MVFences20_Dt_RECORD_MVContour19_Dt_RECORD_MVVertexLj100ELj100ELj3ELj13ENS1_28MvFencesApiAdditionalMembersEjjE6CountsEE8getFDataEv
E:\zFAS-Jenkins\workspace\zFAS_AIT_Master_AAT\SW\0300_ApplicationLayer\branches\CL3_REL_320_3XX\0350_SWC-SET\CtApMapFusion\02_libs\CtApMapFusion.vxe:8001c8d8 00000034 W _ZN9mapfusion6OCacheIN9fencesapi10IFencesApiI19_Dt_RECORD_MVFences20_Dt_RECORD_MVContour19_Dt_RECORD_MVVertexLj100ELj100ELj3ELj13ENS1_28MvFencesApiAdditionalMembersEjjE6CountsEE8getODataEv
E:\zFAS-Jenkins\workspace\zFAS_AIT_Master_AAT\SW\0300_ApplicationLayer\branches\CL3_REL_320_3XX\0350_SWC-SET\CtApMapFusion\02_libs\CtApMapFusion.vxe:8001eb24 00000020 W _ZN9mapfusion6OCacheIN9fencesapi10IFencesApiI19_Dt_RECORD_MVFences20_Dt_RECORD_MVContour19_Dt_RECORD_MVVertexLj100ELj100ELj3ELj13ENS1_28MvFencesApiAdditionalMembersEjjE6CountsEED0Ev
E:\zFAS-Jenkins\workspace\zFAS_AIT_Master_AAT\SW\0300_ApplicationLayer\branches\CL3_REL_320_3XX\0350_SWC-SET\CtApMapFusion\02_libs\CtApMapFusion.vxe:8001b378 00000010 W _ZN9mapfusion6OCacheIN9fencesapi10IFencesApiI19_Dt_RECORD_MVFences20_Dt_RECORD_MVContour19_Dt_RECORD_MVVertexLj100ELj100ELj3ELj13ENS1_28MvFencesApiAdditionalMembersEjjE6CountsEED1Ev
E:\zFAS-Jenkins\workspace\zFAS_AIT_Master_AAT\SW\0300_ApplicationLayer\branches\CL3_REL_320_3XX\0350_SWC-SET\CtApMapFusion\02_libs\CtApMapFusion.vxe:8001f1dc 00000054 W _ZN9mapfusion6OCacheIN9fencesapi10IFencesApiI27_Dt_RECORD_LSObstacleFences28_Dt_RECORD_LSObstacleContour27_Dt_RECORD_LSObstacleVertexLj64ELj350ELj3ELj12EjjjE6CountsEE5resetEv
E:\zFAS-Jenkins\workspace\zFAS_AIT_Master_AAT\SW\0300_ApplicationLayer\branches\CL3_REL_320_3XX\0350_SWC-SET\CtApMapFusion\02_libs\CtApMapFusion.vxe:8001c828 00000018 W _ZN9mapfusion6OCacheIN9fencesapi10IFencesApiI27_Dt_RECORD_LSObstacleFences28_Dt_RECORD_LSObstacleContour27_Dt_RECORD_LSObstacleVertexLj64ELj350ELj3ELj12EjjjE6CountsEE8getFDataEv
E:\zFAS-Jenkins\workspace\zFAS_AIT_Master_AAT\SW\0300_ApplicationLayer\branches\CL3_REL_320_3XX\0350_SWC-SET\CtApMapFusion\02_libs\CtApMapFusion.vxe:8001c7f4 00000034 W _ZN9mapfusion6OCacheIN9fencesapi10IFencesApiI27_Dt_RECORD_LSObstacleFences28_Dt_RECORD_LSObstacleContour27_Dt_RECORD_LSObstacleVertexLj64ELj350ELj3ELj12EjjjE6CountsEE8getODataEv
E:\zFAS-Jenkins\workspace\zFAS_AIT_Master_AAT\SW\0300_ApplicationLayer\branches\CL3_REL_320_3XX\0350_SWC-SET\CtApMapFusion\02_libs\CtApMapFusion.vxe:8001eb84 00000020 W _ZN9mapfusion6OCacheIN9fencesapi10IFencesApiI27_Dt_RECORD_LSObstacleFences28_Dt_RECORD_LSObstacleContour27_Dt_RECORD_LSObstacleVertexLj64ELj350ELj3ELj12EjjjE6CountsEED0Ev
E:\zFAS-Jenkins\workspace\zFAS_AIT_Master_AAT\SW\0300_ApplicationLayer\branches\CL3_REL_320_3XX\0350_SWC-SET\CtApMapFusion\02_libs\CtApMapFusion.vxe:8001b3a8 00000010 W _ZN9mapfusion6OCacheIN9fencesapi10IFencesApiI27_Dt_RECORD_LSObstacleFences28_Dt_RECORD_LSObstacleContour27_Dt_RECORD_LSObstacleVertexLj64ELj350ELj3ELj12EjjjE6CountsEED1Ev
E:\zFAS-Jenkins\workspace\zFAS_AIT_Master_AAT\SW\0300_ApplicationLayer\branches\CL3_REL_320_3XX\0350_SWC-SET\CtApMapFusion\02_libs\CtApMapFusion.vxe:8001f330 00000054 W _ZN9mapfusion6OCacheIN9fencesapi10IFencesApiI27_Dt_RECORD_USObstacleFences28_Dt_RECORD_USObstacleContour27_Dt_RECORD_USObstacleVertexLj24ELj48ELj3ELj12ENS1_36UsObstacleFencesApiAdditionalMembersEjtE6CountsEE5resetEv
E:\zFAS-Jenkins\workspace\zFAS_AIT_Master_AAT\SW\0300_ApplicationLayer\branches\CL3_REL_320_3XX\0350_SWC-SET\CtApMapFusion\02_libs\CtApMapFusion.vxe:8001c700 00000018 W _ZN9mapfusion6OCacheIN9fencesapi10IFencesApiI27_Dt_RECORD_USObstacleFences28_Dt_RECORD_USObstacleContour27_Dt_RECORD_USObstacleVertexLj24ELj48ELj3ELj12ENS1_36UsObstacleFencesApiAdditionalMembersEjtE6CountsEE8getFDataEv
E:\zFAS-Jenkins\workspace\zFAS_AIT_Master_AAT\SW\0300_ApplicationLayer\branches\CL3_REL_320_3XX\0350_SWC-SET\CtApMapFusion\02_libs\CtApMapFusion.vxe:8001c6cc 00000034 W _ZN9mapfusion6OCacheIN9fencesapi10IFencesApiI27_Dt_RECORD_USObstacleFences28_Dt_RECORD_USObstacleContour27_Dt_RECORD_USObstacleVertexLj24ELj48ELj3ELj12ENS1_36UsObstacleFencesApiAdditionalMembersEjtE6CountsEE8getODataEv
E:\zFAS-Jenkins\workspace\zFAS_AIT_Master_AAT\SW\0300_ApplicationLayer\branches\CL3_REL_320_3XX\0350_SWC-SET\CtApMapFusion\02_libs\CtApMapFusion.vxe:8001ec04 00000020 W _ZN9mapfusion6OCacheIN9fencesapi10IFencesApiI27_Dt_RECORD_USObstacleFences28_Dt_RECORD_USObstacleContour27_Dt_RECORD_USObstacleVertexLj24ELj48ELj3ELj12ENS1_36UsObstacleFencesApiAdditionalMembersEjtE6CountsEED0Ev
E:\zFAS-Jenkins\workspace\zFAS_AIT_Master_AAT\SW\0300_ApplicationLayer\branches\CL3_REL_320_3XX\0350_SWC-SET\CtApMapFusion\02_libs\CtApMapFusion.vxe:8001b3e8 00000010 W _ZN9mapfusion6OCacheIN9fencesapi10IFencesApiI27_Dt_RECORD_USObstacleFences28_Dt_RECORD_USObstacleContour27_Dt_RECORD_USObstacleVertexLj24ELj48ELj3ELj12ENS1_36UsObstacleFencesApiAdditionalMembersEjtE6CountsEED1Ev
E:\zFAS-Jenkins\workspace\zFAS_AIT_Master_AAT\SW\0300_ApplicationLayer\branches\CL3_REL_320_3XX\0350_SWC-SET\CtApMapFusion\02_libs\CtApMapFusion.vxe:8001f184 00000058 W _ZN9mapfusion6OCacheIN9fencesapi10IFencesApiI28_Dt_RECORD_LRRObstacleFences29_Dt_RECORD_LRRObstacleContour28_Dt_RECORD_LRRObstacleVertexLj10ELj20ELj3ELj12EjjjE6CountsEE5resetEv
E:\zFAS-Jenkins\workspace\zFAS_AIT_Master_AAT\SW\0300_ApplicationLayer\branches\CL3_REL_320_3XX\0350_SWC-SET\CtApMapFusion\02_libs\CtApMapFusion.vxe:8001c874 00000018 W _ZN9mapfusion6OCacheIN9fencesapi10IFencesApiI28_Dt_RECORD_LRRObstacleFences29_Dt_RECORD_LRRObstacleContour28_Dt_RECORD_LRRObstacleVertexLj10ELj20ELj3ELj12EjjjE6CountsEE8getFDataEv
E:\zFAS-Jenkins\workspace\zFAS_AIT_Master_AAT\SW\0300_ApplicationLayer\branches\CL3_REL_320_3XX\0350_SWC-SET\CtApMapFusion\02_libs\CtApMapFusion.vxe:8001c840 00000034 W _ZN9mapfusion6OCacheIN9fencesapi10IFencesApiI28_Dt_RECORD_LRRObstacleFences29_Dt_RECORD_LRRObstacleContour28_Dt_RECORD_LRRObstacleVertexLj10ELj20ELj3ELj12EjjjE6CountsEE8getODataEv
E:\zFAS-Jenkins\workspace\zFAS_AIT_Master_AAT\SW\0300_ApplicationLayer\branches\CL3_REL_320_3XX\0350_SWC-SET\CtApMapFusion\02_libs\CtApMapFusion.vxe:8001eb64 00000020 W _ZN9mapfusion6OCacheIN9fencesapi10IFencesApiI28_Dt_RECORD_LRRObstacleFences29_Dt_RECORD_LRRObstacleContour28_Dt_RECORD_LRRObstacleVertexLj10ELj20ELj3ELj12EjjjE6CountsEED0Ev
E:\zFAS-Jenkins\workspace\zFAS_AIT_Master_AAT\SW\0300_ApplicationLayer\branches\CL3_REL_320_3XX\0350_SWC-SET\CtApMapFusion\02_libs\CtApMapFusion.vxe:8001b398 00000010 W _ZN9mapfusion6OCacheIN9fencesapi10IFencesApiI28_Dt_RECORD_LRRObstacleFences29_Dt_RECORD_LRRObstacleContour28_Dt_RECORD_LRRObstacleVertexLj10ELj20ELj3ELj12EjjjE6CountsEED1Ev
E:\zFAS-Jenkins\workspace\zFAS_AIT_Master_AAT\SW\0300_ApplicationLayer\branches\CL3_REL_320_3XX\0350_SWC-SET\CtApMapFusion\02_libs\CtApMapFusion.vxe:8001f07c 00000058 W _ZN9mapfusion6OCacheIN9fencesapi10IFencesApiI28_Dt_RECORD_MRRObstacleFences29_Dt_RECORD_MRRObstacleContour28_Dt_RECORD_MRRObstacleVertexLj10ELj20ELj3ELj12EjjjE6CountsEE5resetEv
E:\zFAS-Jenkins\workspace\zFAS_AIT_Master_AAT\SW\0300_ApplicationLayer\branches\CL3_REL_320_3XX\0350_SWC-SET\CtApMapFusion\02_libs\CtApMapFusion.vxe:8001c958 00000018 W _ZN9mapfusion6OCacheIN9fencesapi10IFencesApiI28_Dt_RECORD_MRRObstacleFences29_Dt_RECORD_MRRObstacleContour28_Dt_RECORD_MRRObstacleVertexLj10ELj20ELj3ELj12EjjjE6CountsEE8getFDataEv
E:\zFAS-Jenkins\workspace\zFAS_AIT_Master_AAT\SW\0300_ApplicationLayer\branches\CL3_REL_320_3XX\0350_SWC-SET\CtApMapFusion\02_libs\CtApMapFusion.vxe:8001c924 00000034 W _ZN9mapfusion6OCacheIN9fencesapi10IFencesApiI28_Dt_RECORD_MRRObstacleFences29_Dt_RECORD_MRRObstacleContour28_Dt_RECORD_MRRObstacleVertexLj10ELj20ELj3ELj12EjjjE6CountsEE8getODataEv
E:\zFAS-Jenkins\workspace\zFAS_AIT_Master_AAT\SW\0300_ApplicationLayer\branches\CL3_REL_320_3XX\0350_SWC-SET\CtApMapFusion\02_libs\CtApMapFusion.vxe:8001eb04 00000020 W _ZN9mapfusion6OCacheIN9fencesapi10IFencesApiI28_Dt_RECORD_MRRObstacleFences29_Dt_RECORD_MRRObstacleContour28_Dt_RECORD_MRRObstacleVertexLj10ELj20ELj3ELj12EjjjE6CountsEED0Ev
E:\zFAS-Jenkins\workspace\zFAS_AIT_Master_AAT\SW\0300_ApplicationLayer\branches\CL3_REL_320_3XX\0350_SWC-SET\CtApMapFusion\02_libs\CtApMapFusion.vxe:8001b368 00000010 W _ZN9mapfusion6OCacheIN9fencesapi10IFencesApiI28_Dt_RECORD_MRRObstacleFences29_Dt_RECORD_MRRObstacleContour28_Dt_RECORD_MRRObstacleVertexLj10ELj20ELj3ELj12EjjjE6CountsEED1Ev
E:\zFAS-Jenkins\workspace\zFAS_AIT_Master_AAT\SW\0300_ApplicationLayer\branches\CL3_REL_320_3XX\0350_SWC-SET\CtApMapFusion\02_libs\CtApMapFusion.vxe:8001f284 00000054 W _ZN9mapfusion6OCacheIN9fencesapi10IFencesApiI29_Dt_RECORD_TVBVObstacleFences30_Dt_RECORD_TVBVObstacleContour29_Dt_RECORD_TVBVObstacleVertexLj64ELj200ELj3ELj12EjjjE6CountsEE5resetEv
E:\zFAS-Jenkins\workspace\zFAS_AIT_Master_AAT\SW\0300_ApplicationLayer\branches\CL3_REL_320_3XX\0350_SWC-SET\CtApMapFusion\02_libs\CtApMapFusion.vxe:8001c798 00000018 W _ZN9mapfusion6OCacheIN9fencesapi10IFencesApiI29_Dt_RECORD_TVBVObstacleFences30_Dt_RECORD_TVBVObstacleContour29_Dt_RECORD_TVBVObstacleVertexLj64ELj200ELj3ELj12EjjjE6CountsEE8getFDataEv
E:\zFAS-Jenkins\workspace\zFAS_AIT_Master_AAT\SW\0300_ApplicationLayer\branches\CL3_REL_320_3XX\0350_SWC-SET\CtApMapFusion\02_libs\CtApMapFusion.vxe:8001c764 00000034 W _ZN9mapfusion6OCacheIN9fencesapi10IFencesApiI29_Dt_RECORD_TVBVObstacleFences30_Dt_RECORD_TVBVObstacleContour29_Dt_RECORD_TVBVObstacleVertexLj64ELj200ELj3ELj12EjjjE6CountsEE8getODataEv
E:\zFAS-Jenkins\workspace\zFAS_AIT_Master_AAT\SW\0300_ApplicationLayer\branches\CL3_REL_320_3XX\0350_SWC-SET\CtApMapFusion\02_libs\CtApMapFusion.vxe:8001ebc4 00000020 W _ZN9mapfusion6OCacheIN9fencesapi10IFencesApiI29_Dt_RECORD_TVBVObstacleFences30_Dt_RECORD_TVBVObstacleContour29_Dt_RECORD_TVBVObstacleVertexLj64ELj200ELj3ELj12EjjjE6CountsEED0Ev
E:\zFAS-Jenkins\workspace\zFAS_AIT_Master_AAT\SW\0300_ApplicationLayer\branches\CL3_REL_320_3XX\0350_SWC-SET\CtApMapFusion\02_libs\CtApMapFusion.vxe:8001b3c8 00000010 W _ZN9mapfusion6OCacheIN9fencesapi10IFencesApiI29_Dt_RECORD_TVBVObstacleFences30_Dt_RECORD_TVBVObstacleContour29_Dt_RECORD_TVBVObstacleVertexLj64ELj200ELj3ELj12EjjjE6CountsEED1Ev
E:\zFAS-Jenkins\workspace\zFAS_AIT_Master_AAT\SW\0300_ApplicationLayer\branches\CL3_REL_320_3XX\0350_SWC-SET\CtApMapFusion\02_libs\CtApMapFusion.vxe:8001f430 00000060 W _ZN9mapfusion6OCacheIN9fencesapi10IFencesApiIN15fencesinterface17FencesLightStructENS3_7ContourENS3_6VertexELj250ELj500ELj5ELj31EjjjE6CountsEE5resetEv
E:\zFAS-Jenkins\workspace\zFAS_AIT_Master_AAT\SW\0300_ApplicationLayer\branches\CL3_REL_320_3XX\0350_SWC-SET\CtApMapFusion\02_libs\CtApMapFusion.vxe:8001d5d0 00000018 W _ZN9mapfusion6OCacheIN9fencesapi10IFencesApiIN15fencesinterface17FencesLightStructENS3_7ContourENS3_6VertexELj250ELj500ELj5ELj31EjjjE6CountsEE8getFDataEv
E:\zFAS-Jenkins\workspace\zFAS_AIT_Master_AAT\SW\0300_ApplicationLayer\branches\CL3_REL_320_3XX\0350_SWC-SET\CtApMapFusion\02_libs\CtApMapFusion.vxe:8001d594 0000003c W _ZN9mapfusion6OCacheIN9fencesapi10IFencesApiIN15fencesinterface17FencesLightStructENS3_7ContourENS3_6VertexELj250ELj500ELj5ELj31EjjjE6CountsEE8getODataEv
E:\zFAS-Jenkins\workspace\zFAS_AIT_Master_AAT\SW\0300_ApplicationLayer\branches\CL3_REL_320_3XX\0350_SWC-SET\CtApMapFusion\02_libs\CtApMapFusion.vxe:8001ec64 00000020 W _ZN9mapfusion6OCacheIN9fencesapi10IFencesApiIN15fencesinterface17FencesLightStructENS3_7ContourENS3_6VertexELj250ELj500ELj5ELj31EjjjE6CountsEED0Ev
E:\zFAS-Jenkins\workspace\zFAS_AIT_Master_AAT\SW\0300_ApplicationLayer\branches\CL3_REL_320_3XX\0350_SWC-SET\CtApMapFusion\02_libs\CtApMapFusion.vxe:8001b418 00000010 W _ZN9mapfusion6OCacheIN9fencesapi10IFencesApiIN15fencesinterface17FencesLightStructENS3_7ContourENS3_6VertexELj250ELj500ELj5ELj31EjjjE6CountsEED1Ev
E:\zFAS-Jenkins\workspace\zFAS_AIT_Master_AAT\SW\0300_ApplicationLayer\branches\CL3_REL_320_3XX\0350_SWC-SET\CtApMapFusion\02_libs\CtApMapFusion.vxe:8004d3bc 00000074 T _ZN9mapfusion7Checker18checkOdoConfidenceERK14_Dt_RECORD_EMLRb
E:\zFAS-Jenkins\workspace\zFAS_AIT_Master_AAT\SW\0300_ApplicationLayer\branches\CL3_REL_320_3XX\0350_SWC-SET\CtApMapFusion\02_libs\CtApMapFusion.vxe:8004d4c8 00000020 T _ZN9mapfusion7Checker19isQualityClassValidEt
E:\zFAS-Jenkins\workspace\zFAS_AIT_Master_AAT\SW\0300_ApplicationLayer\branches\CL3_REL_320_3XX\0350_SWC-SET\CtApMapFusion\02_libs\CtApMapFusion.vxe:8004d4ac 0000001c T _ZN9mapfusion7Checker23executeCheckSignalStateEhh
E:\zFAS-Jenkins\workspace\zFAS_AIT_Master_AAT\SW\0300_ApplicationLayer\branches\CL3_REL_320_3XX\0350_SWC-SET\CtApMapFusion\02_libs\CtApMapFusion.vxe:80255228 00000138 W _ZN9mapfusion8ArraySumILi39EE3sumEPKh
E:\zFAS-Jenkins\workspace\zFAS_AIT_Master_AAT\SW\0300_ApplicationLayer\branches\CL3_REL_320_3XX\0350_SWC-SET\CtApMapFusion\02_libs\CtApMapFusion.vxe:80060778 0000032c W _ZN9mapfusion8BlockMapINS_12GlobalConfigILj4ELj6ELj2ELj2EEENS_23BlockMapComponentsTypesEE11removeBlockEjjRNS_9BaseBlockIS2_EE
E:\zFAS-Jenkins\workspace\zFAS_AIT_Master_AAT\SW\0300_ApplicationLayer\branches\CL3_REL_320_3XX\0350_SWC-SET\CtApMapFusion\02_libs\CtApMapFusion.vxe:80249b8c 00000af4 W _ZN9mapfusion8BlockMapINS_12GlobalConfigILj4ELj6ELj2ELj2EEENS_23BlockMapComponentsTypesEE13fuseFreespaceINS_14IFencesAdapterIN9fencesapi10IFencesApiI19_Dt_RECORD_MVFences20_Dt_RECORD_MVContour19_Dt_RECORD_MVVertexLj100ELj100ELj3ELj13ENS7_28MvFencesApiAdditionalMembersEjjEENS_6FCacheELj3072ENS_22CommonPrioritySelectorEEEEENS_10ResultTypeERNS_20FreespaceUpdateParamERT_jRK16Transformation2D
E:\zFAS-Jenkins\workspace\zFAS_AIT_Master_AAT\SW\0300_ApplicationLayer\branches\CL3_REL_320_3XX\0350_SWC-SET\CtApMapFusion\02_libs\CtApMapFusion.vxe:80239284 00000af4 W _ZN9mapfusion8BlockMapINS_12GlobalConfigILj4ELj6ELj2ELj2EEENS_23BlockMapComponentsTypesEE13fuseFreespaceINS_14IFencesAdapterIN9fencesapi10IFencesApiI19_Dt_RECORD_MVFences20_Dt_RECORD_MVContour19_Dt_RECORD_MVVertexLj100ELj100ELj3ELj13ENS7_28MvFencesApiAdditionalMembersEjjEENS_6OCacheELj2097290ENS_22CommonPrioritySelectorEEEEENS_10ResultTypeERNS_20FreespaceUpdateParamERT_jRK16Transformation2D
E:\zFAS-Jenkins\workspace\zFAS_AIT_Master_AAT\SW\0300_ApplicationLayer\branches\CL3_REL_320_3XX\0350_SWC-SET\CtApMapFusion\02_libs\CtApMapFusion.vxe:802304a0 00000b54 W _ZN9mapfusion8BlockMapINS_12GlobalConfigILj4ELj6ELj2ELj2EEENS_23BlockMapComponentsTypesEE13fuseFreespaceINS_14IFencesAdapterIN9fencesapi10IFencesApiI27_Dt_RECORD_LSObstacleFences28_Dt_RECORD_LSObstacleContour27_Dt_RECORD_LSObstacleVertexLj64ELj350ELj3ELj12EjjjEENS_6OCacheELj2322459ENS_18LSPrioritySelectorEEEEENS_10ResultTypeERNS_20FreespaceUpdateParamERT_jRK16Transformation2D
E:\zFAS-Jenkins\workspace\zFAS_AIT_Master_AAT\SW\0300_ApplicationLayer\branches\CL3_REL_320_3XX\0350_SWC-SET\CtApMapFusion\02_libs\CtApMapFusion.vxe:8023e02c 00000e10 W _ZN9mapfusion8BlockMapINS_12GlobalConfigILj4ELj6ELj2ELj2EEENS_23BlockMapComponentsTypesEE13fuseFreespaceINS_14IFencesAdapterIN9fencesapi10IFencesApiI27_Dt_RECORD_USObstacleFences28_Dt_RECORD_USObstacleContour27_Dt_RECORD_USObstacleVertexLj24ELj48ELj3ELj12ENS7_36UsObstacleFencesApiAdditionalMembersEjtEENS_6OCacheELj200799355ENS_18USPrioritySelectorEEEEENS_10ResultTypeERNS_20FreespaceUpdateParamERT_jRK16Transformation2D
E:\zFAS-Jenkins\workspace\zFAS_AIT_Master_AAT\SW\0300_ApplicationLayer\branches\CL3_REL_320_3XX\0350_SWC-SET\CtApMapFusion\02_libs\CtApMapFusion.vxe:80234c2c 00000ac0 W _ZN9mapfusion8BlockMapINS_12GlobalConfigILj4ELj6ELj2ELj2EEENS_23BlockMapComponentsTypesEE13fuseFreespaceINS_14IFencesAdapterIN9fencesapi10IFencesApiI28_Dt_RECORD_LRRObstacleFences29_Dt_RECORD_LRRObstacleContour28_Dt_RECORD_LRRObstacleVertexLj10ELj20ELj3ELj12EjjjEENS_6OCacheELj2097290ENS_22CommonPrioritySelectorEEEEENS_10ResultTypeERNS_20FreespaceUpdateParamERT_jRK16Transformation2D
E:\zFAS-Jenkins\workspace\zFAS_AIT_Master_AAT\SW\0300_ApplicationLayer\branches\CL3_REL_320_3XX\0350_SWC-SET\CtApMapFusion\02_libs\CtApMapFusion.vxe:80246940 00000a5c W _ZN9mapfusion8BlockMapINS_12GlobalConfigILj4ELj6ELj2ELj2EEENS_23BlockMapComponentsTypesEE13fuseFreespaceINS_14IFencesAdapterIN9fencesapi10IFencesApiI28_Dt_RECORD_LSFreespaceFences29_Dt_RECORD_LSFreespaceContour28_Dt_RECORD_LSFreespaceVertexLj64ELj350ELj1ELj1EjNS7_34ZfasLsFreespaceContourApiAddMemberEjEENS_6FCacheELj2322459ENS_18LSPrioritySelectorEEEEENS_10ResultTypeERNS_20FreespaceUpdateParamERT_jRK16Transformation2D
E:\zFAS-Jenkins\workspace\zFAS_AIT_Master_AAT\SW\0300_ApplicationLayer\branches\CL3_REL_320_3XX\0350_SWC-SET\CtApMapFusion\02_libs\CtApMapFusion.vxe:80236e30 00000ac0 W _ZN9mapfusion8BlockMapINS_12GlobalConfigILj4ELj6ELj2ELj2EEENS_23BlockMapComponentsTypesEE13fuseFreespaceINS_14IFencesAdapterIN9fencesapi10IFencesApiI28_Dt_RECORD_MRRObstacleFences29_Dt_RECORD_MRRObstacleContour28_Dt_RECORD_MRRObstacleVertexLj10ELj20ELj3ELj12EjjjEENS_6OCacheELj2097290ENS_22CommonPrioritySelectorEEEEENS_10ResultTypeERNS_20FreespaceUpdateParamERT_jRK16Transformation2D
E:\zFAS-Jenkins\workspace\zFAS_AIT_Master_AAT\SW\0300_ApplicationLayer\branches\CL3_REL_320_3XX\0350_SWC-SET\CtApMapFusion\02_libs\CtApMapFusion.vxe:8024fc70 00000e10 W _ZN9mapfusion8BlockMapINS_12GlobalConfigILj4ELj6ELj2ELj2EEENS_23BlockMapComponentsTypesEE13fuseFreespaceINS_14IFencesAdapterIN9fencesapi10IFencesApiI28_Dt_RECORD_USFreespaceFences29_Dt_RECORD_USFreespaceContour28_Dt_RECORD_USFreespaceVertexLj48ELj192ELj1ELj1EjjjEENS_6FCacheELj200799355ENS_18USPrioritySelectorEEEEENS_10ResultTypeERNS_20FreespaceUpdateParamERT_jRK16Transformation2D
E:\zFAS-Jenkins\workspace\zFAS_AIT_Master_AAT\SW\0300_ApplicationLayer\branches\CL3_REL_320_3XX\0350_SWC-SET\CtApMapFusion\02_libs\CtApMapFusion.vxe:8023bb9c 00000b44 W _ZN9mapfusion8BlockMapINS_12GlobalConfigILj4ELj6ELj2ELj2EEENS_23BlockMapComponentsTypesEE13fuseFreespaceINS_14IFencesAdapterIN9fencesapi10IFencesApiI29_Dt_RECORD_TVBVObstacleFences30_Dt_RECORD_TVBVObstacleContour29_Dt_RECORD_TVBVObstacleVertexLj64ELj200ELj3ELj12EjjjEENS_6OCacheELj2191391ENS_20TVIPPrioritySelectorEEEEENS_10ResultTypeERNS_20FreespaceUpdateParamERT_jRK16Transformation2D
E:\zFAS-Jenkins\workspace\zFAS_AIT_Master_AAT\SW\0300_ApplicationLayer\branches\CL3_REL_320_3XX\0350_SWC-SET\CtApMapFusion\02_libs\CtApMapFusion.vxe:8024ce40 00000b84 W _ZN9mapfusion8BlockMapINS_12GlobalConfigILj4ELj6ELj2ELj2EEENS_23BlockMapComponentsTypesEE13fuseFreespaceINS_14IFencesAdapterIN9fencesapi10IFencesApiI30_Dt_RECORD_TVBVFreespaceFences31_Dt_RECORD_TVBVFreespaceContour30_Dt_RECORD_TVBVFreespaceVertexLj128ELj440ELj1ELj1EjjjEENS_6FCacheELj2191391ENS_20TVIPPrioritySelectorEEEEENS_10ResultTypeERNS_20FreespaceUpdateParamERT_jRK16Transformation2D
E:\zFAS-Jenkins\workspace\zFAS_AIT_Master_AAT\SW\0300_ApplicationLayer\branches\CL3_REL_320_3XX\0350_SWC-SET\CtApMapFusion\02_libs\CtApMapFusion.vxe:80252f64 00000bf8 W _ZN9mapfusion8BlockMapINS_12GlobalConfigILj4ELj6ELj2ELj2EEENS_23BlockMapComponentsTypesEE13fuseFreespaceINS_14IFencesAdapterIN9fencesapi10IFencesApiIN15fencesinterface17FencesLightStructENS9_7ContourENS9_6VertexELj250ELj500ELj5ELj31EjjjEENS_6FCacheELj4608ENS_22CommonPrioritySelectorEEEEENS_10ResultTypeERNS_20FreespaceUpdateParamERT_jRK16Transformation2D
E:\zFAS-Jenkins\workspace\zFAS_AIT_Master_AAT\SW\0300_ApplicationLayer\branches\CL3_REL_320_3XX\0350_SWC-SET\CtApMapFusion\02_libs\CtApMapFusion.vxe:8024417c 00000bf8 W _ZN9mapfusion8BlockMapINS_12GlobalConfigILj4ELj6ELj2ELj2EEENS_23BlockMapComponentsTypesEE13fuseFreespaceINS_14IFencesAdapterIN9fencesapi10IFencesApiIN15fencesinterface17FencesLightStructENS9_7ContourENS9_6VertexELj250ELj500ELj5ELj31EjjjEENS_6FCacheELj8392705ENS_22CommonPrioritySelectorEEEEENS_10ResultTypeERNS_20FreespaceUpdateParamERT_jRK16Transformation2D
E:\zFAS-Jenkins\workspace\zFAS_AIT_Master_AAT\SW\0300_ApplicationLayer\branches\CL3_REL_320_3XX\0350_SWC-SET\CtApMapFusion\02_libs\CtApMapFusion.vxe:8024259c 00000c10 W _ZN9mapfusion8BlockMapINS_12GlobalConfigILj4ELj6ELj2ELj2EEENS_23BlockMapComponentsTypesEE13fuseFreespaceINS_14IFencesAdapterIN9fencesapi10IFencesApiIN15fencesinterface17FencesLightStructENS9_7ContourENS9_6VertexELj250ELj500ELj5ELj31EjjjEENS_6OCacheELj2097152ENS_22CommonPrioritySelectorEEEEENS_10ResultTypeERNS_20FreespaceUpdateParamERT_jRK16Transformation2D
E:\zFAS-Jenkins\workspace\zFAS_AIT_Master_AAT\SW\0300_ApplicationLayer\branches\CL3_REL_320_3XX\0350_SWC-SET\CtApMapFusion\02_libs\CtApMapFusion.vxe:802409bc 00000c10 W _ZN9mapfusion8BlockMapINS_12GlobalConfigILj4ELj6ELj2ELj2EEENS_23BlockMapComponentsTypesEE13fuseFreespaceINS_14IFencesAdapterIN9fencesapi10IFencesApiIN15fencesinterface17FencesLightStructENS9_7ContourENS9_6VertexELj250ELj500ELj5ELj31EjjjEENS_6OCacheELj2097154ENS_22CommonPrioritySelectorEEEEENS_10ResultTypeERNS_20FreespaceUpdateParamERT_jRK16Transformation2D
E:\zFAS-Jenkins\workspace\zFAS_AIT_Master_AAT\SW\0300_ApplicationLayer\branches\CL3_REL_320_3XX\0350_SWC-SET\CtApMapFusion\02_libs\CtApMapFusion.vxe:801cdb54 00000184 W _ZN9mapfusion8BlockMapINS_12GlobalConfigILj4ELj6ELj2ELj2EEENS_23BlockMapComponentsTypesEE13processPointsINS_14IFencesAdapterIN9fencesapi10IFencesApiI19_Dt_RECORD_MVFences20_Dt_RECORD_MVContour19_Dt_RECORD_MVVertexLj100ELj100ELj3ELj13ENS7_28MvFencesApiAdditionalMembersEjjEENS_6FCacheELj3072ENS_22CommonPrioritySelectorEEENS_21SupportedUpdateHelperILj2179470EEEEENS_10ResultTypeERT_jRK16Transformation2DRKNS_9ClipEdgesERKNS_19ObstacleUpdateParamERb
E:\zFAS-Jenkins\workspace\zFAS_AIT_Master_AAT\SW\0300_ApplicationLayer\branches\CL3_REL_320_3XX\0350_SWC-SET\CtApMapFusion\02_libs\CtApMapFusion.vxe:801cdcd8 00000184 W _ZN9mapfusion8BlockMapINS_12GlobalConfigILj4ELj6ELj2ELj2EEENS_23BlockMapComponentsTypesEE13processPointsINS_14IFencesAdapterIN9fencesapi10IFencesApiI19_Dt_RECORD_MVFences20_Dt_RECORD_MVContour19_Dt_RECORD_MVVertexLj100ELj100ELj3ELj13ENS7_28MvFencesApiAdditionalMembersEjjEENS_6FCacheELj3072ENS_22CommonPrioritySelectorEEENS_21SupportedUpdateHelperILj2179530EEEEENS_10ResultTypeERT_jRK16Transformation2DRKNS_9ClipEdgesERKNS_19ObstacleUpdateParamERb
E:\zFAS-Jenkins\workspace\zFAS_AIT_Master_AAT\SW\0300_ApplicationLayer\branches\CL3_REL_320_3XX\0350_SWC-SET\CtApMapFusion\02_libs\CtApMapFusion.vxe:80229038 00000184 W _ZN9mapfusion8BlockMapINS_12GlobalConfigILj4ELj6ELj2ELj2EEENS_23BlockMapComponentsTypesEE13processPointsINS_14IFencesAdapterIN9fencesapi10IFencesApiI19_Dt_RECORD_MVFences20_Dt_RECORD_MVContour19_Dt_RECORD_MVVertexLj100ELj100ELj3ELj13ENS7_28MvFencesApiAdditionalMembersEjjEENS_6FCacheELj3072ENS_22CommonPrioritySelectorEEENS_21SupportedUpdateHelperILj3072EEEEENS_10ResultTypeERT_jRK16Transformation2DRKNS_9ClipEdgesERKNS_19ObstacleUpdateParamERb
E:\zFAS-Jenkins\workspace\zFAS_AIT_Master_AAT\SW\0300_ApplicationLayer\branches\CL3_REL_320_3XX\0350_SWC-SET\CtApMapFusion\02_libs\CtApMapFusion.vxe:80213220 00000184 W _ZN9mapfusion8BlockMapINS_12GlobalConfigILj4ELj6ELj2ELj2EEENS_23BlockMapComponentsTypesEE13processPointsINS_14IFencesAdapterIN9fencesapi10IFencesApiI19_Dt_RECORD_MVFences20_Dt_RECORD_MVContour19_Dt_RECORD_MVVertexLj100ELj100ELj3ELj13ENS7_28MvFencesApiAdditionalMembersEjjEENS_6OCacheELj2097290ENS_22CommonPrioritySelectorEEENS_21SupportedUpdateHelperILj2097290EEEEENS_10ResultTypeERT_jRK16Transformation2DRKNS_9ClipEdgesERKNS_19ObstacleUpdateParamERb
E:\zFAS-Jenkins\workspace\zFAS_AIT_Master_AAT\SW\0300_ApplicationLayer\branches\CL3_REL_320_3XX\0350_SWC-SET\CtApMapFusion\02_libs\CtApMapFusion.vxe:801aa0b0 00000184 W _ZN9mapfusion8BlockMapINS_12GlobalConfigILj4ELj6ELj2ELj2EEENS_23BlockMapComponentsTypesEE13processPointsINS_14IFencesAdapterIN9fencesapi10IFencesApiI19_Dt_RECORD_MVFences20_Dt_RECORD_MVContour19_Dt_RECORD_MVVertexLj100ELj100ELj3ELj13ENS7_28MvFencesApiAdditionalMembersEjjEENS_6OCacheELj2097290ENS_22CommonPrioritySelectorEEENS_21SupportedUpdateHelperILj2179470EEEEENS_10ResultTypeERT_jRK16Transformation2DRKNS_9ClipEdgesERKNS_19ObstacleUpdateParamERb
E:\zFAS-Jenkins\workspace\zFAS_AIT_Master_AAT\SW\0300_ApplicationLayer\branches\CL3_REL_320_3XX\0350_SWC-SET\CtApMapFusion\02_libs\CtApMapFusion.vxe:801b6cf0 00000184 W _ZN9mapfusion8BlockMapINS_12GlobalConfigILj4ELj6ELj2ELj2EEENS_23BlockMapComponentsTypesEE13processPointsINS_14IFencesAdapterIN9fencesapi10IFencesApiI19_Dt_RECORD_MVFences20_Dt_RECORD_MVContour19_Dt_RECORD_MVVertexLj100ELj100ELj3ELj13ENS7_28MvFencesApiAdditionalMembersEjjEENS_6OCacheELj2097290ENS_22CommonPrioritySelectorEEENS_21SupportedUpdateHelperILj2179530EEEEENS_10ResultTypeERT_jRK16Transformation2DRKNS_9ClipEdgesERKNS_19ObstacleUpdateParamERb
E:\zFAS-Jenkins\workspace\zFAS_AIT_Master_AAT\SW\0300_ApplicationLayer\branches\CL3_REL_320_3XX\0350_SWC-SET\CtApMapFusion\02_libs\CtApMapFusion.vxe:801a8f6c 00000184 W _ZN9mapfusion8BlockMapINS_12GlobalConfigILj4ELj6ELj2ELj2EEENS_23BlockMapComponentsTypesEE13processPointsINS_14IFencesAdapterIN9fencesapi10IFencesApiI27_Dt_RECORD_LSObstacleFences28_Dt_RECORD_LSObstacleContour27_Dt_RECORD_LSObstacleVertexLj64ELj350ELj3ELj12EjjjEENS_6OCacheELj2322459ENS_18LSPrioritySelectorEEENS_21SupportedUpdateHelperILj2179470EEEEENS_10ResultTypeERT_jRK16Transformation2DRKNS_9ClipEdgesERKNS_19ObstacleUpdateParamERb
E:\zFAS-Jenkins\workspace\zFAS_AIT_Master_AAT\SW\0300_ApplicationLayer\branches\CL3_REL_320_3XX\0350_SWC-SET\CtApMapFusion\02_libs\CtApMapFusion.vxe:801b5bac 00000184 W _ZN9mapfusion8BlockMapINS_12GlobalConfigILj4ELj6ELj2ELj2EEENS_23BlockMapComponentsTypesEE13processPointsINS_14IFencesAdapterIN9fencesapi10IFencesApiI27_Dt_RECORD_LSObstacleFences28_Dt_RECORD_LSObstacleContour27_Dt_RECORD_LSObstacleVertexLj64ELj350ELj3ELj12EjjjEENS_6OCacheELj2322459ENS_18LSPrioritySelectorEEENS_21SupportedUpdateHelperILj2179530EEEEENS_10ResultTypeERT_jRK16Transformation2DRKNS_9ClipEdgesERKNS_19ObstacleUpdateParamERb
E:\zFAS-Jenkins\workspace\zFAS_AIT_Master_AAT\SW\0300_ApplicationLayer\branches\CL3_REL_320_3XX\0350_SWC-SET\CtApMapFusion\02_libs\CtApMapFusion.vxe:8020cbf8 00000184 W _ZN9mapfusion8BlockMapINS_12GlobalConfigILj4ELj6ELj2ELj2EEENS_23BlockMapComponentsTypesEE13processPointsINS_14IFencesAdapterIN9fencesapi10IFencesApiI27_Dt_RECORD_LSObstacleFences28_Dt_RECORD_LSObstacleContour27_Dt_RECORD_LSObstacleVertexLj64ELj350ELj3ELj12EjjjEENS_6OCacheELj2322459ENS_18LSPrioritySelectorEEENS_21SupportedUpdateHelperILj2322459EEEEENS_10ResultTypeERT_jRK16Transformation2DRKNS_9ClipEdgesERKNS_19ObstacleUpdateParamERb
E:\zFAS-Jenkins\workspace\zFAS_AIT_Master_AAT\SW\0300_ApplicationLayer\branches\CL3_REL_320_3XX\0350_SWC-SET\CtApMapFusion\02_libs\CtApMapFusion.vxe:80225104 00000204 W _ZN9mapfusion8BlockMapINS_12GlobalConfigILj4ELj6ELj2ELj2EEENS_23BlockMapComponentsTypesEE13processPointsINS_14IFencesAdapterIN9fencesapi10IFencesApiI27_Dt_RECORD_USObstacleFences28_Dt_RECORD_USObstacleContour27_Dt_RECORD_USObstacleVertexLj24ELj48ELj3ELj12ENS7_36UsObstacleFencesApiAdditionalMembersEjtEENS_6OCacheELj200799355ENS_18USPrioritySelectorEEENS_21SupportedUpdateHelperILj200799355EEEEENS_10ResultTypeERT_jRK16Transformation2DRKNS_9ClipEdgesERKNS_19ObstacleUpdateParamERb
E:\zFAS-Jenkins\workspace\zFAS_AIT_Master_AAT\SW\0300_ApplicationLayer\branches\CL3_REL_320_3XX\0350_SWC-SET\CtApMapFusion\02_libs\CtApMapFusion.vxe:801aaf3c 00000204 W _ZN9mapfusion8BlockMapINS_12GlobalConfigILj4ELj6ELj2ELj2EEENS_23BlockMapComponentsTypesEE13processPointsINS_14IFencesAdapterIN9fencesapi10IFencesApiI27_Dt_RECORD_USObstacleFences28_Dt_RECORD_USObstacleContour27_Dt_RECORD_USObstacleVertexLj24ELj48ELj3ELj12ENS7_36UsObstacleFencesApiAdditionalMembersEjtEENS_6OCacheELj200799355ENS_18USPrioritySelectorEEENS_21SupportedUpdateHelperILj2179470EEEEENS_10ResultTypeERT_jRK16Transformation2DRKNS_9ClipEdgesERKNS_19ObstacleUpdateParamERb
E:\zFAS-Jenkins\workspace\zFAS_AIT_Master_AAT\SW\0300_ApplicationLayer\branches\CL3_REL_320_3XX\0350_SWC-SET\CtApMapFusion\02_libs\CtApMapFusion.vxe:801b7b7c 00000204 W _ZN9mapfusion8BlockMapINS_12GlobalConfigILj4ELj6ELj2ELj2EEENS_23BlockMapComponentsTypesEE13processPointsINS_14IFencesAdapterIN9fencesapi10IFencesApiI27_Dt_RECORD_USObstacleFences28_Dt_RECORD_USObstacleContour27_Dt_RECORD_USObstacleVertexLj24ELj48ELj3ELj12ENS7_36UsObstacleFencesApiAdditionalMembersEjtEENS_6OCacheELj200799355ENS_18USPrioritySelectorEEENS_21SupportedUpdateHelperILj2179530EEEEENS_10ResultTypeERT_jRK16Transformation2DRKNS_9ClipEdgesERKNS_19ObstacleUpdateParamERb
E:\zFAS-Jenkins\workspace\zFAS_AIT_Master_AAT\SW\0300_ApplicationLayer\branches\CL3_REL_320_3XX\0350_SWC-SET\CtApMapFusion\02_libs\CtApMapFusion.vxe:802114ac 0000017c W _ZN9mapfusion8BlockMapINS_12GlobalConfigILj4ELj6ELj2ELj2EEENS_23BlockMapComponentsTypesEE13processPointsINS_14IFencesAdapterIN9fencesapi10IFencesApiI28_Dt_RECORD_LRRObstacleFences29_Dt_RECORD_LRRObstacleContour28_Dt_RECORD_LRRObstacleVertexLj10ELj20ELj3ELj12EjjjEENS_6OCacheELj2097290ENS_22CommonPrioritySelectorEEENS_21SupportedUpdateHelperILj2097290EEEEENS_10ResultTypeERT_jRK16Transformation2DRKNS_9ClipEdgesERKNS_19ObstacleUpdateParamERb
E:\zFAS-Jenkins\workspace\zFAS_AIT_Master_AAT\SW\0300_ApplicationLayer\branches\CL3_REL_320_3XX\0350_SWC-SET\CtApMapFusion\02_libs\CtApMapFusion.vxe:801a952c 0000017c W _ZN9mapfusion8BlockMapINS_12GlobalConfigILj4ELj6ELj2ELj2EEENS_23BlockMapComponentsTypesEE13processPointsINS_14IFencesAdapterIN9fencesapi10IFencesApiI28_Dt_RECORD_LRRObstacleFences29_Dt_RECORD_LRRObstacleContour28_Dt_RECORD_LRRObstacleVertexLj10ELj20ELj3ELj12EjjjEENS_6OCacheELj2097290ENS_22CommonPrioritySelectorEEENS_21SupportedUpdateHelperILj2179470EEEEENS_10ResultTypeERT_jRK16Transformation2DRKNS_9ClipEdgesERKNS_19ObstacleUpdateParamERb
E:\zFAS-Jenkins\workspace\zFAS_AIT_Master_AAT\SW\0300_ApplicationLayer\branches\CL3_REL_320_3XX\0350_SWC-SET\CtApMapFusion\02_libs\CtApMapFusion.vxe:801b616c 0000017c W _ZN9mapfusion8BlockMapINS_12GlobalConfigILj4ELj6ELj2ELj2EEENS_23BlockMapComponentsTypesEE13processPointsINS_14IFencesAdapterIN9fencesapi10IFencesApiI28_Dt_RECORD_LRRObstacleFences29_Dt_RECORD_LRRObstacleContour28_Dt_RECORD_LRRObstacleVertexLj10ELj20ELj3ELj12EjjjEENS_6OCacheELj2097290ENS_22CommonPrioritySelectorEEENS_21SupportedUpdateHelperILj2179530EEEEENS_10ResultTypeERT_jRK16Transformation2DRKNS_9ClipEdgesERKNS_19ObstacleUpdateParamERb
E:\zFAS-Jenkins\workspace\zFAS_AIT_Master_AAT\SW\0300_ApplicationLayer\branches\CL3_REL_320_3XX\0350_SWC-SET\CtApMapFusion\02_libs\CtApMapFusion.vxe:801c0f54 00000184 W _ZN9mapfusion8BlockMapINS_12GlobalConfigILj4ELj6ELj2ELj2EEENS_23BlockMapComponentsTypesEE13processPointsINS_14IFencesAdapterIN9fencesapi10IFencesApiI28_Dt_RECORD_LSFreespaceFences29_Dt_RECORD_LSFreespaceContour28_Dt_RECORD_LSFreespaceVertexLj64ELj350ELj1ELj1EjNS7_34ZfasLsFreespaceContourApiAddMemberEjEENS_6FCacheELj2322459ENS_18LSPrioritySelectorEEENS_21SupportedUpdateHelperILj2179470EEEEENS_10ResultTypeERT_jRK16Transformation2DRKNS_9ClipEdgesERKNS_19ObstacleUpdateParamERb
E:\zFAS-Jenkins\workspace\zFAS_AIT_Master_AAT\SW\0300_ApplicationLayer\branches\CL3_REL_320_3XX\0350_SWC-SET\CtApMapFusion\02_libs\CtApMapFusion.vxe:801c10d8 00000184 W _ZN9mapfusion8BlockMapINS_12GlobalConfigILj4ELj6ELj2ELj2EEENS_23BlockMapComponentsTypesEE13processPointsINS_14IFencesAdapterIN9fencesapi10IFencesApiI28_Dt_RECORD_LSFreespaceFences29_Dt_RECORD_LSFreespaceContour28_Dt_RECORD_LSFreespaceVertexLj64ELj350ELj1ELj1EjNS7_34ZfasLsFreespaceContourApiAddMemberEjEENS_6FCacheELj2322459ENS_18LSPrioritySelectorEEENS_21SupportedUpdateHelperILj2179530EEEEENS_10ResultTypeERT_jRK16Transformation2DRKNS_9ClipEdgesERKNS_19ObstacleUpdateParamERb
E:\zFAS-Jenkins\workspace\zFAS_AIT_Master_AAT\SW\0300_ApplicationLayer\branches\CL3_REL_320_3XX\0350_SWC-SET\CtApMapFusion\02_libs\CtApMapFusion.vxe:8020dc50 00000184 W _ZN9mapfusion8BlockMapINS_12GlobalConfigILj4ELj6ELj2ELj2EEENS_23BlockMapComponentsTypesEE13processPointsINS_14IFencesAdapterIN9fencesapi10IFencesApiI28_Dt_RECORD_LSFreespaceFences29_Dt_RECORD_LSFreespaceContour28_Dt_RECORD_LSFreespaceVertexLj64ELj350ELj1ELj1EjNS7_34ZfasLsFreespaceContourApiAddMemberEjEENS_6FCacheELj2322459ENS_18LSPrioritySelectorEEENS_21SupportedUpdateHelperILj2322459EEEEENS_10ResultTypeERT_jRK16Transformation2DRKNS_9ClipEdgesERKNS_19ObstacleUpdateParamERb
E:\zFAS-Jenkins\workspace\zFAS_AIT_Master_AAT\SW\0300_ApplicationLayer\branches\CL3_REL_320_3XX\0350_SWC-SET\CtApMapFusion\02_libs\CtApMapFusion.vxe:8021235c 0000017c W _ZN9mapfusion8BlockMapINS_12GlobalConfigILj4ELj6ELj2ELj2EEENS_23BlockMapComponentsTypesEE13processPointsINS_14IFencesAdapterIN9fencesapi10IFencesApiI28_Dt_RECORD_MRRObstacleFences29_Dt_RECORD_MRRObstacleContour28_Dt_RECORD_MRRObstacleVertexLj10ELj20ELj3ELj12EjjjEENS_6OCacheELj2097290ENS_22CommonPrioritySelectorEEENS_21SupportedUpdateHelperILj2097290EEEEENS_10ResultTypeERT_jRK16Transformation2DRKNS_9ClipEdgesERKNS_19ObstacleUpdateParamERb
E:\zFAS-Jenkins\workspace\zFAS_AIT_Master_AAT\SW\0300_ApplicationLayer\branches\CL3_REL_320_3XX\0350_SWC-SET\CtApMapFusion\02_libs\CtApMapFusion.vxe:801a9ae4 0000017c W _ZN9mapfusion8BlockMapINS_12GlobalConfigILj4ELj6ELj2ELj2EEENS_23BlockMapComponentsTypesEE13processPointsINS_14IFencesAdapterIN9fencesapi10IFencesApiI28_Dt_RECORD_MRRObstacleFences29_Dt_RECORD_MRRObstacleContour28_Dt_RECORD_MRRObstacleVertexLj10ELj20ELj3ELj12EjjjEENS_6OCacheELj2097290ENS_22CommonPrioritySelectorEEENS_21SupportedUpdateHelperILj2179470EEEEENS_10ResultTypeERT_jRK16Transformation2DRKNS_9ClipEdgesERKNS_19ObstacleUpdateParamERb
E:\zFAS-Jenkins\workspace\zFAS_AIT_Master_AAT\SW\0300_ApplicationLayer\branches\CL3_REL_320_3XX\0350_SWC-SET\CtApMapFusion\02_libs\CtApMapFusion.vxe:801b6724 0000017c W _ZN9mapfusion8BlockMapINS_12GlobalConfigILj4ELj6ELj2ELj2EEENS_23BlockMapComponentsTypesEE13processPointsINS_14IFencesAdapterIN9fencesapi10IFencesApiI28_Dt_RECORD_MRRObstacleFences29_Dt_RECORD_MRRObstacleContour28_Dt_RECORD_MRRObstacleVertexLj10ELj20ELj3ELj12EjjjEENS_6OCacheELj2097290ENS_22CommonPrioritySelectorEEENS_21SupportedUpdateHelperILj2179530EEEEENS_10ResultTypeERT_jRK16Transformation2DRKNS_9ClipEdgesERKNS_19ObstacleUpdateParamERb
E:\zFAS-Jenkins\workspace\zFAS_AIT_Master_AAT\SW\0300_ApplicationLayer\branches\CL3_REL_320_3XX\0350_SWC-SET\CtApMapFusion\02_libs\CtApMapFusion.vxe:802261a8 00000208 W _ZN9mapfusion8BlockMapINS_12GlobalConfigILj4ELj6ELj2ELj2EEENS_23BlockMapComponentsTypesEE13processPointsINS_14IFencesAdapterIN9fencesapi10IFencesApiI28_Dt_RECORD_USFreespaceFences29_Dt_RECORD_USFreespaceContour28_Dt_RECORD_USFreespaceVertexLj48ELj192ELj1ELj1EjjjEENS_6FCacheELj200799355ENS_18USPrioritySelectorEEENS_21SupportedUpdateHelperILj200799355EEEEENS_10ResultTypeERT_jRK16Transformation2DRKNS_9ClipEdgesERKNS_19ObstacleUpdateParamERb
E:\zFAS-Jenkins\workspace\zFAS_AIT_Master_AAT\SW\0300_ApplicationLayer\branches\CL3_REL_320_3XX\0350_SWC-SET\CtApMapFusion\02_libs\CtApMapFusion.vxe:801e6048 00000208 W _ZN9mapfusion8BlockMapINS_12GlobalConfigILj4ELj6ELj2ELj2EEENS_23BlockMapComponentsTypesEE13processPointsINS_14IFencesAdapterIN9fencesapi10IFencesApiI28_Dt_RECORD_USFreespaceFences29_Dt_RECORD_USFreespaceContour28_Dt_RECORD_USFreespaceVertexLj48ELj192ELj1ELj1EjjjEENS_6FCacheELj200799355ENS_18USPrioritySelectorEEENS_21SupportedUpdateHelperILj2179470EEEEENS_10ResultTypeERT_jRK16Transformation2DRKNS_9ClipEdgesERKNS_19ObstacleUpdateParamERb
E:\zFAS-Jenkins\workspace\zFAS_AIT_Master_AAT\SW\0300_ApplicationLayer\branches\CL3_REL_320_3XX\0350_SWC-SET\CtApMapFusion\02_libs\CtApMapFusion.vxe:801e6250 00000208 W _ZN9mapfusion8BlockMapINS_12GlobalConfigILj4ELj6ELj2ELj2EEENS_23BlockMapComponentsTypesEE13processPointsINS_14IFencesAdapterIN9fencesapi10IFencesApiI28_Dt_RECORD_USFreespaceFences29_Dt_RECORD_USFreespaceContour28_Dt_RECORD_USFreespaceVertexLj48ELj192ELj1ELj1EjjjEENS_6FCacheELj200799355ENS_18USPrioritySelectorEEENS_21SupportedUpdateHelperILj2179530EEEEENS_10ResultTypeERT_jRK16Transformation2DRKNS_9ClipEdgesERKNS_19ObstacleUpdateParamERb
E:\zFAS-Jenkins\workspace\zFAS_AIT_Master_AAT\SW\0300_ApplicationLayer\branches\CL3_REL_320_3XX\0350_SWC-SET\CtApMapFusion\02_libs\CtApMapFusion.vxe:801aa7f8 00000184 W _ZN9mapfusion8BlockMapINS_12GlobalConfigILj4ELj6ELj2ELj2EEENS_23BlockMapComponentsTypesEE13processPointsINS_14IFencesAdapterIN9fencesapi10IFencesApiI29_Dt_RECORD_TVBVObstacleFences30_Dt_RECORD_TVBVObstacleContour29_Dt_RECORD_TVBVObstacleVertexLj64ELj200ELj3ELj12EjjjEENS_6OCacheELj2191391ENS_20TVIPPrioritySelectorEEENS_21SupportedUpdateHelperILj2179470EEEEENS_10ResultTypeERT_jRK16Transformation2DRKNS_9ClipEdgesERKNS_19ObstacleUpdateParamERb
E:\zFAS-Jenkins\workspace\zFAS_AIT_Master_AAT\SW\0300_ApplicationLayer\branches\CL3_REL_320_3XX\0350_SWC-SET\CtApMapFusion\02_libs\CtApMapFusion.vxe:801b7438 00000184 W _ZN9mapfusion8BlockMapINS_12GlobalConfigILj4ELj6ELj2ELj2EEENS_23BlockMapComponentsTypesEE13processPointsINS_14IFencesAdapterIN9fencesapi10IFencesApiI29_Dt_RECORD_TVBVObstacleFences30_Dt_RECORD_TVBVObstacleContour29_Dt_RECORD_TVBVObstacleVertexLj64ELj200ELj3ELj12EjjjEENS_6OCacheELj2191391ENS_20TVIPPrioritySelectorEEENS_21SupportedUpdateHelperILj2179530EEEEENS_10ResultTypeERT_jRK16Transformation2DRKNS_9ClipEdgesERKNS_19ObstacleUpdateParamERb
E:\zFAS-Jenkins\workspace\zFAS_AIT_Master_AAT\SW\0300_ApplicationLayer\branches\CL3_REL_320_3XX\0350_SWC-SET\CtApMapFusion\02_libs\CtApMapFusion.vxe:8021abd8 00000184 W _ZN9mapfusion8BlockMapINS_12GlobalConfigILj4ELj6ELj2ELj2EEENS_23BlockMapComponentsTypesEE13processPointsINS_14IFencesAdapterIN9fencesapi10IFencesApiI29_Dt_RECORD_TVBVObstacleFences30_Dt_RECORD_TVBVObstacleContour29_Dt_RECORD_TVBVObstacleVertexLj64ELj200ELj3ELj12EjjjEENS_6OCacheELj2191391ENS_20TVIPPrioritySelectorEEENS_21SupportedUpdateHelperILj2191391EEEEENS_10ResultTypeERT_jRK16Transformation2DRKNS_9ClipEdgesERKNS_19ObstacleUpdateParamERb
E:\zFAS-Jenkins\workspace\zFAS_AIT_Master_AAT\SW\0300_ApplicationLayer\branches\CL3_REL_320_3XX\0350_SWC-SET\CtApMapFusion\02_libs\CtApMapFusion.vxe:801d9524 00000184 W _ZN9mapfusion8BlockMapINS_12GlobalConfigILj4ELj6ELj2ELj2EEENS_23BlockMapComponentsTypesEE13processPointsINS_14IFencesAdapterIN9fencesapi10IFencesApiI30_Dt_RECORD_TVBVFreespaceFences31_Dt_RECORD_TVBVFreespaceContour30_Dt_RECORD_TVBVFreespaceVertexLj128ELj440ELj1ELj1EjjjEENS_6FCacheELj2191391ENS_20TVIPPrioritySelectorEEENS_21SupportedUpdateHelperILj2179470EEEEENS_10ResultTypeERT_jRK16Transformation2DRKNS_9ClipEdgesERKNS_19ObstacleUpdateParamERb
E:\zFAS-Jenkins\workspace\zFAS_AIT_Master_AAT\SW\0300_ApplicationLayer\branches\CL3_REL_320_3XX\0350_SWC-SET\CtApMapFusion\02_libs\CtApMapFusion.vxe:801d96a8 00000184 W _ZN9mapfusion8BlockMapINS_12GlobalConfigILj4ELj6ELj2ELj2EEENS_23BlockMapComponentsTypesEE13processPointsINS_14IFencesAdapterIN9fencesapi10IFencesApiI30_Dt_RECORD_TVBVFreespaceFences31_Dt_RECORD_TVBVFreespaceContour30_Dt_RECORD_TVBVFreespaceVertexLj128ELj440ELj1ELj1EjjjEENS_6FCacheELj2191391ENS_20TVIPPrioritySelectorEEENS_21SupportedUpdateHelperILj2179530EEEEENS_10ResultTypeERT_jRK16Transformation2DRKNS_9ClipEdgesERKNS_19ObstacleUpdateParamERb
E:\zFAS-Jenkins\workspace\zFAS_AIT_Master_AAT\SW\0300_ApplicationLayer\branches\CL3_REL_320_3XX\0350_SWC-SET\CtApMapFusion\02_libs\CtApMapFusion.vxe:8021bc40 00000184 W _ZN9mapfusion8BlockMapINS_12GlobalConfigILj4ELj6ELj2ELj2EEENS_23BlockMapComponentsTypesEE13processPointsINS_14IFencesAdapterIN9fencesapi10IFencesApiI30_Dt_RECORD_TVBVFreespaceFences31_Dt_RECORD_TVBVFreespaceContour30_Dt_RECORD_TVBVFreespaceVertexLj128ELj440ELj1ELj1EjjjEENS_6FCacheELj2191391ENS_20TVIPPrioritySelectorEEENS_21SupportedUpdateHelperILj2191391EEEEENS_10ResultTypeERT_jRK16Transformation2DRKNS_9ClipEdgesERKNS_19ObstacleUpdateParamERb
E:\zFAS-Jenkins\workspace\zFAS_AIT_Master_AAT\SW\0300_ApplicationLayer\branches\CL3_REL_320_3XX\0350_SWC-SET\CtApMapFusion\02_libs\CtApMapFusion.vxe:801f3784 00000184 W _ZN9mapfusion8BlockMapINS_12GlobalConfigILj4ELj6ELj2ELj2EEENS_23BlockMapComponentsTypesEE13processPointsINS_14IFencesAdapterIN9fencesapi10IFencesApiIN15fencesinterface17FencesLightStructENS9_7ContourENS9_6VertexELj250ELj500ELj5ELj31EjjjEENS_6FCacheELj4608ENS_22CommonPrioritySelectorEEENS_21SupportedUpdateHelperILj2179470EEEEENS_10ResultTypeERT_jRK16Transformation2DRKNS_9ClipEdgesERKNS_19ObstacleUpdateParamERb
E:\zFAS-Jenkins\workspace\zFAS_AIT_Master_AAT\SW\0300_ApplicationLayer\branches\CL3_REL_320_3XX\0350_SWC-SET\CtApMapFusion\02_libs\CtApMapFusion.vxe:801f3908 00000184 W _ZN9mapfusion8BlockMapINS_12GlobalConfigILj4ELj6ELj2ELj2EEENS_23BlockMapComponentsTypesEE13processPointsINS_14IFencesAdapterIN9fencesapi10IFencesApiIN15fencesinterface17FencesLightStructENS9_7ContourENS9_6VertexELj250ELj500ELj5ELj31EjjjEENS_6FCacheELj4608ENS_22CommonPrioritySelectorEEENS_21SupportedUpdateHelperILj2179530EEEEENS_10ResultTypeERT_jRK16Transformation2DRKNS_9ClipEdgesERKNS_19ObstacleUpdateParamERb
E:\zFAS-Jenkins\workspace\zFAS_AIT_Master_AAT\SW\0300_ApplicationLayer\branches\CL3_REL_320_3XX\0350_SWC-SET\CtApMapFusion\02_libs\CtApMapFusion.vxe:8022b414 00000184 W _ZN9mapfusion8BlockMapINS_12GlobalConfigILj4ELj6ELj2ELj2EEENS_23BlockMapComponentsTypesEE13processPointsINS_14IFencesAdapterIN9fencesapi10IFencesApiIN15fencesinterface17FencesLightStructENS9_7ContourENS9_6VertexELj250ELj500ELj5ELj31EjjjEENS_6FCacheELj4608ENS_22CommonPrioritySelectorEEENS_21SupportedUpdateHelperILj4608EEEEENS_10ResultTypeERT_jRK16Transformation2DRKNS_9ClipEdgesERKNS_19ObstacleUpdateParamERb
E:\zFAS-Jenkins\workspace\zFAS_AIT_Master_AAT\SW\0300_ApplicationLayer\branches\CL3_REL_320_3XX\0350_SWC-SET\CtApMapFusion\02_libs\CtApMapFusion.vxe:801addcc 00000184 W _ZN9mapfusion8BlockMapINS_12GlobalConfigILj4ELj6ELj2ELj2EEENS_23BlockMapComponentsTypesEE13processPointsINS_14IFencesAdapterIN9fencesapi10IFencesApiIN15fencesinterface17FencesLightStructENS9_7ContourENS9_6VertexELj250ELj500ELj5ELj31EjjjEENS_6FCacheELj8392705ENS_22CommonPrioritySelectorEEENS_21SupportedUpdateHelperILj2179470EEEEENS_10ResultTypeERT_jRK16Transformation2DRKNS_9ClipEdgesERKNS_19ObstacleUpdateParamERb
E:\zFAS-Jenkins\workspace\zFAS_AIT_Master_AAT\SW\0300_ApplicationLayer\branches\CL3_REL_320_3XX\0350_SWC-SET\CtApMapFusion\02_libs\CtApMapFusion.vxe:801bb388 00000184 W _ZN9mapfusion8BlockMapINS_12GlobalConfigILj4ELj6ELj2ELj2EEENS_23BlockMapComponentsTypesEE13processPointsINS_14IFencesAdapterIN9fencesapi10IFencesApiIN15fencesinterface17FencesLightStructENS9_7ContourENS9_6VertexELj250ELj500ELj5ELj31EjjjEENS_6FCacheELj8392705ENS_22CommonPrioritySelectorEEENS_21SupportedUpdateHelperILj2179530EEEEENS_10ResultTypeERT_jRK16Transformation2DRKNS_9ClipEdgesERKNS_19ObstacleUpdateParamERb
E:\zFAS-Jenkins\workspace\zFAS_AIT_Master_AAT\SW\0300_ApplicationLayer\branches\CL3_REL_320_3XX\0350_SWC-SET\CtApMapFusion\02_libs\CtApMapFusion.vxe:8020534c 00000184 W _ZN9mapfusion8BlockMapINS_12GlobalConfigILj4ELj6ELj2ELj2EEENS_23BlockMapComponentsTypesEE13processPointsINS_14IFencesAdapterIN9fencesapi10IFencesApiIN15fencesinterface17FencesLightStructENS9_7ContourENS9_6VertexELj250ELj500ELj5ELj31EjjjEENS_6FCacheELj8392705ENS_22CommonPrioritySelectorEEENS_21SupportedUpdateHelperILj8392705EEEEENS_10ResultTypeERT_jRK16Transformation2DRKNS_9ClipEdgesERKNS_19ObstacleUpdateParamERb
E:\zFAS-Jenkins\workspace\zFAS_AIT_Master_AAT\SW\0300_ApplicationLayer\branches\CL3_REL_320_3XX\0350_SWC-SET\CtApMapFusion\02_libs\CtApMapFusion.vxe:801bf9f4 00000184 W _ZN9mapfusion8BlockMapINS_12GlobalConfigILj4ELj6ELj2ELj2EEENS_23BlockMapComponentsTypesEE13processPointsINS_14IFencesAdapterIN9fencesapi10IFencesApiIN15fencesinterface17FencesLightStructENS9_7ContourENS9_6VertexELj250ELj500ELj5ELj31EjjjEENS_6OCacheELj2097152ENS_22CommonPrioritySelectorEEENS_21SupportedUpdateHelperILj2097152EEEEENS_10ResultTypeERT_jRK16Transformation2DRKNS_9ClipEdgesERKNS_19ObstacleUpdateParamERb
E:\zFAS-Jenkins\workspace\zFAS_AIT_Master_AAT\SW\0300_ApplicationLayer\branches\CL3_REL_320_3XX\0350_SWC-SET\CtApMapFusion\02_libs\CtApMapFusion.vxe:801abb3c 00000184 W _ZN9mapfusion8BlockMapINS_12GlobalConfigILj4ELj6ELj2ELj2EEENS_23BlockMapComponentsTypesEE13processPointsINS_14IFencesAdapterIN9fencesapi10IFencesApiIN15fencesinterface17FencesLightStructENS9_7ContourENS9_6VertexELj250ELj500ELj5ELj31EjjjEENS_6OCacheELj2097152ENS_22CommonPrioritySelectorEEENS_21SupportedUpdateHelperILj2179470EEEEENS_10ResultTypeERT_jRK16Transformation2DRKNS_9ClipEdgesERKNS_19ObstacleUpdateParamERb
E:\zFAS-Jenkins\workspace\zFAS_AIT_Master_AAT\SW\0300_ApplicationLayer\branches\CL3_REL_320_3XX\0350_SWC-SET\CtApMapFusion\02_libs\CtApMapFusion.vxe:801b90f8 00000184 W _ZN9mapfusion8BlockMapINS_12GlobalConfigILj4ELj6ELj2ELj2EEENS_23BlockMapComponentsTypesEE13processPointsINS_14IFencesAdapterIN9fencesapi10IFencesApiIN15fencesinterface17FencesLightStructENS9_7ContourENS9_6VertexELj250ELj500ELj5ELj31EjjjEENS_6OCacheELj2097152ENS_22CommonPrioritySelectorEEENS_21SupportedUpdateHelperILj2179530EEEEENS_10ResultTypeERT_jRK16Transformation2DRKNS_9ClipEdgesERKNS_19ObstacleUpdateParamERb
E:\zFAS-Jenkins\workspace\zFAS_AIT_Master_AAT\SW\0300_ApplicationLayer\branches\CL3_REL_320_3XX\0350_SWC-SET\CtApMapFusion\02_libs\CtApMapFusion.vxe:801a26a4 00000184 W _ZN9mapfusion8BlockMapINS_12GlobalConfigILj4ELj6ELj2ELj2EEENS_23BlockMapComponentsTypesEE13processPointsINS_14IFencesAdapterIN9fencesapi10IFencesApiIN15fencesinterface17FencesLightStructENS9_7ContourENS9_6VertexELj250ELj500ELj5ELj31EjjjEENS_6OCacheELj2097154ENS_22CommonPrioritySelectorEEENS_21SupportedUpdateHelperILj2097154EEEEENS_10ResultTypeERT_jRK16Transformation2DRKNS_9ClipEdgesERKNS_19ObstacleUpdateParamERb
E:\zFAS-Jenkins\workspace\zFAS_AIT_Master_AAT\SW\0300_ApplicationLayer\branches\CL3_REL_320_3XX\0350_SWC-SET\CtApMapFusion\02_libs\CtApMapFusion.vxe:801ab57c 00000184 W _ZN9mapfusion8BlockMapINS_12GlobalConfigILj4ELj6ELj2ELj2EEENS_23BlockMapComponentsTypesEE13processPointsINS_14IFencesAdapterIN9fencesapi10IFencesApiIN15fencesinterface17FencesLightStructENS9_7ContourENS9_6VertexELj250ELj500ELj5ELj31EjjjEENS_6OCacheELj2097154ENS_22CommonPrioritySelectorEEENS_21SupportedUpdateHelperILj2179470EEEEENS_10ResultTypeERT_jRK16Transformation2DRKNS_9ClipEdgesERKNS_19ObstacleUpdateParamERb
E:\zFAS-Jenkins\workspace\zFAS_AIT_Master_AAT\SW\0300_ApplicationLayer\branches\CL3_REL_320_3XX\0350_SWC-SET\CtApMapFusion\02_libs\CtApMapFusion.vxe:801b81bc 00000184 W _ZN9mapfusion8BlockMapINS_12GlobalConfigILj4ELj6ELj2ELj2EEENS_23BlockMapComponentsTypesEE13processPointsINS_14IFencesAdapterIN9fencesapi10IFencesApiIN15fencesinterface17FencesLightStructENS9_7ContourENS9_6VertexELj250ELj500ELj5ELj31EjjjEENS_6OCacheELj2097154ENS_22CommonPrioritySelectorEEENS_21SupportedUpdateHelperILj2179530EEEEENS_10ResultTypeERT_jRK16Transformation2DRKNS_9ClipEdgesERKNS_19ObstacleUpdateParamERb
E:\zFAS-Jenkins\workspace\zFAS_AIT_Master_AAT\SW\0300_ApplicationLayer\branches\CL3_REL_320_3XX\0350_SWC-SET\CtApMapFusion\02_libs\CtApMapFusion.vxe:80061090 000002f4 W _ZN9mapfusion8BlockMapINS_12GlobalConfigILj4ELj6ELj2ELj2EEENS_23BlockMapComponentsTypesEE14doVirtualShiftERKNS_13OdoControllerERK9TimeStampRKNS_13CommonPreProcER16Transformation2D
E:\zFAS-Jenkins\workspace\zFAS_AIT_Master_AAT\SW\0300_ApplicationLayer\branches\CL3_REL_320_3XX\0350_SWC-SET\CtApMapFusion\02_libs\CtApMapFusion.vxe:802491b0 000001d0 W _ZN9mapfusion8BlockMapINS_12GlobalConfigILj4ELj6ELj2ELj2EEENS_23BlockMapComponentsTypesEE14processPolygonINS_14IFencesAdapterIN9fencesapi10IFencesApiI19_Dt_RECORD_MVFences20_Dt_RECORD_MVContour19_Dt_RECORD_MVVertexLj100ELj100ELj3ELj13ENS7_28MvFencesApiAdditionalMembersEjjEENS_6FCacheELj3072ENS_22CommonPrioritySelectorEEENS_21SupportedUpdateHelperILj2103305EEEEENS_10ResultTypeERT_jRK16Transformation2DRNS_13DblLinkedListIPNS_9BaseBlockIS2_EEEEjbb
E:\zFAS-Jenkins\workspace\zFAS_AIT_Master_AAT\SW\0300_ApplicationLayer\branches\CL3_REL_320_3XX\0350_SWC-SET\CtApMapFusion\02_libs\CtApMapFusion.vxe:802499bc 000001d0 W _ZN9mapfusion8BlockMapINS_12GlobalConfigILj4ELj6ELj2ELj2EEENS_23BlockMapComponentsTypesEE14processPolygonINS_14IFencesAdapterIN9fencesapi10IFencesApiI19_Dt_RECORD_MVFences20_Dt_RECORD_MVContour19_Dt_RECORD_MVVertexLj100ELj100ELj3ELj13ENS7_28MvFencesApiAdditionalMembersEjjEENS_6FCacheELj3072ENS_22CommonPrioritySelectorEEENS_21SupportedUpdateHelperILj3072EEEEENS_10ResultTypeERT_jRK16Transformation2DRNS_13DblLinkedListIPNS_9BaseBlockIS2_EEEEjbb
E:\zFAS-Jenkins\workspace\zFAS_AIT_Master_AAT\SW\0300_ApplicationLayer\branches\CL3_REL_320_3XX\0350_SWC-SET\CtApMapFusion\02_libs\CtApMapFusion.vxe:802390b4 000001d0 W _ZN9mapfusion8BlockMapINS_12GlobalConfigILj4ELj6ELj2ELj2EEENS_23BlockMapComponentsTypesEE14processPolygonINS_14IFencesAdapterIN9fencesapi10IFencesApiI19_Dt_RECORD_MVFences20_Dt_RECORD_MVContour19_Dt_RECORD_MVVertexLj100ELj100ELj3ELj13ENS7_28MvFencesApiAdditionalMembersEjjEENS_6OCacheELj2097290ENS_22CommonPrioritySelectorEEENS_21SupportedUpdateHelperILj2097290EEEEENS_10ResultTypeERT_jRK16Transformation2DRNS_13DblLinkedListIPNS_9BaseBlockIS2_EEEEjbb
E:\zFAS-Jenkins\workspace\zFAS_AIT_Master_AAT\SW\0300_ApplicationLayer\branches\CL3_REL_320_3XX\0350_SWC-SET\CtApMapFusion\02_libs\CtApMapFusion.vxe:80232e68 000001d0 W _ZN9mapfusion8BlockMapINS_12GlobalConfigILj4ELj6ELj2ELj2EEENS_23BlockMapComponentsTypesEE14processPolygonINS_14IFencesAdapterIN9fencesapi10IFencesApiI19_Dt_RECORD_MVFences20_Dt_RECORD_MVContour19_Dt_RECORD_MVVertexLj100ELj100ELj3ELj13ENS7_28MvFencesApiAdditionalMembersEjjEENS_6OCacheELj2097290ENS_22CommonPrioritySelectorEEENS_21SupportedUpdateHelperILj2103305EEEEENS_10ResultTypeERT_jRK16Transformation2DRNS_13DblLinkedListIPNS_9BaseBlockIS2_EEEEjbb
E:\zFAS-Jenkins\workspace\zFAS_AIT_Master_AAT\SW\0300_ApplicationLayer\branches\CL3_REL_320_3XX\0350_SWC-SET\CtApMapFusion\02_libs\CtApMapFusion.vxe:8022fd48 000001c0 W _ZN9mapfusion8BlockMapINS_12GlobalConfigILj4ELj6ELj2ELj2EEENS_23BlockMapComponentsTypesEE14processPolygonINS_14IFencesAdapterIN9fencesapi10IFencesApiI27_Dt_RECORD_LSObstacleFences28_Dt_RECORD_LSObstacleContour27_Dt_RECORD_LSObstacleVertexLj64ELj350ELj3ELj12EjjjEENS_6OCacheELj2322459ENS_18LSPrioritySelectorEEENS_21SupportedUpdateHelperILj2322459EEEEENS_10ResultTypeERT_jRK16Transformation2DRNS_13DblLinkedListIPNS_9BaseBlockIS2_EEEEjbb
E:\zFAS-Jenkins\workspace\zFAS_AIT_Master_AAT\SW\0300_ApplicationLayer\branches\CL3_REL_320_3XX\0350_SWC-SET\CtApMapFusion\02_libs\CtApMapFusion.vxe:8023de78 000001b4 W _ZN9mapfusion8BlockMapINS_12GlobalConfigILj4ELj6ELj2ELj2EEENS_23BlockMapComponentsTypesEE14processPolygonINS_14IFencesAdapterIN9fencesapi10IFencesApiI27_Dt_RECORD_USObstacleFences28_Dt_RECORD_USObstacleContour27_Dt_RECORD_USObstacleVertexLj24ELj48ELj3ELj12ENS7_36UsObstacleFencesApiAdditionalMembersEjtEENS_6OCacheELj200799355ENS_18USPrioritySelectorEEENS_21SupportedUpdateHelperILj200799355EEEEENS_10ResultTypeERT_jRK16Transformation2DRNS_13DblLinkedListIPNS_9BaseBlockIS2_EEEEjbb
E:\zFAS-Jenkins\workspace\zFAS_AIT_Master_AAT\SW\0300_ApplicationLayer\branches\CL3_REL_320_3XX\0350_SWC-SET\CtApMapFusion\02_libs\CtApMapFusion.vxe:80234a78 000001b4 W _ZN9mapfusion8BlockMapINS_12GlobalConfigILj4ELj6ELj2ELj2EEENS_23BlockMapComponentsTypesEE14processPolygonINS_14IFencesAdapterIN9fencesapi10IFencesApiI28_Dt_RECORD_LRRObstacleFences29_Dt_RECORD_LRRObstacleContour28_Dt_RECORD_LRRObstacleVertexLj10ELj20ELj3ELj12EjjjEENS_6OCacheELj2097290ENS_22CommonPrioritySelectorEEENS_21SupportedUpdateHelperILj2097290EEEEENS_10ResultTypeERT_jRK16Transformation2DRNS_13DblLinkedListIPNS_9BaseBlockIS2_EEEEjbb
E:\zFAS-Jenkins\workspace\zFAS_AIT_Master_AAT\SW\0300_ApplicationLayer\branches\CL3_REL_320_3XX\0350_SWC-SET\CtApMapFusion\02_libs\CtApMapFusion.vxe:80246784 000001bc W _ZN9mapfusion8BlockMapINS_12GlobalConfigILj4ELj6ELj2ELj2EEENS_23BlockMapComponentsTypesEE14processPolygonINS_14IFencesAdapterIN9fencesapi10IFencesApiI28_Dt_RECORD_LSFreespaceFences29_Dt_RECORD_LSFreespaceContour28_Dt_RECORD_LSFreespaceVertexLj64ELj350ELj1ELj1EjNS7_34ZfasLsFreespaceContourApiAddMemberEjEENS_6FCacheELj2322459ENS_18LSPrioritySelectorEEENS_21SupportedUpdateHelperILj2103305EEEEENS_10ResultTypeERT_jRK16Transformation2DRNS_13DblLinkedListIPNS_9BaseBlockIS2_EEEEjbb
E:\zFAS-Jenkins\workspace\zFAS_AIT_Master_AAT\SW\0300_ApplicationLayer\branches\CL3_REL_320_3XX\0350_SWC-SET\CtApMapFusion\02_libs\CtApMapFusion.vxe:80246188 000001bc W _ZN9mapfusion8BlockMapINS_12GlobalConfigILj4ELj6ELj2ELj2EEENS_23BlockMapComponentsTypesEE14processPolygonINS_14IFencesAdapterIN9fencesapi10IFencesApiI28_Dt_RECORD_LSFreespaceFences29_Dt_RECORD_LSFreespaceContour28_Dt_RECORD_LSFreespaceVertexLj64ELj350ELj1ELj1EjNS7_34ZfasLsFreespaceContourApiAddMemberEjEENS_6FCacheELj2322459ENS_18LSPrioritySelectorEEENS_21SupportedUpdateHelperILj2322459EEEEENS_10ResultTypeERT_jRK16Transformation2DRNS_13DblLinkedListIPNS_9BaseBlockIS2_EEEEjbb
E:\zFAS-Jenkins\workspace\zFAS_AIT_Master_AAT\SW\0300_ApplicationLayer\branches\CL3_REL_320_3XX\0350_SWC-SET\CtApMapFusion\02_libs\CtApMapFusion.vxe:80236c7c 000001b4 W _ZN9mapfusion8BlockMapINS_12GlobalConfigILj4ELj6ELj2ELj2EEENS_23BlockMapComponentsTypesEE14processPolygonINS_14IFencesAdapterIN9fencesapi10IFencesApiI28_Dt_RECORD_MRRObstacleFences29_Dt_RECORD_MRRObstacleContour28_Dt_RECORD_MRRObstacleVertexLj10ELj20ELj3ELj12EjjjEENS_6OCacheELj2097290ENS_22CommonPrioritySelectorEEENS_21SupportedUpdateHelperILj2097290EEEEENS_10ResultTypeERT_jRK16Transformation2DRNS_13DblLinkedListIPNS_9BaseBlockIS2_EEEEjbb
E:\zFAS-Jenkins\workspace\zFAS_AIT_Master_AAT\SW\0300_ApplicationLayer\branches\CL3_REL_320_3XX\0350_SWC-SET\CtApMapFusion\02_libs\CtApMapFusion.vxe:8024fabc 000001b4 W _ZN9mapfusion8BlockMapINS_12GlobalConfigILj4ELj6ELj2ELj2EEENS_23BlockMapComponentsTypesEE14processPolygonINS_14IFencesAdapterIN9fencesapi10IFencesApiI28_Dt_RECORD_USFreespaceFences29_Dt_RECORD_USFreespaceContour28_Dt_RECORD_USFreespaceVertexLj48ELj192ELj1ELj1EjjjEENS_6FCacheELj200799355ENS_18USPrioritySelectorEEENS_21SupportedUpdateHelperILj200799355EEEEENS_10ResultTypeERT_jRK16Transformation2DRNS_13DblLinkedListIPNS_9BaseBlockIS2_EEEEjbb
E:\zFAS-Jenkins\workspace\zFAS_AIT_Master_AAT\SW\0300_ApplicationLayer\branches\CL3_REL_320_3XX\0350_SWC-SET\CtApMapFusion\02_libs\CtApMapFusion.vxe:8023b9dc 000001c0 W _ZN9mapfusion8BlockMapINS_12GlobalConfigILj4ELj6ELj2ELj2EEENS_23BlockMapComponentsTypesEE14processPolygonINS_14IFencesAdapterIN9fencesapi10IFencesApiI29_Dt_RECORD_TVBVObstacleFences30_Dt_RECORD_TVBVObstacleContour29_Dt_RECORD_TVBVObstacleVertexLj64ELj200ELj3ELj12EjjjEENS_6OCacheELj2191391ENS_20TVIPPrioritySelectorEEENS_21SupportedUpdateHelperILj2191391EEEEENS_10ResultTypeERT_jRK16Transformation2DRNS_13DblLinkedListIPNS_9BaseBlockIS2_EEEEjbb
E:\zFAS-Jenkins\workspace\zFAS_AIT_Master_AAT\SW\0300_ApplicationLayer\branches\CL3_REL_320_3XX\0350_SWC-SET\CtApMapFusion\02_libs\CtApMapFusion.vxe:8024cc84 000001bc W _ZN9mapfusion8BlockMapINS_12GlobalConfigILj4ELj6ELj2ELj2EEENS_23BlockMapComponentsTypesEE14processPolygonINS_14IFencesAdapterIN9fencesapi10IFencesApiI30_Dt_RECORD_TVBVFreespaceFences31_Dt_RECORD_TVBVFreespaceContour30_Dt_RECORD_TVBVFreespaceVertexLj128ELj440ELj1ELj1EjjjEENS_6FCacheELj2191391ENS_20TVIPPrioritySelectorEEENS_21SupportedUpdateHelperILj2191391EEEEENS_10ResultTypeERT_jRK16Transformation2DRNS_13DblLinkedListIPNS_9BaseBlockIS2_EEEEjbb
E:\zFAS-Jenkins\workspace\zFAS_AIT_Master_AAT\SW\0300_ApplicationLayer\branches\CL3_REL_320_3XX\0350_SWC-SET\CtApMapFusion\02_libs\CtApMapFusion.vxe:80252da8 000001bc W _ZN9mapfusion8BlockMapINS_12GlobalConfigILj4ELj6ELj2ELj2EEENS_23BlockMapComponentsTypesEE14processPolygonINS_14IFencesAdapterIN9fencesapi10IFencesApiIN15fencesinterface17FencesLightStructENS9_7ContourENS9_6VertexELj250ELj500ELj5ELj31EjjjEENS_6FCacheELj4608ENS_22CommonPrioritySelectorEEENS_21SupportedUpdateHelperILj4608EEEEENS_10ResultTypeERT_jRK16Transformation2DRNS_13DblLinkedListIPNS_9BaseBlockIS2_EEEEjbb
E:\zFAS-Jenkins\workspace\zFAS_AIT_Master_AAT\SW\0300_ApplicationLayer\branches\CL3_REL_320_3XX\0350_SWC-SET\CtApMapFusion\02_libs\CtApMapFusion.vxe:80243fc0 000001bc W _ZN9mapfusion8BlockMapINS_12GlobalConfigILj4ELj6ELj2ELj2EEENS_23BlockMapComponentsTypesEE14processPolygonINS_14IFencesAdapterIN9fencesapi10IFencesApiIN15fencesinterface17FencesLightStructENS9_7ContourENS9_6VertexELj250ELj500ELj5ELj31EjjjEENS_6FCacheELj8392705ENS_22CommonPrioritySelectorEEENS_21SupportedUpdateHelperILj8392705EEEEENS_10ResultTypeERT_jRK16Transformation2DRNS_13DblLinkedListIPNS_9BaseBlockIS2_EEEEjbb
E:\zFAS-Jenkins\workspace\zFAS_AIT_Master_AAT\SW\0300_ApplicationLayer\branches\CL3_REL_320_3XX\0350_SWC-SET\CtApMapFusion\02_libs\CtApMapFusion.vxe:802423e0 000001bc W _ZN9mapfusion8BlockMapINS_12GlobalConfigILj4ELj6ELj2ELj2EEENS_23BlockMapComponentsTypesEE14processPolygonINS_14IFencesAdapterIN9fencesapi10IFencesApiIN15fencesinterface17FencesLightStructENS9_7ContourENS9_6VertexELj250ELj500ELj5ELj31EjjjEENS_6OCacheELj2097152ENS_22CommonPrioritySelectorEEENS_21SupportedUpdateHelperILj2097152EEEEENS_10ResultTypeERT_jRK16Transformation2DRNS_13DblLinkedListIPNS_9BaseBlockIS2_EEEEjbb
E:\zFAS-Jenkins\workspace\zFAS_AIT_Master_AAT\SW\0300_ApplicationLayer\branches\CL3_REL_320_3XX\0350_SWC-SET\CtApMapFusion\02_libs\CtApMapFusion.vxe:80240800 000001bc W _ZN9mapfusion8BlockMapINS_12GlobalConfigILj4ELj6ELj2ELj2EEENS_23BlockMapComponentsTypesEE14processPolygonINS_14IFencesAdapterIN9fencesapi10IFencesApiIN15fencesinterface17FencesLightStructENS9_7ContourENS9_6VertexELj250ELj500ELj5ELj31EjjjEENS_6OCacheELj2097154ENS_22CommonPrioritySelectorEEENS_21SupportedUpdateHelperILj2097154EEEEENS_10ResultTypeERT_jRK16Transformation2DRNS_13DblLinkedListIPNS_9BaseBlockIS2_EEEEjbb
E:\zFAS-Jenkins\workspace\zFAS_AIT_Master_AAT\SW\0300_ApplicationLayer\branches\CL3_REL_320_3XX\0350_SWC-SET\CtApMapFusion\02_libs\CtApMapFusion.vxe:801d4b7c 00000188 W _ZN9mapfusion8BlockMapINS_12GlobalConfigILj4ELj6ELj2ELj2EEENS_23BlockMapComponentsTypesEE15processPolylineINS_14IFencesAdapterIN9fencesapi10IFencesApiI19_Dt_RECORD_MVFences20_Dt_RECORD_MVContour19_Dt_RECORD_MVVertexLj100ELj100ELj3ELj13ENS7_28MvFencesApiAdditionalMembersEjjEENS_6FCacheELj3072ENS_22CommonPrioritySelectorEEENS_21SupportedUpdateHelperILj2179470EEEEENS_10ResultTypeERT_jRK16Transformation2DRKNS_9ClipEdgesERNS_13DblLinkedListIPNS_9BaseBlockIS2_EEEERKNS_19ObstacleUpdateParamE
E:\zFAS-Jenkins\workspace\zFAS_AIT_Master_AAT\SW\0300_ApplicationLayer\branches\CL3_REL_320_3XX\0350_SWC-SET\CtApMapFusion\02_libs\CtApMapFusion.vxe:801d7ed4 00000188 W _ZN9mapfusion8BlockMapINS_12GlobalConfigILj4ELj6ELj2ELj2EEENS_23BlockMapComponentsTypesEE15processPolylineINS_14IFencesAdapterIN9fencesapi10IFencesApiI19_Dt_RECORD_MVFences20_Dt_RECORD_MVContour19_Dt_RECORD_MVVertexLj100ELj100ELj3ELj13ENS7_28MvFencesApiAdditionalMembersEjjEENS_6FCacheELj3072ENS_22CommonPrioritySelectorEEENS_21SupportedUpdateHelperILj2179530EEEEENS_10ResultTypeERT_jRK16Transformation2DRKNS_9ClipEdgesERNS_13DblLinkedListIPNS_9BaseBlockIS2_EEEERKNS_19ObstacleUpdateParamE
E:\zFAS-Jenkins\workspace\zFAS_AIT_Master_AAT\SW\0300_ApplicationLayer\branches\CL3_REL_320_3XX\0350_SWC-SET\CtApMapFusion\02_libs\CtApMapFusion.vxe:801d1744 00000188 W _ZN9mapfusion8BlockMapINS_12GlobalConfigILj4ELj6ELj2ELj2EEENS_23BlockMapComponentsTypesEE15processPolylineINS_14IFencesAdapterIN9fencesapi10IFencesApiI19_Dt_RECORD_MVFences20_Dt_RECORD_MVContour19_Dt_RECORD_MVVertexLj100ELj100ELj3ELj13ENS7_28MvFencesApiAdditionalMembersEjjEENS_6FCacheELj3072ENS_22CommonPrioritySelectorEEENS_21SupportedUpdateHelperILj3072EEEEENS_10ResultTypeERT_jRK16Transformation2DRKNS_9ClipEdgesERNS_13DblLinkedListIPNS_9BaseBlockIS2_EEEERKNS_19ObstacleUpdateParamE
